	.file	"expmain1.cpp"
	.text
	.section	.text$_ZN9__gnu_cxx5__ops16__iter_less_iterEv,"x"
	.linkonce discard
	.globl	_ZN9__gnu_cxx5__ops16__iter_less_iterEv
	.def	_ZN9__gnu_cxx5__ops16__iter_less_iterEv;	.scl	2;	.type	32;	.endef
	.seh_proc	_ZN9__gnu_cxx5__ops16__iter_less_iterEv
_ZN9__gnu_cxx5__ops16__iter_less_iterEv:
.LFB272:
	pushq	%rbp
	.seh_pushreg	%rbp
	movq	%rsp, %rbp
	.seh_setframe	%rbp, 0
	.seh_endprologue
	nop
	popq	%rbp
	ret
	.seh_endproc
	.section	.text$_ZSt17__size_to_integery,"x"
	.linkonce discard
	.globl	_ZSt17__size_to_integery
	.def	_ZSt17__size_to_integery;	.scl	2;	.type	32;	.endef
	.seh_proc	_ZSt17__size_to_integery
_ZSt17__size_to_integery:
.LFB363:
	pushq	%rbp
	.seh_pushreg	%rbp
	movq	%rsp, %rbp
	.seh_setframe	%rbp, 0
	.seh_endprologue
	movq	%rcx, 16(%rbp)
	movq	16(%rbp), %rax
	popq	%rbp
	ret
	.seh_endproc
	.section	.text$_ZnwyPv,"x"
	.linkonce discard
	.globl	_ZnwyPv
	.def	_ZnwyPv;	.scl	2;	.type	32;	.endef
	.seh_proc	_ZnwyPv
_ZnwyPv:
.LFB474:
	pushq	%rbp
	.seh_pushreg	%rbp
	movq	%rsp, %rbp
	.seh_setframe	%rbp, 0
	.seh_endprologue
	movq	%rcx, 16(%rbp)
	movq	%rdx, 24(%rbp)
	movq	24(%rbp), %rax
	popq	%rbp
	ret
	.seh_endproc
	.section	.text$_ZdlPvS_,"x"
	.linkonce discard
	.globl	_ZdlPvS_
	.def	_ZdlPvS_;	.scl	2;	.type	32;	.endef
	.seh_proc	_ZdlPvS_
_ZdlPvS_:
.LFB476:
	pushq	%rbp
	.seh_pushreg	%rbp
	movq	%rsp, %rbp
	.seh_setframe	%rbp, 0
	.seh_endprologue
	movq	%rcx, 16(%rbp)
	movq	%rdx, 24(%rbp)
	nop
	popq	%rbp
	ret
	.seh_endproc
	.section	.text$_ZNSt11char_traitsIcE6assignERcRKc,"x"
	.linkonce discard
	.globl	_ZNSt11char_traitsIcE6assignERcRKc
	.def	_ZNSt11char_traitsIcE6assignERcRKc;	.scl	2;	.type	32;	.endef
	.seh_proc	_ZNSt11char_traitsIcE6assignERcRKc
_ZNSt11char_traitsIcE6assignERcRKc:
.LFB818:
	pushq	%rbp
	.seh_pushreg	%rbp
	movq	%rsp, %rbp
	.seh_setframe	%rbp, 0
	.seh_endprologue
	movq	%rcx, 16(%rbp)
	movq	%rdx, 24(%rbp)
	movq	24(%rbp), %rax
	movzbl	(%rax), %edx
	movq	16(%rbp), %rax
	movb	%dl, (%rax)
	nop
	popq	%rbp
	ret
	.seh_endproc
	.section	.text$_ZNSt11char_traitsIcE6lengthEPKc,"x"
	.linkonce discard
	.globl	_ZNSt11char_traitsIcE6lengthEPKc
	.def	_ZNSt11char_traitsIcE6lengthEPKc;	.scl	2;	.type	32;	.endef
	.seh_proc	_ZNSt11char_traitsIcE6lengthEPKc
_ZNSt11char_traitsIcE6lengthEPKc:
.LFB822:
	pushq	%rbp
	.seh_pushreg	%rbp
	movq	%rsp, %rbp
	.seh_setframe	%rbp, 0
	subq	$32, %rsp
	.seh_stackalloc	32
	.seh_endprologue
	movq	%rcx, 16(%rbp)
	movl	$0, %eax
	testb	%al, %al
	je	.L11
	movq	16(%rbp), %rax
	movq	%rax, %rcx
	call	_ZN9__gnu_cxx11char_traitsIcE6lengthEPKc
	jmp	.L12
.L11:
	movq	16(%rbp), %rax
	movq	%rax, %rcx
	call	strlen
	nop
.L12:
	addq	$32, %rsp
	popq	%rbp
	ret
	.seh_endproc
	.section	.text$_ZNSt11char_traitsIcE4moveEPcPKcy,"x"
	.linkonce discard
	.globl	_ZNSt11char_traitsIcE4moveEPcPKcy
	.def	_ZNSt11char_traitsIcE4moveEPcPKcy;	.scl	2;	.type	32;	.endef
	.seh_proc	_ZNSt11char_traitsIcE4moveEPcPKcy
_ZNSt11char_traitsIcE4moveEPcPKcy:
.LFB824:
	pushq	%rbp
	.seh_pushreg	%rbp
	movq	%rsp, %rbp
	.seh_setframe	%rbp, 0
	subq	$32, %rsp
	.seh_stackalloc	32
	.seh_endprologue
	movq	%rcx, 16(%rbp)
	movq	%rdx, 24(%rbp)
	movq	%r8, 32(%rbp)
	cmpq	$0, 32(%rbp)
	jne	.L14
	movq	16(%rbp), %rax
	jmp	.L15
.L14:
	movq	32(%rbp), %rcx
	movq	24(%rbp), %rdx
	movq	16(%rbp), %rax
	movq	%rcx, %r8
	movq	%rax, %rcx
	call	memmove
	nop
.L15:
	addq	$32, %rsp
	popq	%rbp
	ret
	.seh_endproc
	.section	.text$_ZNSt11char_traitsIcE4copyEPcPKcy,"x"
	.linkonce discard
	.globl	_ZNSt11char_traitsIcE4copyEPcPKcy
	.def	_ZNSt11char_traitsIcE4copyEPcPKcy;	.scl	2;	.type	32;	.endef
	.seh_proc	_ZNSt11char_traitsIcE4copyEPcPKcy
_ZNSt11char_traitsIcE4copyEPcPKcy:
.LFB825:
	pushq	%rbp
	.seh_pushreg	%rbp
	movq	%rsp, %rbp
	.seh_setframe	%rbp, 0
	subq	$32, %rsp
	.seh_stackalloc	32
	.seh_endprologue
	movq	%rcx, 16(%rbp)
	movq	%rdx, 24(%rbp)
	movq	%r8, 32(%rbp)
	cmpq	$0, 32(%rbp)
	jne	.L17
	movq	16(%rbp), %rax
	jmp	.L18
.L17:
	movq	16(%rbp), %rdx
	movq	24(%rbp), %rax
	movq	%rdx, %rcx
	movq	%rax, %rdx
	movq	32(%rbp), %rax
	movq	%rax, %r8
	call	memcpy
	nop
.L18:
	addq	$32, %rsp
	popq	%rbp
	ret
	.seh_endproc
	.section	.text$_ZZNSt7__cxx119to_stringEiENKUlPcyE_clES0_y,"x"
	.linkonce discard
	.align 2
	.globl	_ZZNSt7__cxx119to_stringEiENKUlPcyE_clES0_y
	.def	_ZZNSt7__cxx119to_stringEiENKUlPcyE_clES0_y;	.scl	2;	.type	32;	.endef
	.seh_proc	_ZZNSt7__cxx119to_stringEiENKUlPcyE_clES0_y
_ZZNSt7__cxx119to_stringEiENKUlPcyE_clES0_y:
.LFB1513:
	pushq	%rbp
	.seh_pushreg	%rbp
	movq	%rsp, %rbp
	.seh_setframe	%rbp, 0
	subq	$32, %rsp
	.seh_stackalloc	32
	.seh_endprologue
	movq	%rcx, 16(%rbp)
	movq	%rdx, 24(%rbp)
	movq	%r8, 32(%rbp)
	movq	24(%rbp), %rax
	movb	$45, (%rax)
	movq	16(%rbp), %rax
	movl	8(%rax), %r8d
	movq	16(%rbp), %rax
	movl	4(%rax), %eax
	movq	16(%rbp), %rdx
	movzbl	(%rdx), %edx
	movzbl	%dl, %ecx
	movq	24(%rbp), %rdx
	addq	%rdx, %rcx
	movl	%eax, %edx
	call	_ZNSt8__detail18__to_chars_10_implIjEEvPcjT_
	movq	32(%rbp), %rax
	addq	$32, %rsp
	popq	%rbp
	ret
	.seh_endproc
	.section	.text$_ZNSt7__cxx119to_stringEi,"x"
	.linkonce discard
	.globl	_ZNSt7__cxx119to_stringEi
	.def	_ZNSt7__cxx119to_stringEi;	.scl	2;	.type	32;	.endef
	.seh_proc	_ZNSt7__cxx119to_stringEi
_ZNSt7__cxx119to_stringEi:
.LFB1510:
	pushq	%rbp
	.seh_pushreg	%rbp
	movq	%rsp, %rbp
	.seh_setframe	%rbp, 0
	subq	$80, %rsp
	.seh_stackalloc	80
	.seh_endprologue
	movq	%rcx, 16(%rbp)
	movl	%edx, 24(%rbp)
	movl	24(%rbp), %eax
	shrl	$31, %eax
	movb	%al, -5(%rbp)
	cmpb	$0, -5(%rbp)
	je	.L22
	movl	24(%rbp), %eax
	negl	%eax
	movl	%eax, -4(%rbp)
	jmp	.L23
.L22:
	movl	24(%rbp), %eax
	movl	%eax, -4(%rbp)
.L23:
	movl	-4(%rbp), %eax
	movl	$10, %edx
	movl	%eax, %ecx
	call	_ZNSt8__detail14__to_chars_lenIjEEjT_i
	movl	%eax, -12(%rbp)
	movq	16(%rbp), %rax
	movq	%rax, %rcx
	call	_ZNSt7__cxx1112basic_stringIcSt11char_traitsIcESaIcEEC1Ev
	movzbl	-5(%rbp), %eax
	movb	%al, -24(%rbp)
	movl	-12(%rbp), %eax
	movl	%eax, -20(%rbp)
	movl	-4(%rbp), %eax
	movl	%eax, -16(%rbp)
	movzbl	-5(%rbp), %edx
	movl	-12(%rbp), %eax
	addl	%edx, %eax
	movl	%eax, %ecx
	movq	-24(%rbp), %rax
	movq	%rax, -48(%rbp)
	movl	-16(%rbp), %eax
	movl	%eax, -40(%rbp)
	leaq	-48(%rbp), %rdx
	movq	16(%rbp), %rax
	movq	%rdx, %r8
	movq	%rcx, %rdx
	movq	%rax, %rcx
	call	_ZNSt7__cxx1112basic_stringIcSt11char_traitsIcESaIcEE22__resize_and_overwriteIZNS_9to_stringEiEUlPcyE_EEvyT_
	movq	16(%rbp), %rax
	addq	$80, %rsp
	popq	%rbp
	ret
	.seh_handler	__gxx_personality_seh0, @unwind, @except
	.seh_handlerdata
.LLSDA1510:
	.byte	0xff
	.byte	0xff
	.byte	0x1
	.uleb128 .LLSDACSE1510-.LLSDACSB1510
.LLSDACSB1510:
.LLSDACSE1510:
	.section	.text$_ZNSt7__cxx119to_stringEi,"x"
	.linkonce discard
	.seh_endproc
	.section	.text$_ZNSt8__detail14__to_chars_lenIjEEjT_i,"x"
	.linkonce discard
	.globl	_ZNSt8__detail14__to_chars_lenIjEEjT_i
	.def	_ZNSt8__detail14__to_chars_lenIjEEjT_i;	.scl	2;	.type	32;	.endef
	.seh_proc	_ZNSt8__detail14__to_chars_lenIjEEjT_i
_ZNSt8__detail14__to_chars_lenIjEEjT_i:
.LFB1515:
	pushq	%rbp
	.seh_pushreg	%rbp
	movq	%rsp, %rbp
	.seh_setframe	%rbp, 0
	subq	$16, %rsp
	.seh_stackalloc	16
	.seh_endprologue
	movl	%ecx, 16(%rbp)
	movl	%edx, 24(%rbp)
	movl	$1, -4(%rbp)
	movl	24(%rbp), %eax
	imull	%eax, %eax
	movl	%eax, -8(%rbp)
	movl	24(%rbp), %eax
	movl	-8(%rbp), %edx
	imull	%edx, %eax
	movl	%eax, -12(%rbp)
	movl	24(%rbp), %eax
	movl	-12(%rbp), %edx
	imull	%edx, %eax
	movl	%eax, -16(%rbp)
.L31:
	movl	24(%rbp), %eax
	cmpl	%eax, 16(%rbp)
	jnb	.L26
	movl	-4(%rbp), %eax
	jmp	.L27
.L26:
	movl	16(%rbp), %eax
	cmpl	-8(%rbp), %eax
	jnb	.L28
	movl	-4(%rbp), %eax
	addl	$1, %eax
	jmp	.L27
.L28:
	movl	16(%rbp), %eax
	cmpl	-12(%rbp), %eax
	jnb	.L29
	movl	-4(%rbp), %eax
	addl	$2, %eax
	jmp	.L27
.L29:
	movl	16(%rbp), %eax
	cmpl	-16(%rbp), %eax
	jnb	.L30
	movl	-4(%rbp), %eax
	addl	$3, %eax
	jmp	.L27
.L30:
	movl	16(%rbp), %eax
	movl	$0, %edx
	divl	-16(%rbp)
	movl	%eax, 16(%rbp)
	addl	$4, -4(%rbp)
	jmp	.L31
.L27:
	addq	$16, %rsp
	popq	%rbp
	ret
	.seh_endproc
	.section	.text$_ZSt3minIyERKT_S2_S2_,"x"
	.linkonce discard
	.globl	_ZSt3minIyERKT_S2_S2_
	.def	_ZSt3minIyERKT_S2_S2_;	.scl	2;	.type	32;	.endef
	.seh_proc	_ZSt3minIyERKT_S2_S2_
_ZSt3minIyERKT_S2_S2_:
.LFB2100:
	pushq	%rbp
	.seh_pushreg	%rbp
	movq	%rsp, %rbp
	.seh_setframe	%rbp, 0
	.seh_endprologue
	movq	%rcx, 16(%rbp)
	movq	%rdx, 24(%rbp)
	movq	24(%rbp), %rax
	movq	(%rax), %rdx
	movq	16(%rbp), %rax
	movq	(%rax), %rax
	cmpq	%rax, %rdx
	jnb	.L33
	movq	24(%rbp), %rax
	jmp	.L34
.L33:
	movq	16(%rbp), %rax
.L34:
	popq	%rbp
	ret
	.seh_endproc
	.section	.text$_ZStanSt13_Ios_FmtflagsS_,"x"
	.linkonce discard
	.globl	_ZStanSt13_Ios_FmtflagsS_
	.def	_ZStanSt13_Ios_FmtflagsS_;	.scl	2;	.type	32;	.endef
	.seh_proc	_ZStanSt13_Ios_FmtflagsS_
_ZStanSt13_Ios_FmtflagsS_:
.LFB3179:
	pushq	%rbp
	.seh_pushreg	%rbp
	movq	%rsp, %rbp
	.seh_setframe	%rbp, 0
	.seh_endprologue
	movl	%ecx, 16(%rbp)
	movl	%edx, 24(%rbp)
	movl	16(%rbp), %eax
	andl	24(%rbp), %eax
	popq	%rbp
	ret
	.seh_endproc
	.section	.text$_ZStorSt13_Ios_FmtflagsS_,"x"
	.linkonce discard
	.globl	_ZStorSt13_Ios_FmtflagsS_
	.def	_ZStorSt13_Ios_FmtflagsS_;	.scl	2;	.type	32;	.endef
	.seh_proc	_ZStorSt13_Ios_FmtflagsS_
_ZStorSt13_Ios_FmtflagsS_:
.LFB3180:
	pushq	%rbp
	.seh_pushreg	%rbp
	movq	%rsp, %rbp
	.seh_setframe	%rbp, 0
	.seh_endprologue
	movl	%ecx, 16(%rbp)
	movl	%edx, 24(%rbp)
	movl	16(%rbp), %eax
	orl	24(%rbp), %eax
	popq	%rbp
	ret
	.seh_endproc
	.section	.text$_ZStcoSt13_Ios_Fmtflags,"x"
	.linkonce discard
	.globl	_ZStcoSt13_Ios_Fmtflags
	.def	_ZStcoSt13_Ios_Fmtflags;	.scl	2;	.type	32;	.endef
	.seh_proc	_ZStcoSt13_Ios_Fmtflags
_ZStcoSt13_Ios_Fmtflags:
.LFB3182:
	pushq	%rbp
	.seh_pushreg	%rbp
	movq	%rsp, %rbp
	.seh_setframe	%rbp, 0
	.seh_endprologue
	movl	%ecx, 16(%rbp)
	movl	16(%rbp), %eax
	notl	%eax
	popq	%rbp
	ret
	.seh_endproc
	.section	.text$_ZStoRRSt13_Ios_FmtflagsS_,"x"
	.linkonce discard
	.globl	_ZStoRRSt13_Ios_FmtflagsS_
	.def	_ZStoRRSt13_Ios_FmtflagsS_;	.scl	2;	.type	32;	.endef
	.seh_proc	_ZStoRRSt13_Ios_FmtflagsS_
_ZStoRRSt13_Ios_FmtflagsS_:
.LFB3183:
	pushq	%rbp
	.seh_pushreg	%rbp
	movq	%rsp, %rbp
	.seh_setframe	%rbp, 0
	subq	$32, %rsp
	.seh_stackalloc	32
	.seh_endprologue
	movq	%rcx, 16(%rbp)
	movl	%edx, 24(%rbp)
	movq	16(%rbp), %rax
	movl	(%rax), %eax
	movl	24(%rbp), %edx
	movl	%eax, %ecx
	call	_ZStorSt13_Ios_FmtflagsS_
	movq	16(%rbp), %rdx
	movl	%eax, (%rdx)
	movq	16(%rbp), %rax
	addq	$32, %rsp
	popq	%rbp
	ret
	.seh_endproc
	.section	.text$_ZStaNRSt13_Ios_FmtflagsS_,"x"
	.linkonce discard
	.globl	_ZStaNRSt13_Ios_FmtflagsS_
	.def	_ZStaNRSt13_Ios_FmtflagsS_;	.scl	2;	.type	32;	.endef
	.seh_proc	_ZStaNRSt13_Ios_FmtflagsS_
_ZStaNRSt13_Ios_FmtflagsS_:
.LFB3184:
	pushq	%rbp
	.seh_pushreg	%rbp
	movq	%rsp, %rbp
	.seh_setframe	%rbp, 0
	subq	$32, %rsp
	.seh_stackalloc	32
	.seh_endprologue
	movq	%rcx, 16(%rbp)
	movl	%edx, 24(%rbp)
	movq	16(%rbp), %rax
	movl	(%rax), %eax
	movl	24(%rbp), %edx
	movl	%eax, %ecx
	call	_ZStanSt13_Ios_FmtflagsS_
	movq	16(%rbp), %rdx
	movl	%eax, (%rdx)
	movq	16(%rbp), %rax
	addq	$32, %rsp
	popq	%rbp
	ret
	.seh_endproc
	.section	.text$_ZNSt8ios_base4setfESt13_Ios_FmtflagsS0_,"x"
	.linkonce discard
	.align 2
	.globl	_ZNSt8ios_base4setfESt13_Ios_FmtflagsS0_
	.def	_ZNSt8ios_base4setfESt13_Ios_FmtflagsS0_;	.scl	2;	.type	32;	.endef
	.seh_proc	_ZNSt8ios_base4setfESt13_Ios_FmtflagsS0_
_ZNSt8ios_base4setfESt13_Ios_FmtflagsS0_:
.LFB3213:
	pushq	%rbp
	.seh_pushreg	%rbp
	movq	%rsp, %rbp
	.seh_setframe	%rbp, 0
	subq	$48, %rsp
	.seh_stackalloc	48
	.seh_endprologue
	movq	%rcx, 16(%rbp)
	movl	%edx, 24(%rbp)
	movl	%r8d, 32(%rbp)
	movq	16(%rbp), %rax
	movl	24(%rax), %eax
	movl	%eax, -4(%rbp)
	movl	32(%rbp), %eax
	movl	%eax, %ecx
	call	_ZStcoSt13_Ios_Fmtflags
	movl	%eax, %edx
	movq	16(%rbp), %rax
	addq	$24, %rax
	movq	%rax, %rcx
	call	_ZStaNRSt13_Ios_FmtflagsS_
	movl	32(%rbp), %edx
	movl	24(%rbp), %eax
	movl	%eax, %ecx
	call	_ZStanSt13_Ios_FmtflagsS_
	movl	%eax, %edx
	movq	16(%rbp), %rax
	addq	$24, %rax
	movq	%rax, %rcx
	call	_ZStoRRSt13_Ios_FmtflagsS_
	movl	-4(%rbp), %eax
	addq	$48, %rsp
	popq	%rbp
	ret
	.seh_endproc
	.section	.text$_ZSt5fixedRSt8ios_base,"x"
	.linkonce discard
	.globl	_ZSt5fixedRSt8ios_base
	.def	_ZSt5fixedRSt8ios_base;	.scl	2;	.type	32;	.endef
	.seh_proc	_ZSt5fixedRSt8ios_base
_ZSt5fixedRSt8ios_base:
.LFB3243:
	pushq	%rbp
	.seh_pushreg	%rbp
	movq	%rsp, %rbp
	.seh_setframe	%rbp, 0
	subq	$32, %rsp
	.seh_stackalloc	32
	.seh_endprologue
	movq	%rcx, 16(%rbp)
	movq	16(%rbp), %rax
	movl	$260, %r8d
	movl	$4, %edx
	movq	%rax, %rcx
	call	_ZNSt8ios_base4setfESt13_Ios_FmtflagsS0_
	movq	16(%rbp), %rax
	addq	$32, %rsp
	popq	%rbp
	ret
	.seh_endproc
	.section	.text$_ZSt3logf,"x"
	.linkonce discard
	.globl	_ZSt3logf
	.def	_ZSt3logf;	.scl	2;	.type	32;	.endef
	.seh_proc	_ZSt3logf
_ZSt3logf:
.LFB4724:
	pushq	%rbp
	.seh_pushreg	%rbp
	movq	%rsp, %rbp
	.seh_setframe	%rbp, 0
	subq	$32, %rsp
	.seh_stackalloc	32
	.seh_endprologue
	movss	%xmm0, 16(%rbp)
	movl	16(%rbp), %eax
	movd	%eax, %xmm0
	call	logf
	addq	$32, %rsp
	popq	%rbp
	ret
	.seh_endproc
	.section	.text$_ZSt3loge,"x"
	.linkonce discard
	.globl	_ZSt3loge
	.def	_ZSt3loge;	.scl	2;	.type	32;	.endef
	.seh_proc	_ZSt3loge
_ZSt3loge:
.LFB4725:
	pushq	%rbp
	.seh_pushreg	%rbp
	pushq	%rbx
	.seh_pushreg	%rbx
	subq	$88, %rsp
	.seh_stackalloc	88
	leaq	80(%rsp), %rbp
	.seh_setframe	%rbp, 80
	.seh_endprologue
	movq	%rcx, 32(%rbp)
	movq	%rdx, %rbx
	fldt	(%rbx)
	fstpt	-16(%rbp)
	leaq	-32(%rbp), %rax
	fldt	-16(%rbp)
	fstpt	-48(%rbp)
	leaq	-48(%rbp), %rdx
	movq	%rax, %rcx
	call	logl
	fldt	-32(%rbp)
	movq	32(%rbp), %rax
	fstpt	(%rax)
	movq	32(%rbp), %rax
	addq	$88, %rsp
	popq	%rbx
	popq	%rbp
	ret
	.seh_endproc
	.section	.text$_ZSt4sqrtf,"x"
	.linkonce discard
	.globl	_ZSt4sqrtf
	.def	_ZSt4sqrtf;	.scl	2;	.type	32;	.endef
	.seh_proc	_ZSt4sqrtf
_ZSt4sqrtf:
.LFB4740:
	pushq	%rbp
	.seh_pushreg	%rbp
	movq	%rsp, %rbp
	.seh_setframe	%rbp, 0
	subq	$32, %rsp
	.seh_stackalloc	32
	.seh_endprologue
	movss	%xmm0, 16(%rbp)
	movl	16(%rbp), %eax
	movd	%eax, %xmm0
	call	sqrtf
	addq	$32, %rsp
	popq	%rbp
	ret
	.seh_endproc
	.section	.text$_ZSt9nextafterff,"x"
	.linkonce discard
	.globl	_ZSt9nextafterff
	.def	_ZSt9nextafterff;	.scl	2;	.type	32;	.endef
	.seh_proc	_ZSt9nextafterff
_ZSt9nextafterff:
.LFB4866:
	pushq	%rbp
	.seh_pushreg	%rbp
	movq	%rsp, %rbp
	.seh_setframe	%rbp, 0
	subq	$32, %rsp
	.seh_stackalloc	32
	.seh_endprologue
	movss	%xmm0, 16(%rbp)
	movss	%xmm1, 24(%rbp)
	movss	24(%rbp), %xmm0
	movl	16(%rbp), %eax
	movaps	%xmm0, %xmm1
	movd	%eax, %xmm0
	call	nextafterf
	addq	$32, %rsp
	popq	%rbp
	ret
	.seh_endproc
	.section	.text$_ZSt16__deque_buf_sizey,"x"
	.linkonce discard
	.globl	_ZSt16__deque_buf_sizey
	.def	_ZSt16__deque_buf_sizey;	.scl	2;	.type	32;	.endef
	.seh_proc	_ZSt16__deque_buf_sizey
_ZSt16__deque_buf_sizey:
.LFB5661:
	pushq	%rbp
	.seh_pushreg	%rbp
	movq	%rsp, %rbp
	.seh_setframe	%rbp, 0
	.seh_endprologue
	movq	%rcx, 16(%rbp)
	cmpq	$511, 16(%rbp)
	ja	.L58
	movl	$512, %eax
	movl	$0, %edx
	divq	16(%rbp)
	jmp	.L60
.L58:
	movl	$1, %eax
.L60:
	popq	%rbp
	ret
	.seh_endproc
	.section	.text$_ZSt12setprecisioni,"x"
	.linkonce discard
	.globl	_ZSt12setprecisioni
	.def	_ZSt12setprecisioni;	.scl	2;	.type	32;	.endef
	.seh_proc	_ZSt12setprecisioni
_ZSt12setprecisioni:
.LFB6155:
	pushq	%rbp
	.seh_pushreg	%rbp
	movq	%rsp, %rbp
	.seh_setframe	%rbp, 0
	.seh_endprologue
	movl	%ecx, 16(%rbp)
	movl	16(%rbp), %eax
	popq	%rbp
	ret
	.seh_endproc
	.section	.text$_ZSt4setwi,"x"
	.linkonce discard
	.globl	_ZSt4setwi
	.def	_ZSt4setwi;	.scl	2;	.type	32;	.endef
	.seh_proc	_ZSt4setwi
_ZSt4setwi:
.LFB6158:
	pushq	%rbp
	.seh_pushreg	%rbp
	movq	%rsp, %rbp
	.seh_setframe	%rbp, 0
	.seh_endprologue
	movl	%ecx, 16(%rbp)
	movl	16(%rbp), %eax
	popq	%rbp
	ret
	.seh_endproc
	.section .rdata,"dr"
.LC1:
	.ascii "default\0"
	.section	.text$_ZNSt13random_deviceC1Ev,"x"
	.linkonce discard
	.align 2
	.globl	_ZNSt13random_deviceC1Ev
	.def	_ZNSt13random_deviceC1Ev;	.scl	2;	.type	32;	.endef
	.seh_proc	_ZNSt13random_deviceC1Ev
_ZNSt13random_deviceC1Ev:
.LFB8457:
	pushq	%rbp
	.seh_pushreg	%rbp
	pushq	%rbx
	.seh_pushreg	%rbx
	subq	$88, %rsp
	.seh_stackalloc	88
	leaq	80(%rsp), %rbp
	.seh_setframe	%rbp, 80
	.seh_endprologue
	movq	%rcx, 32(%rbp)
	leaq	-9(%rbp), %rax
	movq	%rax, -8(%rbp)
	nop
	nop
	leaq	-9(%rbp), %rcx
	leaq	.LC1(%rip), %rdx
	leaq	-48(%rbp), %rax
	movq	%rcx, %r8
	movq	%rax, %rcx
.LEHB0:
	call	_ZNSt7__cxx1112basic_stringIcSt11char_traitsIcESaIcEEC1IS3_EEPKcRKS3_
.LEHE0:
	leaq	-48(%rbp), %rdx
	movq	32(%rbp), %rax
	movq	%rax, %rcx
.LEHB1:
	call	_ZNSt13random_device7_M_initERKNSt7__cxx1112basic_stringIcSt11char_traitsIcESaIcEEE
.LEHE1:
	leaq	-48(%rbp), %rax
	movq	%rax, %rcx
	call	_ZNSt7__cxx1112basic_stringIcSt11char_traitsIcESaIcEED1Ev
	leaq	-9(%rbp), %rax
	movq	%rax, %rcx
	call	_ZNSt15__new_allocatorIcED2Ev
	nop
	jmp	.L70
.L69:
	movq	%rax, %rbx
	leaq	-48(%rbp), %rax
	movq	%rax, %rcx
	call	_ZNSt7__cxx1112basic_stringIcSt11char_traitsIcESaIcEED1Ev
	jmp	.L67
.L68:
	movq	%rax, %rbx
.L67:
	leaq	-9(%rbp), %rax
	movq	%rax, %rcx
	call	_ZNSt15__new_allocatorIcED2Ev
	nop
	movq	%rbx, %rax
	movq	%rax, %rcx
.LEHB2:
	call	_Unwind_Resume
	nop
.LEHE2:
.L70:
	addq	$88, %rsp
	popq	%rbx
	popq	%rbp
	ret
	.seh_handler	__gxx_personality_seh0, @unwind, @except
	.seh_handlerdata
.LLSDA8457:
	.byte	0xff
	.byte	0xff
	.byte	0x1
	.uleb128 .LLSDACSE8457-.LLSDACSB8457
.LLSDACSB8457:
	.uleb128 .LEHB0-.LFB8457
	.uleb128 .LEHE0-.LEHB0
	.uleb128 .L68-.LFB8457
	.uleb128 0
	.uleb128 .LEHB1-.LFB8457
	.uleb128 .LEHE1-.LEHB1
	.uleb128 .L69-.LFB8457
	.uleb128 0
	.uleb128 .LEHB2-.LFB8457
	.uleb128 .LEHE2-.LEHB2
	.uleb128 0
	.uleb128 0
.LLSDACSE8457:
	.section	.text$_ZNSt13random_deviceC1Ev,"x"
	.linkonce discard
	.seh_endproc
	.section	.text$_ZNSt13random_deviceD1Ev,"x"
	.linkonce discard
	.align 2
	.globl	_ZNSt13random_deviceD1Ev
	.def	_ZNSt13random_deviceD1Ev;	.scl	2;	.type	32;	.endef
	.seh_proc	_ZNSt13random_deviceD1Ev
_ZNSt13random_deviceD1Ev:
.LFB8463:
	pushq	%rbp
	.seh_pushreg	%rbp
	movq	%rsp, %rbp
	.seh_setframe	%rbp, 0
	subq	$32, %rsp
	.seh_stackalloc	32
	.seh_endprologue
	movq	%rcx, 16(%rbp)
	movq	16(%rbp), %rax
	movq	%rax, %rcx
	call	_ZNSt13random_device7_M_finiEv
	nop
	addq	$32, %rsp
	popq	%rbp
	ret
	.seh_handler	__gxx_personality_seh0, @unwind, @except
	.seh_handlerdata
.LLSDA8463:
	.byte	0xff
	.byte	0xff
	.byte	0x1
	.uleb128 .LLSDACSE8463-.LLSDACSB8463
.LLSDACSB8463:
.LLSDACSE8463:
	.section	.text$_ZNSt13random_deviceD1Ev,"x"
	.linkonce discard
	.seh_endproc
	.section	.text$_ZNSt13random_deviceclEv,"x"
	.linkonce discard
	.align 2
	.globl	_ZNSt13random_deviceclEv
	.def	_ZNSt13random_deviceclEv;	.scl	2;	.type	32;	.endef
	.seh_proc	_ZNSt13random_deviceclEv
_ZNSt13random_deviceclEv:
.LFB8467:
	pushq	%rbp
	.seh_pushreg	%rbp
	movq	%rsp, %rbp
	.seh_setframe	%rbp, 0
	subq	$32, %rsp
	.seh_stackalloc	32
	.seh_endprologue
	movq	%rcx, 16(%rbp)
	movq	16(%rbp), %rax
	movq	%rax, %rcx
	call	_ZNSt13random_device9_M_getvalEv
	addq	$32, %rsp
	popq	%rbp
	ret
	.seh_endproc
	.section	.text$_ZNSt12_Vector_baseIySaIyEE12_Vector_implD1Ev,"x"
	.linkonce discard
	.align 2
	.globl	_ZNSt12_Vector_baseIySaIyEE12_Vector_implD1Ev
	.def	_ZNSt12_Vector_baseIySaIyEE12_Vector_implD1Ev;	.scl	2;	.type	32;	.endef
	.seh_proc	_ZNSt12_Vector_baseIySaIyEE12_Vector_implD1Ev
_ZNSt12_Vector_baseIySaIyEE12_Vector_implD1Ev:
.LFB9588:
	pushq	%rbp
	.seh_pushreg	%rbp
	movq	%rsp, %rbp
	.seh_setframe	%rbp, 0
	subq	$48, %rsp
	.seh_stackalloc	48
	.seh_endprologue
	movq	%rcx, 16(%rbp)
	movq	16(%rbp), %rax
	movq	%rax, -8(%rbp)
	movq	-8(%rbp), %rax
	movq	%rax, %rcx
	call	_ZNSt15__new_allocatorIyED2Ev
	nop
	nop
	addq	$48, %rsp
	popq	%rbp
	ret
	.seh_endproc
	.section	.text$_ZN13NeuralNetworkD1Ev,"x"
	.linkonce discard
	.align 2
	.globl	_ZN13NeuralNetworkD1Ev
	.def	_ZN13NeuralNetworkD1Ev;	.scl	2;	.type	32;	.endef
	.seh_proc	_ZN13NeuralNetworkD1Ev
_ZN13NeuralNetworkD1Ev:
.LFB10601:
	pushq	%rbp
	.seh_pushreg	%rbp
	movq	%rsp, %rbp
	.seh_setframe	%rbp, 0
	subq	$32, %rsp
	.seh_stackalloc	32
	.seh_endprologue
	movq	%rcx, 16(%rbp)
	movq	16(%rbp), %rax
	addq	$56, %rax
	movq	%rax, %rcx
	call	_ZNSt6vectorIS_IfSaIfEESaIS1_EED1Ev
	movq	16(%rbp), %rax
	addq	$32, %rax
	movq	%rax, %rcx
	call	_ZNSt6vectorIS_IS_IfSaIfEESaIS1_EESaIS3_EED1Ev
	movq	16(%rbp), %rax
	movq	%rax, %rcx
	call	_ZNSt6vectorIySaIyEED1Ev
	nop
	addq	$32, %rsp
	popq	%rbp
	ret
	.seh_endproc
	.section	.text$_ZN13NeuralNetworkC1Ev,"x"
	.linkonce discard
	.align 2
	.globl	_ZN13NeuralNetworkC1Ev
	.def	_ZN13NeuralNetworkC1Ev;	.scl	2;	.type	32;	.endef
	.seh_proc	_ZN13NeuralNetworkC1Ev
_ZN13NeuralNetworkC1Ev:
.LFB10603:
	pushq	%rbp
	.seh_pushreg	%rbp
	pushq	%rbx
	.seh_pushreg	%rbx
	subq	$104, %rsp
	.seh_stackalloc	104
	leaq	96(%rsp), %rbp
	.seh_setframe	%rbp, 96
	.seh_endprologue
	movq	%rcx, 32(%rbp)
	leaq	C.6.1(%rip), %rax
	movl	$2, %edx
	leaq	-9(%rbp), %rcx
	movq	%rcx, -8(%rbp)
	nop
	nop
	movq	%rax, -64(%rbp)
	movq	%rdx, -56(%rbp)
	leaq	-9(%rbp), %rcx
	leaq	-64(%rbp), %rdx
	leaq	-48(%rbp), %rax
	movq	%rcx, %r8
	movq	%rax, %rcx
.LEHB3:
	call	_ZNSt6vectorIySaIyEEC1ESt16initializer_listIyERKS0_
.LEHE3:
	leaq	-48(%rbp), %rdx
	movq	32(%rbp), %rax
	movl	$1, %r8d
	movq	%rax, %rcx
.LEHB4:
	call	_ZN13NeuralNetworkC1ERKSt6vectorIySaIyEE10Activation
.LEHE4:
	leaq	-48(%rbp), %rax
	movq	%rax, %rcx
	call	_ZNSt6vectorIySaIyEED1Ev
	leaq	-9(%rbp), %rax
	movq	%rax, %rcx
	call	_ZNSt15__new_allocatorIyED2Ev
	nop
	jmp	.L81
.L80:
	movq	%rax, %rbx
	leaq	-48(%rbp), %rax
	movq	%rax, %rcx
	call	_ZNSt6vectorIySaIyEED1Ev
	jmp	.L78
.L79:
	movq	%rax, %rbx
.L78:
	leaq	-9(%rbp), %rax
	movq	%rax, %rcx
	call	_ZNSt15__new_allocatorIyED2Ev
	nop
	movq	%rbx, %rax
	movq	%rax, %rcx
.LEHB5:
	call	_Unwind_Resume
	nop
.LEHE5:
.L81:
	addq	$104, %rsp
	popq	%rbx
	popq	%rbp
	ret
	.seh_handler	__gxx_personality_seh0, @unwind, @except
	.seh_handlerdata
.LLSDA10603:
	.byte	0xff
	.byte	0xff
	.byte	0x1
	.uleb128 .LLSDACSE10603-.LLSDACSB10603
.LLSDACSB10603:
	.uleb128 .LEHB3-.LFB10603
	.uleb128 .LEHE3-.LEHB3
	.uleb128 .L79-.LFB10603
	.uleb128 0
	.uleb128 .LEHB4-.LFB10603
	.uleb128 .LEHE4-.LEHB4
	.uleb128 .L80-.LFB10603
	.uleb128 0
	.uleb128 .LEHB5-.LFB10603
	.uleb128 .LEHE5-.LEHB5
	.uleb128 0
	.uleb128 0
.LLSDACSE10603:
	.section	.text$_ZN13NeuralNetworkC1Ev,"x"
	.linkonce discard
	.seh_endproc
	.section	.text$_ZNSt12_Vector_baseISt6vectorIS0_IfSaIfEESaIS2_EESaIS4_EE12_Vector_implD1Ev,"x"
	.linkonce discard
	.align 2
	.globl	_ZNSt12_Vector_baseISt6vectorIS0_IfSaIfEESaIS2_EESaIS4_EE12_Vector_implD1Ev
	.def	_ZNSt12_Vector_baseISt6vectorIS0_IfSaIfEESaIS2_EESaIS4_EE12_Vector_implD1Ev;	.scl	2;	.type	32;	.endef
	.seh_proc	_ZNSt12_Vector_baseISt6vectorIS0_IfSaIfEESaIS2_EESaIS4_EE12_Vector_implD1Ev
_ZNSt12_Vector_baseISt6vectorIS0_IfSaIfEESaIS2_EESaIS4_EE12_Vector_implD1Ev:
.LFB10610:
	pushq	%rbp
	.seh_pushreg	%rbp
	movq	%rsp, %rbp
	.seh_setframe	%rbp, 0
	subq	$48, %rsp
	.seh_stackalloc	48
	.seh_endprologue
	movq	%rcx, 16(%rbp)
	movq	16(%rbp), %rax
	movq	%rax, -8(%rbp)
	movq	-8(%rbp), %rax
	movq	%rax, %rcx
	call	_ZNSt15__new_allocatorISt6vectorIS0_IfSaIfEESaIS2_EEED2Ev
	nop
	nop
	addq	$48, %rsp
	popq	%rbp
	ret
	.seh_endproc
	.section	.text$_ZNSt12_Vector_baseISt6vectorIS0_IfSaIfEESaIS2_EESaIS4_EEC2Ev,"x"
	.linkonce discard
	.align 2
	.globl	_ZNSt12_Vector_baseISt6vectorIS0_IfSaIfEESaIS2_EESaIS4_EEC2Ev
	.def	_ZNSt12_Vector_baseISt6vectorIS0_IfSaIfEESaIS2_EESaIS4_EEC2Ev;	.scl	2;	.type	32;	.endef
	.seh_proc	_ZNSt12_Vector_baseISt6vectorIS0_IfSaIfEESaIS2_EESaIS4_EEC2Ev
_ZNSt12_Vector_baseISt6vectorIS0_IfSaIfEESaIS2_EESaIS4_EEC2Ev:
.LFB10611:
	pushq	%rbp
	.seh_pushreg	%rbp
	movq	%rsp, %rbp
	.seh_setframe	%rbp, 0
	subq	$32, %rsp
	.seh_stackalloc	32
	.seh_endprologue
	movq	%rcx, 16(%rbp)
	movq	16(%rbp), %rax
	movq	%rax, %rcx
	call	_ZNSt12_Vector_baseISt6vectorIS0_IfSaIfEESaIS2_EESaIS4_EE12_Vector_implC1Ev
	nop
	addq	$32, %rsp
	popq	%rbp
	ret
	.seh_endproc
	.section	.text$_ZNSt6vectorIS_IS_IfSaIfEESaIS1_EESaIS3_EEC1Ev,"x"
	.linkonce discard
	.align 2
	.globl	_ZNSt6vectorIS_IS_IfSaIfEESaIS1_EESaIS3_EEC1Ev
	.def	_ZNSt6vectorIS_IS_IfSaIfEESaIS1_EESaIS3_EEC1Ev;	.scl	2;	.type	32;	.endef
	.seh_proc	_ZNSt6vectorIS_IS_IfSaIfEESaIS1_EESaIS3_EEC1Ev
_ZNSt6vectorIS_IS_IfSaIfEESaIS1_EESaIS3_EEC1Ev:
.LFB10614:
	pushq	%rbp
	.seh_pushreg	%rbp
	movq	%rsp, %rbp
	.seh_setframe	%rbp, 0
	subq	$32, %rsp
	.seh_stackalloc	32
	.seh_endprologue
	movq	%rcx, 16(%rbp)
	movq	16(%rbp), %rax
	movq	%rax, %rcx
	call	_ZNSt12_Vector_baseISt6vectorIS0_IfSaIfEESaIS2_EESaIS4_EEC2Ev
	nop
	addq	$32, %rsp
	popq	%rbp
	ret
	.seh_endproc
	.section	.text$_ZNSt12_Vector_baseISt6vectorIfSaIfEESaIS2_EE12_Vector_implD1Ev,"x"
	.linkonce discard
	.align 2
	.globl	_ZNSt12_Vector_baseISt6vectorIfSaIfEESaIS2_EE12_Vector_implD1Ev
	.def	_ZNSt12_Vector_baseISt6vectorIfSaIfEESaIS2_EE12_Vector_implD1Ev;	.scl	2;	.type	32;	.endef
	.seh_proc	_ZNSt12_Vector_baseISt6vectorIfSaIfEESaIS2_EE12_Vector_implD1Ev
_ZNSt12_Vector_baseISt6vectorIfSaIfEESaIS2_EE12_Vector_implD1Ev:
.LFB10620:
	pushq	%rbp
	.seh_pushreg	%rbp
	movq	%rsp, %rbp
	.seh_setframe	%rbp, 0
	subq	$48, %rsp
	.seh_stackalloc	48
	.seh_endprologue
	movq	%rcx, 16(%rbp)
	movq	16(%rbp), %rax
	movq	%rax, -8(%rbp)
	movq	-8(%rbp), %rax
	movq	%rax, %rcx
	call	_ZNSt15__new_allocatorISt6vectorIfSaIfEEED2Ev
	nop
	nop
	addq	$48, %rsp
	popq	%rbp
	ret
	.seh_endproc
	.section	.text$_ZNSt12_Vector_baseISt6vectorIfSaIfEESaIS2_EEC2Ev,"x"
	.linkonce discard
	.align 2
	.globl	_ZNSt12_Vector_baseISt6vectorIfSaIfEESaIS2_EEC2Ev
	.def	_ZNSt12_Vector_baseISt6vectorIfSaIfEESaIS2_EEC2Ev;	.scl	2;	.type	32;	.endef
	.seh_proc	_ZNSt12_Vector_baseISt6vectorIfSaIfEESaIS2_EEC2Ev
_ZNSt12_Vector_baseISt6vectorIfSaIfEESaIS2_EEC2Ev:
.LFB10621:
	pushq	%rbp
	.seh_pushreg	%rbp
	movq	%rsp, %rbp
	.seh_setframe	%rbp, 0
	subq	$32, %rsp
	.seh_stackalloc	32
	.seh_endprologue
	movq	%rcx, 16(%rbp)
	movq	16(%rbp), %rax
	movq	%rax, %rcx
	call	_ZNSt12_Vector_baseISt6vectorIfSaIfEESaIS2_EE12_Vector_implC1Ev
	nop
	addq	$32, %rsp
	popq	%rbp
	ret
	.seh_endproc
	.section	.text$_ZNSt6vectorIS_IfSaIfEESaIS1_EEC1Ev,"x"
	.linkonce discard
	.align 2
	.globl	_ZNSt6vectorIS_IfSaIfEESaIS1_EEC1Ev
	.def	_ZNSt6vectorIS_IfSaIfEESaIS1_EEC1Ev;	.scl	2;	.type	32;	.endef
	.seh_proc	_ZNSt6vectorIS_IfSaIfEESaIS1_EEC1Ev
_ZNSt6vectorIS_IfSaIfEESaIS1_EEC1Ev:
.LFB10624:
	pushq	%rbp
	.seh_pushreg	%rbp
	movq	%rsp, %rbp
	.seh_setframe	%rbp, 0
	subq	$32, %rsp
	.seh_stackalloc	32
	.seh_endprologue
	movq	%rcx, 16(%rbp)
	movq	16(%rbp), %rax
	movq	%rax, %rcx
	call	_ZNSt12_Vector_baseISt6vectorIfSaIfEESaIS2_EEC2Ev
	nop
	addq	$32, %rsp
	popq	%rbp
	ret
	.seh_endproc
	.section .rdata,"dr"
	.align 8
.LC2:
	.ascii "Network must have at least 2 layers (input and output)\0"
	.align 8
.LC3:
	.ascii "Layer sizes must be greater than zero\0"
	.section	.text$_ZN13NeuralNetworkC1ERKSt6vectorIySaIyEE10Activation,"x"
	.linkonce discard
	.align 2
	.globl	_ZN13NeuralNetworkC1ERKSt6vectorIySaIyEE10Activation
	.def	_ZN13NeuralNetworkC1ERKSt6vectorIySaIyEE10Activation;	.scl	2;	.type	32;	.endef
	.seh_proc	_ZN13NeuralNetworkC1ERKSt6vectorIySaIyEE10Activation
_ZN13NeuralNetworkC1ERKSt6vectorIySaIyEE10Activation:
.LFB10629:
	pushq	%rbp
	.seh_pushreg	%rbp
	pushq	%rsi
	.seh_pushreg	%rsi
	pushq	%rbx
	.seh_pushreg	%rbx
	subq	$2592, %rsp
	.seh_stackalloc	2592
	leaq	128(%rsp), %rbp
	.seh_setframe	%rbp, 128
	.seh_endprologue
	movq	%rcx, 2496(%rbp)
	movq	%rdx, 2504(%rbp)
	movl	%r8d, 2512(%rbp)
	movq	2496(%rbp), %rax
	movq	2504(%rbp), %rdx
	movq	%rax, %rcx
.LEHB6:
	call	_ZNSt6vectorIySaIyEEC1ERKS1_
.LEHE6:
	movq	2496(%rbp), %rax
	movl	2512(%rbp), %edx
	movl	%edx, 24(%rax)
	movq	2496(%rbp), %rax
	addq	$32, %rax
	movq	%rax, %rcx
	call	_ZNSt6vectorIS_IS_IfSaIfEESaIS1_EESaIS3_EEC1Ev
	movq	2496(%rbp), %rax
	addq	$56, %rax
	movq	%rax, %rcx
	call	_ZNSt6vectorIS_IfSaIfEESaIS1_EEC1Ev
	movq	2496(%rbp), %rax
	leaq	80(%rax), %rbx
	leaq	-80(%rbp), %rax
	movq	%rax, %rcx
.LEHB7:
	call	_ZNSt13random_deviceC1Ev
.LEHE7:
	leaq	-80(%rbp), %rax
	movq	%rax, %rcx
.LEHB8:
	call	_ZNSt13random_deviceclEv
	movl	%eax, %edx
	movq	%rbx, %rcx
	call	_ZNSt23mersenne_twister_engineIjLy32ELy624ELy397ELy31ELj2567483615ELy11ELj4294967295ELy7ELj2636928640ELy15ELj4022730752ELy18ELj1812433253EEC1Ej
.LEHE8:
	leaq	-80(%rbp), %rax
	movq	%rax, %rcx
	call	_ZNSt13random_deviceD1Ev
	movq	2496(%rbp), %rax
	movq	%rax, %rcx
	call	_ZNKSt6vectorIySaIyEE4sizeEv
	cmpq	$1, %rax
	setbe	%al
	testb	%al, %al
	je	.L89
	movl	$16, %ecx
	call	__cxa_allocate_exception
	movq	%rax, %rbx
	leaq	.LC2(%rip), %rax
	movq	%rax, %rdx
	movq	%rbx, %rcx
.LEHB9:
	call	_ZNSt16invalid_argumentC1EPKc
.LEHE9:
	movq	.refptr._ZNSt16invalid_argumentD1Ev(%rip), %rdx
	leaq	_ZTISt16invalid_argument(%rip), %rax
	movq	%rdx, %r8
	movq	%rax, %rdx
	movq	%rbx, %rcx
.LEHB10:
	call	__cxa_throw
.LEHE10:
.L89:
	movq	2496(%rbp), %rax
	movq	%rax, 2456(%rbp)
	movq	2456(%rbp), %rax
	movq	%rax, %rcx
	call	_ZNSt6vectorIySaIyEE5beginEv
	movq	%rax, -88(%rbp)
	movq	2456(%rbp), %rax
	movq	%rax, %rcx
	call	_ZNSt6vectorIySaIyEE3endEv
	movq	%rax, -96(%rbp)
	jmp	.L90
.L97:
	movq	-88(%rbp), %rax
	movq	(%rax), %rax
	movq	%rax, 2448(%rbp)
	cmpq	$0, 2448(%rbp)
	jne	.L92
	movl	$16, %ecx
	call	__cxa_allocate_exception
	movq	%rax, %rbx
	leaq	.LC3(%rip), %rax
	movq	%rax, %rdx
	movq	%rbx, %rcx
.LEHB11:
	call	_ZNSt16invalid_argumentC1EPKc
.LEHE11:
	movq	.refptr._ZNSt16invalid_argumentD1Ev(%rip), %rdx
	leaq	_ZTISt16invalid_argument(%rip), %rax
	movq	%rdx, %r8
	movq	%rax, %rdx
	movq	%rbx, %rcx
.LEHB12:
	call	__cxa_throw
.L92:
	movq	-88(%rbp), %rax
	addq	$8, %rax
	movq	%rax, -88(%rbp)
	nop
.L90:
	leaq	-88(%rbp), %rax
	movq	%rax, 2440(%rbp)
	movq	2440(%rbp), %rax
	movq	(%rax), %rdx
	leaq	-96(%rbp), %rax
	movq	%rax, 2432(%rbp)
	movq	2432(%rbp), %rax
	movq	(%rax), %rax
	cmpq	%rax, %rdx
	setne	%al
	testb	%al, %al
	jne	.L97
	movq	2496(%rbp), %rax
	movq	%rax, %rcx
	call	_ZN13NeuralNetwork11init_paramsEv
.LEHE12:
	jmp	.L106
.L102:
	movq	%rax, %rbx
	leaq	-80(%rbp), %rax
	movq	%rax, %rcx
	call	_ZNSt13random_deviceD1Ev
	jmp	.L99
.L104:
	movq	%rax, %rsi
	movq	%rbx, %rcx
	call	__cxa_free_exception
	movq	%rsi, %rbx
	jmp	.L99
.L105:
	movq	%rax, %rsi
	movq	%rbx, %rcx
	call	__cxa_free_exception
	movq	%rsi, %rbx
	jmp	.L99
.L103:
	movq	%rax, %rbx
.L99:
	movq	2496(%rbp), %rax
	addq	$56, %rax
	movq	%rax, %rcx
	call	_ZNSt6vectorIS_IfSaIfEESaIS1_EED1Ev
	movq	2496(%rbp), %rax
	addq	$32, %rax
	movq	%rax, %rcx
	call	_ZNSt6vectorIS_IS_IfSaIfEESaIS1_EESaIS3_EED1Ev
	movq	2496(%rbp), %rax
	movq	%rax, %rcx
	call	_ZNSt6vectorIySaIyEED1Ev
	movq	%rbx, %rax
	movq	%rax, %rcx
.LEHB13:
	call	_Unwind_Resume
	nop
.LEHE13:
.L106:
	addq	$2592, %rsp
	popq	%rbx
	popq	%rsi
	popq	%rbp
	ret
	.seh_handler	__gxx_personality_seh0, @unwind, @except
	.seh_handlerdata
.LLSDA10629:
	.byte	0xff
	.byte	0xff
	.byte	0x1
	.uleb128 .LLSDACSE10629-.LLSDACSB10629
.LLSDACSB10629:
	.uleb128 .LEHB6-.LFB10629
	.uleb128 .LEHE6-.LEHB6
	.uleb128 0
	.uleb128 0
	.uleb128 .LEHB7-.LFB10629
	.uleb128 .LEHE7-.LEHB7
	.uleb128 .L103-.LFB10629
	.uleb128 0
	.uleb128 .LEHB8-.LFB10629
	.uleb128 .LEHE8-.LEHB8
	.uleb128 .L102-.LFB10629
	.uleb128 0
	.uleb128 .LEHB9-.LFB10629
	.uleb128 .LEHE9-.LEHB9
	.uleb128 .L104-.LFB10629
	.uleb128 0
	.uleb128 .LEHB10-.LFB10629
	.uleb128 .LEHE10-.LEHB10
	.uleb128 .L103-.LFB10629
	.uleb128 0
	.uleb128 .LEHB11-.LFB10629
	.uleb128 .LEHE11-.LEHB11
	.uleb128 .L105-.LFB10629
	.uleb128 0
	.uleb128 .LEHB12-.LFB10629
	.uleb128 .LEHE12-.LEHB12
	.uleb128 .L103-.LFB10629
	.uleb128 0
	.uleb128 .LEHB13-.LFB10629
	.uleb128 .LEHE13-.LEHB13
	.uleb128 0
	.uleb128 0
.LLSDACSE10629:
	.section	.text$_ZN13NeuralNetworkC1ERKSt6vectorIySaIyEE10Activation,"x"
	.linkonce discard
	.seh_endproc
	.section	.text$_ZNK13NeuralNetwork18weight_layer_countEv,"x"
	.linkonce discard
	.align 2
	.globl	_ZNK13NeuralNetwork18weight_layer_countEv
	.def	_ZNK13NeuralNetwork18weight_layer_countEv;	.scl	2;	.type	32;	.endef
	.seh_proc	_ZNK13NeuralNetwork18weight_layer_countEv
_ZNK13NeuralNetwork18weight_layer_countEv:
.LFB10631:
	pushq	%rbp
	.seh_pushreg	%rbp
	movq	%rsp, %rbp
	.seh_setframe	%rbp, 0
	subq	$32, %rsp
	.seh_stackalloc	32
	.seh_endprologue
	movq	%rcx, 16(%rbp)
	movq	16(%rbp), %rax
	movq	%rax, %rcx
	call	_ZNKSt6vectorIySaIyEE4sizeEv
	subq	$1, %rax
	addq	$32, %rsp
	popq	%rbp
	ret
	.seh_endproc
	.section	.text$_ZNK13NeuralNetwork6layersEv,"x"
	.linkonce discard
	.align 2
	.globl	_ZNK13NeuralNetwork6layersEv
	.def	_ZNK13NeuralNetwork6layersEv;	.scl	2;	.type	32;	.endef
	.seh_proc	_ZNK13NeuralNetwork6layersEv
_ZNK13NeuralNetwork6layersEv:
.LFB10632:
	pushq	%rbp
	.seh_pushreg	%rbp
	movq	%rsp, %rbp
	.seh_setframe	%rbp, 0
	.seh_endprologue
	movq	%rcx, 16(%rbp)
	movq	16(%rbp), %rax
	popq	%rbp
	ret
	.seh_endproc
	.section .rdata,"dr"
.LC4:
	.ascii "#layer \0"
.LC5:
	.ascii "#bias \0"
	.section	.text$_ZNK13NeuralNetwork12save_to_fileERKNSt7__cxx1112basic_stringIcSt11char_traitsIcESaIcEEE,"x"
	.linkonce discard
	.align 2
	.globl	_ZNK13NeuralNetwork12save_to_fileERKNSt7__cxx1112basic_stringIcSt11char_traitsIcESaIcEEE
	.def	_ZNK13NeuralNetwork12save_to_fileERKNSt7__cxx1112basic_stringIcSt11char_traitsIcESaIcEEE;	.scl	2;	.type	32;	.endef
	.seh_proc	_ZNK13NeuralNetwork12save_to_fileERKNSt7__cxx1112basic_stringIcSt11char_traitsIcESaIcEEE
_ZNK13NeuralNetwork12save_to_fileERKNSt7__cxx1112basic_stringIcSt11char_traitsIcESaIcEEE:
.LFB10633:
	pushq	%rbp
	.seh_pushreg	%rbp
	pushq	%rbx
	.seh_pushreg	%rbx
	subq	$600, %rsp
	.seh_stackalloc	600
	leaq	128(%rsp), %rbp
	.seh_setframe	%rbp, 128
	.seh_endprologue
	movq	%rcx, 496(%rbp)
	movq	%rdx, 504(%rbp)
	movq	504(%rbp), %rdx
	leaq	-80(%rbp), %rax
	movl	$16, %r8d
	movq	%rax, %rcx
.LEHB14:
	call	_ZNSt14basic_ofstreamIcSt11char_traitsIcEEC1ERKNSt7__cxx1112basic_stringIcS1_SaIcEEESt13_Ios_Openmode
.LEHE14:
	leaq	-80(%rbp), %rax
	addq	$216, %rax
	movq	%rax, %rcx
.LEHB15:
	call	_ZNKSt9basic_iosIcSt11char_traitsIcEEntEv
	testb	%al, %al
	je	.L112
	movl	$0, %ebx
	jmp	.L113
.L112:
	movq	496(%rbp), %rax
	movl	24(%rax), %edx
	leaq	-80(%rbp), %rax
	movq	%rax, %rcx
	call	_ZNSolsEi
	movl	$10, %edx
	movq	%rax, %rcx
	call	_ZStlsISt11char_traitsIcEERSt13basic_ostreamIcT_ES5_c
	movq	496(%rbp), %rax
	movq	%rax, %rcx
	call	_ZNKSt6vectorIySaIyEE4sizeEv
	movq	%rax, %rdx
	leaq	-80(%rbp), %rax
	movq	%rax, %rcx
	call	_ZNSolsEy
	movl	$10, %edx
	movq	%rax, %rcx
	call	_ZStlsISt11char_traitsIcEERSt13basic_ostreamIcT_ES5_c
	movq	496(%rbp), %rax
	movq	%rax, 424(%rbp)
	movq	424(%rbp), %rax
	movq	%rax, %rcx
	call	_ZNKSt6vectorIySaIyEE5beginEv
	movq	%rax, -88(%rbp)
	movq	424(%rbp), %rax
	movq	%rax, %rcx
	call	_ZNKSt6vectorIySaIyEE3endEv
	movq	%rax, -96(%rbp)
	jmp	.L114
.L120:
	movq	-88(%rbp), %rax
	movq	(%rax), %rax
	movq	%rax, 416(%rbp)
	movq	416(%rbp), %rdx
	leaq	-80(%rbp), %rax
	movq	%rax, %rcx
	call	_ZNSolsEy
	movl	$32, %edx
	movq	%rax, %rcx
	call	_ZStlsISt11char_traitsIcEERSt13basic_ostreamIcT_ES5_c
	movq	-88(%rbp), %rax
	addq	$8, %rax
	movq	%rax, -88(%rbp)
	nop
.L114:
	leaq	-88(%rbp), %rax
	movq	%rax, 408(%rbp)
	movq	408(%rbp), %rax
	movq	(%rax), %rdx
	leaq	-96(%rbp), %rax
	movq	%rax, 400(%rbp)
	movq	400(%rbp), %rax
	movq	(%rax), %rax
	cmpq	%rax, %rdx
	setne	%al
	testb	%al, %al
	jne	.L120
	leaq	-80(%rbp), %rax
	movl	$10, %edx
	movq	%rax, %rcx
	call	_ZStlsISt11char_traitsIcEERSt13basic_ostreamIcT_ES5_c
	movl	$9, %ecx
	call	_ZSt12setprecisioni
	movl	%eax, %edx
	leaq	-80(%rbp), %rax
	movq	%rax, %rcx
	call	_ZStlsIcSt11char_traitsIcEERSt13basic_ostreamIT_T0_ES6_St13_Setprecision
	movq	$0, 456(%rbp)
	jmp	.L121
.L128:
	leaq	.LC4(%rip), %rdx
	leaq	-80(%rbp), %rax
	movq	%rax, %rcx
	call	_ZStlsISt11char_traitsIcEERSt13basic_ostreamIcT_ES5_PKc
	movq	%rax, %rcx
	movq	456(%rbp), %rax
	movq	%rax, %rdx
	call	_ZNSolsEy
	movl	$10, %edx
	movq	%rax, %rcx
	call	_ZStlsISt11char_traitsIcEERSt13basic_ostreamIcT_ES5_c
	movq	$0, 448(%rbp)
	jmp	.L122
.L125:
	movq	$0, 440(%rbp)
	jmp	.L123
.L124:
	movq	496(%rbp), %rax
	leaq	32(%rax), %rcx
	movq	456(%rbp), %rax
	movq	%rax, %rdx
	call	_ZNKSt6vectorIS_IS_IfSaIfEESaIS1_EESaIS3_EEixEy
	movq	%rax, %rcx
	movq	448(%rbp), %rax
	movq	%rax, %rdx
	call	_ZNKSt6vectorIS_IfSaIfEESaIS1_EEixEy
	movq	%rax, %rcx
	movq	440(%rbp), %rax
	movq	%rax, %rdx
	call	_ZNKSt6vectorIfSaIfEEixEy
	movss	(%rax), %xmm0
	leaq	-80(%rbp), %rax
	movaps	%xmm0, %xmm1
	movq	%rax, %rcx
	call	_ZNSolsEf
	movl	$32, %edx
	movq	%rax, %rcx
	call	_ZStlsISt11char_traitsIcEERSt13basic_ostreamIcT_ES5_c
	addq	$1, 440(%rbp)
.L123:
	movq	496(%rbp), %rax
	movq	456(%rbp), %rdx
	addq	$1, %rdx
	movq	%rax, %rcx
	call	_ZNKSt6vectorIySaIyEEixEy
	movq	(%rax), %rax
	cmpq	%rax, 440(%rbp)
	setb	%al
	testb	%al, %al
	jne	.L124
	leaq	-80(%rbp), %rax
	movl	$10, %edx
	movq	%rax, %rcx
	call	_ZStlsISt11char_traitsIcEERSt13basic_ostreamIcT_ES5_c
	addq	$1, 448(%rbp)
.L122:
	movq	496(%rbp), %rax
	movq	456(%rbp), %rdx
	movq	%rax, %rcx
	call	_ZNKSt6vectorIySaIyEEixEy
	movq	(%rax), %rax
	cmpq	%rax, 448(%rbp)
	setb	%al
	testb	%al, %al
	jne	.L125
	leaq	.LC5(%rip), %rdx
	leaq	-80(%rbp), %rax
	movq	%rax, %rcx
	call	_ZStlsISt11char_traitsIcEERSt13basic_ostreamIcT_ES5_PKc
	movq	%rax, %rcx
	movq	456(%rbp), %rax
	movq	%rax, %rdx
	call	_ZNSolsEy
	movl	$10, %edx
	movq	%rax, %rcx
	call	_ZStlsISt11char_traitsIcEERSt13basic_ostreamIcT_ES5_c
	movq	$0, 432(%rbp)
	jmp	.L126
.L127:
	movq	496(%rbp), %rax
	leaq	56(%rax), %rcx
	movq	456(%rbp), %rax
	movq	%rax, %rdx
	call	_ZNKSt6vectorIS_IfSaIfEESaIS1_EEixEy
	movq	%rax, %rcx
	movq	432(%rbp), %rax
	movq	%rax, %rdx
	call	_ZNKSt6vectorIfSaIfEEixEy
	movss	(%rax), %xmm0
	leaq	-80(%rbp), %rax
	movaps	%xmm0, %xmm1
	movq	%rax, %rcx
	call	_ZNSolsEf
	movl	$32, %edx
	movq	%rax, %rcx
	call	_ZStlsISt11char_traitsIcEERSt13basic_ostreamIcT_ES5_c
	addq	$1, 432(%rbp)
.L126:
	movq	496(%rbp), %rax
	movq	456(%rbp), %rdx
	addq	$1, %rdx
	movq	%rax, %rcx
	call	_ZNKSt6vectorIySaIyEEixEy
	movq	(%rax), %rax
	cmpq	%rax, 432(%rbp)
	setb	%al
	testb	%al, %al
	jne	.L127
	leaq	-80(%rbp), %rax
	movl	$10, %edx
	movq	%rax, %rcx
	call	_ZStlsISt11char_traitsIcEERSt13basic_ostreamIcT_ES5_c
	addq	$1, 456(%rbp)
.L121:
	movq	496(%rbp), %rax
	movq	%rax, %rcx
	call	_ZNK13NeuralNetwork18weight_layer_countEv
	cmpq	%rax, 456(%rbp)
	setb	%al
	testb	%al, %al
	jne	.L128
	leaq	-80(%rbp), %rax
	addq	$216, %rax
	movq	%rax, %rcx
	call	_ZNKSt9basic_iosIcSt11char_traitsIcEE4goodEv
.LEHE15:
	movl	%eax, %ebx
	nop
.L113:
	leaq	-80(%rbp), %rax
	movq	%rax, %rcx
	call	_ZNSt14basic_ofstreamIcSt11char_traitsIcEED1Ev
	movl	%ebx, %eax
	jmp	.L132
.L131:
	movq	%rax, %rbx
	leaq	-80(%rbp), %rax
	movq	%rax, %rcx
	call	_ZNSt14basic_ofstreamIcSt11char_traitsIcEED1Ev
	movq	%rbx, %rax
	movq	%rax, %rcx
.LEHB16:
	call	_Unwind_Resume
.LEHE16:
.L132:
	addq	$600, %rsp
	popq	%rbx
	popq	%rbp
	ret
	.seh_handler	__gxx_personality_seh0, @unwind, @except
	.seh_handlerdata
.LLSDA10633:
	.byte	0xff
	.byte	0xff
	.byte	0x1
	.uleb128 .LLSDACSE10633-.LLSDACSB10633
.LLSDACSB10633:
	.uleb128 .LEHB14-.LFB10633
	.uleb128 .LEHE14-.LEHB14
	.uleb128 0
	.uleb128 0
	.uleb128 .LEHB15-.LFB10633
	.uleb128 .LEHE15-.LEHB15
	.uleb128 .L131-.LFB10633
	.uleb128 0
	.uleb128 .LEHB16-.LFB10633
	.uleb128 .LEHE16-.LEHB16
	.uleb128 0
	.uleb128 0
.LLSDACSE10633:
	.section	.text$_ZNK13NeuralNetwork12save_to_fileERKNSt7__cxx1112basic_stringIcSt11char_traitsIcESaIcEEE,"x"
	.linkonce discard
	.seh_endproc
	.section	.text$_ZNSt12_Vector_baseIfSaIfEE12_Vector_implD1Ev,"x"
	.linkonce discard
	.align 2
	.globl	_ZNSt12_Vector_baseIfSaIfEE12_Vector_implD1Ev
	.def	_ZNSt12_Vector_baseIfSaIfEE12_Vector_implD1Ev;	.scl	2;	.type	32;	.endef
	.seh_proc	_ZNSt12_Vector_baseIfSaIfEE12_Vector_implD1Ev
_ZNSt12_Vector_baseIfSaIfEE12_Vector_implD1Ev:
.LFB10643:
	pushq	%rbp
	.seh_pushreg	%rbp
	movq	%rsp, %rbp
	.seh_setframe	%rbp, 0
	subq	$48, %rsp
	.seh_stackalloc	48
	.seh_endprologue
	movq	%rcx, 16(%rbp)
	movq	16(%rbp), %rax
	movq	%rax, -8(%rbp)
	movq	-8(%rbp), %rax
	movq	%rax, %rcx
	call	_ZNSt15__new_allocatorIfED2Ev
	nop
	nop
	addq	$48, %rsp
	popq	%rbp
	ret
	.seh_endproc
	.section	.text$_ZNSt12_Vector_baseIfSaIfEEC2Ev,"x"
	.linkonce discard
	.align 2
	.globl	_ZNSt12_Vector_baseIfSaIfEEC2Ev
	.def	_ZNSt12_Vector_baseIfSaIfEEC2Ev;	.scl	2;	.type	32;	.endef
	.seh_proc	_ZNSt12_Vector_baseIfSaIfEEC2Ev
_ZNSt12_Vector_baseIfSaIfEEC2Ev:
.LFB10644:
	pushq	%rbp
	.seh_pushreg	%rbp
	movq	%rsp, %rbp
	.seh_setframe	%rbp, 0
	subq	$32, %rsp
	.seh_stackalloc	32
	.seh_endprologue
	movq	%rcx, 16(%rbp)
	movq	16(%rbp), %rax
	movq	%rax, %rcx
	call	_ZNSt12_Vector_baseIfSaIfEE12_Vector_implC1Ev
	nop
	addq	$32, %rsp
	popq	%rbp
	ret
	.seh_endproc
	.section	.text$_ZNSt6vectorIfSaIfEEC1Ev,"x"
	.linkonce discard
	.align 2
	.globl	_ZNSt6vectorIfSaIfEEC1Ev
	.def	_ZNSt6vectorIfSaIfEEC1Ev;	.scl	2;	.type	32;	.endef
	.seh_proc	_ZNSt6vectorIfSaIfEEC1Ev
_ZNSt6vectorIfSaIfEEC1Ev:
.LFB10647:
	pushq	%rbp
	.seh_pushreg	%rbp
	movq	%rsp, %rbp
	.seh_setframe	%rbp, 0
	subq	$32, %rsp
	.seh_stackalloc	32
	.seh_endprologue
	movq	%rcx, 16(%rbp)
	movq	16(%rbp), %rax
	movq	%rax, %rcx
	call	_ZNSt12_Vector_baseIfSaIfEEC2Ev
	nop
	addq	$32, %rsp
	popq	%rbp
	ret
	.seh_endproc
	.section	.text$_ZN13NeuralNetwork18add_gaussian_noiseEfPSt23mersenne_twister_engineIjLy32ELy624ELy397ELy31ELj2567483615ELy11ELj4294967295ELy7ELj2636928640ELy15ELj4022730752ELy18ELj1812433253EE,"x"
	.linkonce discard
	.align 2
	.globl	_ZN13NeuralNetwork18add_gaussian_noiseEfPSt23mersenne_twister_engineIjLy32ELy624ELy397ELy31ELj2567483615ELy11ELj4294967295ELy7ELj2636928640ELy15ELj4022730752ELy18ELj1812433253EE
	.def	_ZN13NeuralNetwork18add_gaussian_noiseEfPSt23mersenne_twister_engineIjLy32ELy624ELy397ELy31ELj2567483615ELy11ELj4294967295ELy7ELj2636928640ELy15ELj4022730752ELy18ELj1812433253EE;	.scl	2;	.type	32;	.endef
	.seh_proc	_ZN13NeuralNetwork18add_gaussian_noiseEfPSt23mersenne_twister_engineIjLy32ELy624ELy397ELy31ELj2567483615ELy11ELj4294967295ELy7ELj2636928640ELy15ELj4022730752ELy18ELj1812433253EE
_ZN13NeuralNetwork18add_gaussian_noiseEfPSt23mersenne_twister_engineIjLy32ELy624ELy397ELy31ELj2567483615ELy11ELj4294967295ELy7ELj2636928640ELy15ELj4022730752ELy18ELj1812433253EE:
.LFB10648:
	pushq	%rbp
	.seh_pushreg	%rbp
	pushq	%rbx
	.seh_pushreg	%rbx
	movl	$5128, %eax
	call	___chkstk_ms
	subq	%rax, %rsp
	.seh_stackalloc	5128
	leaq	128(%rsp), %rbp
	.seh_setframe	%rbp, 128
	movups	%xmm6, 4976(%rbp)
	.seh_savexmm	%xmm6, 5104
	.seh_endprologue
	movq	%rcx, 5024(%rbp)
	movss	%xmm1, 5032(%rbp)
	movq	%r8, 5040(%rbp)
	pxor	%xmm0, %xmm0
	comiss	5032(%rbp), %xmm0
	jnb	.L153
	leaq	2432(%rbp), %rax
	movq	%rax, %rcx
.LEHB17:
	call	_ZNSt23mersenne_twister_engineIjLy32ELy624ELy397ELy31ELj2567483615ELy11ELj4294967295ELy7ELj2636928640ELy15ELj4022730752ELy18ELj1812433253EEC1Ev
	cmpq	$0, 5040(%rbp)
	je	.L140
	movq	5040(%rbp), %rax
	movq	%rax, 4968(%rbp)
	jmp	.L141
.L140:
	leaq	-96(%rbp), %rax
	movq	%rax, %rcx
	call	_ZNSt13random_deviceC1Ev
.LEHE17:
	leaq	-96(%rbp), %rax
	movq	%rax, %rcx
.LEHB18:
	call	_ZNSt13random_deviceclEv
	movl	%eax, %edx
	leaq	2432(%rbp), %rax
	movq	%rax, %rcx
	call	_ZNSt23mersenne_twister_engineIjLy32ELy624ELy397ELy31ELj2567483615ELy11ELj4294967295ELy7ELj2636928640ELy15ELj4022730752ELy18ELj1812433253EE4seedEj
.LEHE18:
	leaq	2432(%rbp), %rax
	movq	%rax, 4968(%rbp)
	leaq	-96(%rbp), %rax
	movq	%rax, %rcx
	call	_ZNSt13random_deviceD1Ev
.L141:
	movss	5032(%rbp), %xmm0
	leaq	2416(%rbp), %rax
	movaps	%xmm0, %xmm2
	pxor	%xmm1, %xmm1
	movq	%rax, %rcx
.LEHB19:
	call	_ZNSt19normal_distributionIfEC1Eff
	movq	$0, 4960(%rbp)
	jmp	.L142
.L149:
	movq	$0, 4952(%rbp)
	jmp	.L143
.L146:
	movq	$0, 4944(%rbp)
	jmp	.L144
.L145:
	movq	4968(%rbp), %rdx
	leaq	2416(%rbp), %rax
	movq	%rax, %rcx
	call	_ZNSt19normal_distributionIfEclISt23mersenne_twister_engineIjLy32ELy624ELy397ELy31ELj2567483615ELy11ELj4294967295ELy7ELj2636928640ELy15ELj4022730752ELy18ELj1812433253EEEEfRT_
	movaps	%xmm0, %xmm6
	movq	5024(%rbp), %rax
	leaq	32(%rax), %rcx
	movq	4960(%rbp), %rax
	movq	%rax, %rdx
	call	_ZNSt6vectorIS_IS_IfSaIfEESaIS1_EESaIS3_EEixEy
	movq	%rax, %rcx
	movq	4952(%rbp), %rax
	movq	%rax, %rdx
	call	_ZNSt6vectorIS_IfSaIfEESaIS1_EEixEy
	movq	%rax, %rcx
	movq	4944(%rbp), %rax
	movq	%rax, %rdx
	call	_ZNSt6vectorIfSaIfEEixEy
	movss	(%rax), %xmm0
	addss	%xmm6, %xmm0
	movss	%xmm0, (%rax)
	addq	$1, 4944(%rbp)
.L144:
	movq	5024(%rbp), %rax
	movq	4960(%rbp), %rdx
	addq	$1, %rdx
	movq	%rax, %rcx
	call	_ZNSt6vectorIySaIyEEixEy
	movq	(%rax), %rax
	cmpq	%rax, 4944(%rbp)
	setb	%al
	testb	%al, %al
	jne	.L145
	addq	$1, 4952(%rbp)
.L143:
	movq	5024(%rbp), %rax
	movq	4960(%rbp), %rdx
	movq	%rax, %rcx
	call	_ZNSt6vectorIySaIyEEixEy
	movq	(%rax), %rax
	cmpq	%rax, 4952(%rbp)
	setb	%al
	testb	%al, %al
	jne	.L146
	movq	$0, 4936(%rbp)
	jmp	.L147
.L148:
	movq	4968(%rbp), %rdx
	leaq	2416(%rbp), %rax
	movq	%rax, %rcx
	call	_ZNSt19normal_distributionIfEclISt23mersenne_twister_engineIjLy32ELy624ELy397ELy31ELj2567483615ELy11ELj4294967295ELy7ELj2636928640ELy15ELj4022730752ELy18ELj1812433253EEEEfRT_
	movaps	%xmm0, %xmm6
	movq	5024(%rbp), %rax
	leaq	56(%rax), %rcx
	movq	4960(%rbp), %rax
	movq	%rax, %rdx
	call	_ZNSt6vectorIS_IfSaIfEESaIS1_EEixEy
	movq	%rax, %rcx
	movq	4936(%rbp), %rax
	movq	%rax, %rdx
	call	_ZNSt6vectorIfSaIfEEixEy
	movss	(%rax), %xmm0
	addss	%xmm6, %xmm0
	movss	%xmm0, (%rax)
	addq	$1, 4936(%rbp)
.L147:
	movq	5024(%rbp), %rax
	movq	4960(%rbp), %rdx
	addq	$1, %rdx
	movq	%rax, %rcx
	call	_ZNSt6vectorIySaIyEEixEy
	movq	(%rax), %rax
	cmpq	%rax, 4936(%rbp)
	setb	%al
	testb	%al, %al
	jne	.L148
	addq	$1, 4960(%rbp)
.L142:
	movq	5024(%rbp), %rax
	movq	%rax, %rcx
	call	_ZNK13NeuralNetwork18weight_layer_countEv
	cmpq	%rax, 4960(%rbp)
	setb	%al
	testb	%al, %al
	jne	.L149
	jmp	.L136
.L152:
	movq	%rax, %rbx
	leaq	-96(%rbp), %rax
	movq	%rax, %rcx
	call	_ZNSt13random_deviceD1Ev
	movq	%rbx, %rax
	movq	%rax, %rcx
	call	_Unwind_Resume
.LEHE19:
.L153:
	nop
.L136:
	movups	4976(%rbp), %xmm6
	addq	$5128, %rsp
	popq	%rbx
	popq	%rbp
	ret
	.seh_handler	__gxx_personality_seh0, @unwind, @except
	.seh_handlerdata
.LLSDA10648:
	.byte	0xff
	.byte	0xff
	.byte	0x1
	.uleb128 .LLSDACSE10648-.LLSDACSB10648
.LLSDACSB10648:
	.uleb128 .LEHB17-.LFB10648
	.uleb128 .LEHE17-.LEHB17
	.uleb128 0
	.uleb128 0
	.uleb128 .LEHB18-.LFB10648
	.uleb128 .LEHE18-.LEHB18
	.uleb128 .L152-.LFB10648
	.uleb128 0
	.uleb128 .LEHB19-.LFB10648
	.uleb128 .LEHE19-.LEHB19
	.uleb128 0
	.uleb128 0
.LLSDACSE10648:
	.section	.text$_ZN13NeuralNetwork18add_gaussian_noiseEfPSt23mersenne_twister_engineIjLy32ELy624ELy397ELy31ELj2567483615ELy11ELj4294967295ELy7ELj2636928640ELy15ELj4022730752ELy18ELj1812433253EE,"x"
	.linkonce discard
	.seh_endproc
	.section	.text$_ZNSt12_Vector_baseIfSaIfEEC2EOS1_,"x"
	.linkonce discard
	.align 2
	.globl	_ZNSt12_Vector_baseIfSaIfEEC2EOS1_
	.def	_ZNSt12_Vector_baseIfSaIfEEC2EOS1_;	.scl	2;	.type	32;	.endef
	.seh_proc	_ZNSt12_Vector_baseIfSaIfEEC2EOS1_
_ZNSt12_Vector_baseIfSaIfEEC2EOS1_:
.LFB10652:
	pushq	%rbp
	.seh_pushreg	%rbp
	movq	%rsp, %rbp
	.seh_setframe	%rbp, 0
	subq	$32, %rsp
	.seh_stackalloc	32
	.seh_endprologue
	movq	%rcx, 16(%rbp)
	movq	%rdx, 24(%rbp)
	movq	16(%rbp), %rax
	movq	24(%rbp), %rdx
	movq	%rax, %rcx
	call	_ZNSt12_Vector_baseIfSaIfEE12_Vector_implC1EOS2_
	nop
	addq	$32, %rsp
	popq	%rbp
	ret
	.seh_endproc
	.section	.text$_ZNSt6vectorIfSaIfEEC1EOS1_,"x"
	.linkonce discard
	.align 2
	.globl	_ZNSt6vectorIfSaIfEEC1EOS1_
	.def	_ZNSt6vectorIfSaIfEEC1EOS1_;	.scl	2;	.type	32;	.endef
	.seh_proc	_ZNSt6vectorIfSaIfEEC1EOS1_
_ZNSt6vectorIfSaIfEEC1EOS1_:
.LFB10655:
	pushq	%rbp
	.seh_pushreg	%rbp
	movq	%rsp, %rbp
	.seh_setframe	%rbp, 0
	subq	$32, %rsp
	.seh_stackalloc	32
	.seh_endprologue
	movq	%rcx, 16(%rbp)
	movq	%rdx, 24(%rbp)
	movq	16(%rbp), %rax
	movq	24(%rbp), %rdx
	movq	%rax, %rcx
	call	_ZNSt12_Vector_baseIfSaIfEEC2EOS1_
	nop
	addq	$32, %rsp
	popq	%rbp
	ret
	.seh_endproc
	.section .rdata,"dr"
	.align 8
.LC7:
	.ascii "Input size does not match the first layer size\0"
	.section	.text$_ZNK13NeuralNetwork7forwardERKSt6vectorIfSaIfEE,"x"
	.linkonce discard
	.align 2
	.globl	_ZNK13NeuralNetwork7forwardERKSt6vectorIfSaIfEE
	.def	_ZNK13NeuralNetwork7forwardERKSt6vectorIfSaIfEE;	.scl	2;	.type	32;	.endef
	.seh_proc	_ZNK13NeuralNetwork7forwardERKSt6vectorIfSaIfEE
_ZNK13NeuralNetwork7forwardERKSt6vectorIfSaIfEE:
.LFB10649:
	pushq	%rbp
	.seh_pushreg	%rbp
	pushq	%rsi
	.seh_pushreg	%rsi
	pushq	%rbx
	.seh_pushreg	%rbx
	subq	$144, %rsp
	.seh_stackalloc	144
	leaq	128(%rsp), %rbp
	.seh_setframe	%rbp, 128
	movups	%xmm6, 0(%rbp)
	.seh_savexmm	%xmm6, 128
	.seh_endprologue
	movq	%rcx, 48(%rbp)
	movq	%rdx, 56(%rbp)
	movq	%r8, 64(%rbp)
	movq	64(%rbp), %rax
	movq	%rax, %rcx
	call	_ZNKSt6vectorIfSaIfEE4sizeEv
	movq	%rax, %rbx
	movq	56(%rbp), %rax
	movq	%rax, %rcx
	call	_ZNKSt6vectorIySaIyEE5frontEv
	movq	(%rax), %rax
	cmpq	%rax, %rbx
	setne	%al
	testb	%al, %al
	je	.L157
	movl	$16, %ecx
	call	__cxa_allocate_exception
	movq	%rax, %rbx
	leaq	.LC7(%rip), %rax
	movq	%rax, %rdx
	movq	%rbx, %rcx
.LEHB20:
	call	_ZNSt16invalid_argumentC1EPKc
.LEHE20:
	movq	.refptr._ZNSt16invalid_argumentD1Ev(%rip), %rdx
	leaq	_ZTISt16invalid_argument(%rip), %rax
	movq	%rdx, %r8
	movq	%rax, %rdx
	movq	%rbx, %rcx
.LEHB21:
	call	__cxa_throw
.LEHE21:
.L157:
	leaq	-70(%rbp), %rax
	movq	%rax, -56(%rbp)
	nop
	nop
	movq	64(%rbp), %rax
	movq	%rax, %rcx
	call	_ZNKSt6vectorIfSaIfEE3endEv
	movq	%rax, %rbx
	movq	64(%rbp), %rax
	movq	%rax, %rcx
	call	_ZNKSt6vectorIfSaIfEE5beginEv
	movq	%rax, %rdx
	leaq	-70(%rbp), %rcx
	movq	48(%rbp), %rax
	movq	%rcx, %r9
	movq	%rbx, %r8
	movq	%rax, %rcx
.LEHB22:
	call	_ZNSt6vectorIfSaIfEEC1IN9__gnu_cxx17__normal_iteratorIPKfS1_EEvEET_S8_RKS0_
.LEHE22:
	leaq	-70(%rbp), %rax
	movq	%rax, %rcx
	call	_ZNSt15__new_allocatorIfED2Ev
	nop
	movq	$0, -8(%rbp)
	jmp	.L158
.L163:
	movq	56(%rbp), %rax
	leaq	32(%rax), %rcx
	movq	-8(%rbp), %rax
	movq	%rax, %rdx
	call	_ZNKSt6vectorIS_IS_IfSaIfEESaIS1_EESaIS3_EEixEy
	movq	%rax, -40(%rbp)
	movq	56(%rbp), %rax
	leaq	56(%rax), %rcx
	movq	-8(%rbp), %rax
	movq	%rax, %rdx
	call	_ZNKSt6vectorIS_IfSaIfEESaIS1_EEixEy
	movq	%rax, -48(%rbp)
	leaq	-69(%rbp), %rax
	movq	%rax, -64(%rbp)
	nop
	nop
	pxor	%xmm0, %xmm0
	movss	%xmm0, -68(%rbp)
	movq	56(%rbp), %rax
	movq	-8(%rbp), %rdx
	addq	$1, %rdx
	movq	%rax, %rcx
	call	_ZNKSt6vectorIySaIyEEixEy
	movq	(%rax), %rdx
	leaq	-69(%rbp), %r8
	leaq	-68(%rbp), %rcx
	leaq	-96(%rbp), %rax
	movq	%r8, %r9
	movq	%rcx, %r8
	movq	%rax, %rcx
.LEHB23:
	call	_ZNSt6vectorIfSaIfEEC1EyRKfRKS0_
.LEHE23:
	leaq	-69(%rbp), %rax
	movq	%rax, %rcx
	call	_ZNSt15__new_allocatorIfED2Ev
	nop
	movq	$0, -16(%rbp)
	jmp	.L159
.L162:
	movq	-16(%rbp), %rdx
	movq	-48(%rbp), %rax
	movq	%rax, %rcx
	call	_ZNKSt6vectorIfSaIfEEixEy
	movss	(%rax), %xmm0
	movss	%xmm0, -20(%rbp)
	movq	$0, -32(%rbp)
	jmp	.L160
.L161:
	movq	-32(%rbp), %rdx
	movq	-40(%rbp), %rax
	movq	%rax, %rcx
	call	_ZNKSt6vectorIS_IfSaIfEESaIS1_EEixEy
	movq	%rax, %rcx
	movq	-16(%rbp), %rax
	movq	%rax, %rdx
	call	_ZNKSt6vectorIfSaIfEEixEy
	movss	(%rax), %xmm6
	movq	-32(%rbp), %rdx
	movq	48(%rbp), %rax
	movq	%rax, %rcx
	call	_ZNSt6vectorIfSaIfEEixEy
	movss	(%rax), %xmm0
	mulss	%xmm6, %xmm0
	movss	-20(%rbp), %xmm1
	addss	%xmm1, %xmm0
	movss	%xmm0, -20(%rbp)
	addq	$1, -32(%rbp)
.L160:
	movq	56(%rbp), %rax
	movq	-8(%rbp), %rdx
	movq	%rax, %rcx
	call	_ZNKSt6vectorIySaIyEEixEy
	movq	(%rax), %rax
	cmpq	%rax, -32(%rbp)
	setb	%al
	testb	%al, %al
	jne	.L161
	movss	-20(%rbp), %xmm0
	movq	56(%rbp), %rax
	movaps	%xmm0, %xmm1
	movq	%rax, %rcx
	call	_ZNK13NeuralNetwork16apply_activationEf
	movd	%xmm0, %ebx
	movq	-16(%rbp), %rdx
	leaq	-96(%rbp), %rax
	movq	%rax, %rcx
	call	_ZNSt6vectorIfSaIfEEixEy
	movl	%ebx, (%rax)
	addq	$1, -16(%rbp)
.L159:
	movq	56(%rbp), %rax
	movq	-8(%rbp), %rdx
	addq	$1, %rdx
	movq	%rax, %rcx
	call	_ZNKSt6vectorIySaIyEEixEy
	movq	(%rax), %rax
	cmpq	%rax, -16(%rbp)
	setb	%al
	testb	%al, %al
	jne	.L162
	leaq	-96(%rbp), %rdx
	movq	48(%rbp), %rax
	movq	%rax, %rcx
	call	_ZNSt6vectorIfSaIfEE4swapERS1_
	leaq	-96(%rbp), %rax
	movq	%rax, %rcx
	call	_ZNSt6vectorIfSaIfEED1Ev
	addq	$1, -8(%rbp)
.L158:
	movq	56(%rbp), %rax
	movq	%rax, %rcx
	call	_ZNK13NeuralNetwork18weight_layer_countEv
	cmpq	%rax, -8(%rbp)
	setb	%al
	testb	%al, %al
	jne	.L163
	jmp	.L171
.L168:
	movq	%rax, %rsi
	movq	%rbx, %rcx
	call	__cxa_free_exception
	movq	%rsi, %rax
	movq	%rax, %rcx
.LEHB24:
	call	_Unwind_Resume
.L169:
	movq	%rax, %rbx
	leaq	-70(%rbp), %rax
	movq	%rax, %rcx
	call	_ZNSt15__new_allocatorIfED2Ev
	nop
	movq	%rbx, %rax
	movq	%rax, %rcx
	call	_Unwind_Resume
.L170:
	movq	%rax, %rbx
	leaq	-69(%rbp), %rax
	movq	%rax, %rcx
	call	_ZNSt15__new_allocatorIfED2Ev
	nop
	movq	48(%rbp), %rax
	movq	%rax, %rcx
	call	_ZNSt6vectorIfSaIfEED1Ev
	movq	%rbx, %rax
	movq	%rax, %rcx
	call	_Unwind_Resume
.LEHE24:
.L171:
	movq	48(%rbp), %rax
	movups	0(%rbp), %xmm6
	addq	$144, %rsp
	popq	%rbx
	popq	%rsi
	popq	%rbp
	ret
	.seh_handler	__gxx_personality_seh0, @unwind, @except
	.seh_handlerdata
.LLSDA10649:
	.byte	0xff
	.byte	0xff
	.byte	0x1
	.uleb128 .LLSDACSE10649-.LLSDACSB10649
.LLSDACSB10649:
	.uleb128 .LEHB20-.LFB10649
	.uleb128 .LEHE20-.LEHB20
	.uleb128 .L168-.LFB10649
	.uleb128 0
	.uleb128 .LEHB21-.LFB10649
	.uleb128 .LEHE21-.LEHB21
	.uleb128 0
	.uleb128 0
	.uleb128 .LEHB22-.LFB10649
	.uleb128 .LEHE22-.LEHB22
	.uleb128 .L169-.LFB10649
	.uleb128 0
	.uleb128 .LEHB23-.LFB10649
	.uleb128 .LEHE23-.LEHB23
	.uleb128 .L170-.LFB10649
	.uleb128 0
	.uleb128 .LEHB24-.LFB10649
	.uleb128 .LEHE24-.LEHB24
	.uleb128 0
	.uleb128 0
.LLSDACSE10649:
	.section	.text$_ZNK13NeuralNetwork7forwardERKSt6vectorIfSaIfEE,"x"
	.linkonce discard
	.seh_endproc
	.section	.text$_ZNK13NeuralNetwork16apply_activationEf,"x"
	.linkonce discard
	.align 2
	.globl	_ZNK13NeuralNetwork16apply_activationEf
	.def	_ZNK13NeuralNetwork16apply_activationEf;	.scl	2;	.type	32;	.endef
	.seh_proc	_ZNK13NeuralNetwork16apply_activationEf
_ZNK13NeuralNetwork16apply_activationEf:
.LFB10660:
	pushq	%rbp
	.seh_pushreg	%rbp
	movq	%rsp, %rbp
	.seh_setframe	%rbp, 0
	.seh_endprologue
	movq	%rcx, 16(%rbp)
	movss	%xmm1, 24(%rbp)
	movq	16(%rbp), %rax
	movl	24(%rax), %eax
	cmpl	$1, %eax
	jne	.L173
	movss	24(%rbp), %xmm0
	jmp	.L174
.L173:
	movss	24(%rbp), %xmm0
	pxor	%xmm1, %xmm1
	comiss	%xmm1, %xmm0
	jbe	.L179
	movss	24(%rbp), %xmm0
	jmp	.L174
.L179:
	pxor	%xmm0, %xmm0
.L174:
	popq	%rbp
	ret
	.seh_endproc
	.section	.text$_ZN13NeuralNetwork11init_paramsEv,"x"
	.linkonce discard
	.align 2
	.globl	_ZN13NeuralNetwork11init_paramsEv
	.def	_ZN13NeuralNetwork11init_paramsEv;	.scl	2;	.type	32;	.endef
	.seh_proc	_ZN13NeuralNetwork11init_paramsEv
_ZN13NeuralNetwork11init_paramsEv:
.LFB10661:
	pushq	%rbp
	.seh_pushreg	%rbp
	pushq	%rbx
	.seh_pushreg	%rbx
	subq	$152, %rsp
	.seh_stackalloc	152
	leaq	144(%rsp), %rbp
	.seh_setframe	%rbp, 144
	.seh_endprologue
	movq	%rcx, 32(%rbp)
	leaq	-104(%rbp), %rax
	movss	.LC8(%rip), %xmm2
	movss	.LC9(%rip), %xmm1
	movq	%rax, %rcx
.LEHB25:
	call	_ZNSt25uniform_real_distributionIfEC1Eff
	movq	32(%rbp), %rax
	leaq	32(%rax), %rbx
	movq	32(%rbp), %rax
	movq	%rax, %rcx
	call	_ZNK13NeuralNetwork18weight_layer_countEv
	movq	%rax, %rdx
	movq	%rbx, %rcx
	call	_ZNSt6vectorIS_IS_IfSaIfEESaIS1_EESaIS3_EE6resizeEy
	movq	32(%rbp), %rax
	leaq	56(%rax), %rbx
	movq	32(%rbp), %rax
	movq	%rax, %rcx
	call	_ZNK13NeuralNetwork18weight_layer_countEv
	movq	%rax, %rdx
	movq	%rbx, %rcx
	call	_ZNSt6vectorIS_IfSaIfEESaIS1_EE6resizeEy
.LEHE25:
	movq	$0, -8(%rbp)
	jmp	.L181
.L188:
	movq	32(%rbp), %rax
	movq	-8(%rbp), %rdx
	movq	%rax, %rcx
	call	_ZNSt6vectorIySaIyEEixEy
	movq	(%rax), %rax
	movq	%rax, -40(%rbp)
	movq	32(%rbp), %rax
	movq	-8(%rbp), %rdx
	addq	$1, %rdx
	movq	%rax, %rcx
	call	_ZNSt6vectorIySaIyEEixEy
	movq	(%rax), %rax
	movq	%rax, -48(%rbp)
	movq	32(%rbp), %rax
	leaq	32(%rax), %rcx
	movq	-8(%rbp), %rax
	movq	%rax, %rdx
	call	_ZNSt6vectorIS_IS_IfSaIfEESaIS1_EESaIS3_EEixEy
	movq	%rax, %rbx
	leaq	-65(%rbp), %rax
	movq	%rax, -56(%rbp)
	nop
	nop
	pxor	%xmm0, %xmm0
	movss	%xmm0, -64(%rbp)
	leaq	-65(%rbp), %r8
	leaq	-64(%rbp), %rcx
	movq	-48(%rbp), %rdx
	leaq	-96(%rbp), %rax
	movq	%r8, %r9
	movq	%rcx, %r8
	movq	%rax, %rcx
.LEHB26:
	call	_ZNSt6vectorIfSaIfEEC1EyRKfRKS0_
.LEHE26:
	leaq	-96(%rbp), %rdx
	movq	-40(%rbp), %rax
	movq	%rdx, %r8
	movq	%rax, %rdx
	movq	%rbx, %rcx
.LEHB27:
	call	_ZNSt6vectorIS_IfSaIfEESaIS1_EE6assignEyRKS1_
.LEHE27:
	leaq	-96(%rbp), %rax
	movq	%rax, %rcx
	call	_ZNSt6vectorIfSaIfEED1Ev
	leaq	-65(%rbp), %rax
	movq	%rax, %rcx
	call	_ZNSt15__new_allocatorIfED2Ev
	nop
	movq	32(%rbp), %rax
	leaq	56(%rax), %rcx
	movq	-8(%rbp), %rax
	movq	%rax, %rdx
	call	_ZNSt6vectorIS_IfSaIfEESaIS1_EEixEy
	movq	%rax, %rcx
	pxor	%xmm0, %xmm0
	movss	%xmm0, -60(%rbp)
	leaq	-60(%rbp), %rdx
	movq	-48(%rbp), %rax
	movq	%rdx, %r8
	movq	%rax, %rdx
.LEHB28:
	call	_ZNSt6vectorIfSaIfEE6assignEyRKf
	movq	$0, -16(%rbp)
	jmp	.L182
.L185:
	movq	$0, -24(%rbp)
	jmp	.L183
.L184:
	movq	32(%rbp), %rax
	leaq	80(%rax), %rdx
	leaq	-104(%rbp), %rax
	movq	%rax, %rcx
	call	_ZNSt25uniform_real_distributionIfEclISt23mersenne_twister_engineIjLy32ELy624ELy397ELy31ELj2567483615ELy11ELj4294967295ELy7ELj2636928640ELy15ELj4022730752ELy18ELj1812433253EEEEfRT_
	movd	%xmm0, %ebx
	movq	32(%rbp), %rax
	leaq	32(%rax), %rcx
	movq	-8(%rbp), %rax
	movq	%rax, %rdx
	call	_ZNSt6vectorIS_IS_IfSaIfEESaIS1_EESaIS3_EEixEy
	movq	%rax, %rcx
	movq	-16(%rbp), %rax
	movq	%rax, %rdx
	call	_ZNSt6vectorIS_IfSaIfEESaIS1_EEixEy
	movq	%rax, %rcx
	movq	-24(%rbp), %rax
	movq	%rax, %rdx
	call	_ZNSt6vectorIfSaIfEEixEy
	movl	%ebx, (%rax)
	addq	$1, -24(%rbp)
.L183:
	movq	-24(%rbp), %rax
	cmpq	-48(%rbp), %rax
	jb	.L184
	addq	$1, -16(%rbp)
.L182:
	movq	-16(%rbp), %rax
	cmpq	-40(%rbp), %rax
	jb	.L185
	movq	$0, -32(%rbp)
	jmp	.L186
.L187:
	movq	32(%rbp), %rax
	leaq	80(%rax), %rdx
	leaq	-104(%rbp), %rax
	movq	%rax, %rcx
	call	_ZNSt25uniform_real_distributionIfEclISt23mersenne_twister_engineIjLy32ELy624ELy397ELy31ELj2567483615ELy11ELj4294967295ELy7ELj2636928640ELy15ELj4022730752ELy18ELj1812433253EEEEfRT_
	movd	%xmm0, %ebx
	movq	32(%rbp), %rax
	leaq	56(%rax), %rcx
	movq	-8(%rbp), %rax
	movq	%rax, %rdx
	call	_ZNSt6vectorIS_IfSaIfEESaIS1_EEixEy
	movq	%rax, %rcx
	movq	-32(%rbp), %rax
	movq	%rax, %rdx
	call	_ZNSt6vectorIfSaIfEEixEy
	movl	%ebx, (%rax)
	addq	$1, -32(%rbp)
.L186:
	movq	-32(%rbp), %rax
	cmpq	-48(%rbp), %rax
	jb	.L187
	addq	$1, -8(%rbp)
.L181:
	movq	32(%rbp), %rax
	movq	%rax, %rcx
	call	_ZNK13NeuralNetwork18weight_layer_countEv
	cmpq	%rax, -8(%rbp)
	setb	%al
	testb	%al, %al
	jne	.L188
	jmp	.L193
.L192:
	movq	%rax, %rbx
	leaq	-96(%rbp), %rax
	movq	%rax, %rcx
	call	_ZNSt6vectorIfSaIfEED1Ev
	jmp	.L190
.L191:
	movq	%rax, %rbx
.L190:
	leaq	-65(%rbp), %rax
	movq	%rax, %rcx
	call	_ZNSt15__new_allocatorIfED2Ev
	nop
	movq	%rbx, %rax
	movq	%rax, %rcx
	call	_Unwind_Resume
	nop
.LEHE28:
.L193:
	addq	$152, %rsp
	popq	%rbx
	popq	%rbp
	ret
	.seh_handler	__gxx_personality_seh0, @unwind, @except
	.seh_handlerdata
.LLSDA10661:
	.byte	0xff
	.byte	0xff
	.byte	0x1
	.uleb128 .LLSDACSE10661-.LLSDACSB10661
.LLSDACSB10661:
	.uleb128 .LEHB25-.LFB10661
	.uleb128 .LEHE25-.LEHB25
	.uleb128 0
	.uleb128 0
	.uleb128 .LEHB26-.LFB10661
	.uleb128 .LEHE26-.LEHB26
	.uleb128 .L191-.LFB10661
	.uleb128 0
	.uleb128 .LEHB27-.LFB10661
	.uleb128 .LEHE27-.LEHB27
	.uleb128 .L192-.LFB10661
	.uleb128 0
	.uleb128 .LEHB28-.LFB10661
	.uleb128 .LEHE28-.LEHB28
	.uleb128 0
	.uleb128 0
.LLSDACSE10661:
	.section	.text$_ZN13NeuralNetwork11init_paramsEv,"x"
	.linkonce discard
	.seh_endproc
	.text
	.globl	_Z12print_vectorRKSt6vectorIfSaIfEE
	.def	_Z12print_vectorRKSt6vectorIfSaIfEE;	.scl	2;	.type	32;	.endef
	.seh_proc	_Z12print_vectorRKSt6vectorIfSaIfEE
_Z12print_vectorRKSt6vectorIfSaIfEE:
.LFB10666:
	pushq	%rbp
	.seh_pushreg	%rbp
	pushq	%rbx
	.seh_pushreg	%rbx
	subq	$88, %rsp
	.seh_stackalloc	88
	leaq	80(%rsp), %rbp
	.seh_setframe	%rbp, 80
	.seh_endprologue
	movq	%rcx, 32(%rbp)
	leaq	_ZSt5fixedRSt8ios_base(%rip), %rax
	movq	%rax, %rdx
	movq	.refptr._ZSt4cout(%rip), %rax
	movq	%rax, %rcx
	call	_ZNSolsEPFRSt8ios_baseS0_E
	movq	%rax, %rbx
	movl	$4, %ecx
	call	_ZSt12setprecisioni
	movl	%eax, %edx
	movq	%rbx, %rcx
	call	_ZStlsIcSt11char_traitsIcEERSt13basic_ostreamIT_T0_ES6_St13_Setprecision
	movq	32(%rbp), %rax
	movq	%rax, -8(%rbp)
	movq	-8(%rbp), %rax
	movq	%rax, %rcx
	call	_ZNKSt6vectorIfSaIfEE5beginEv
	movq	%rax, -40(%rbp)
	movq	-8(%rbp), %rax
	movq	%rax, %rcx
	call	_ZNKSt6vectorIfSaIfEE3endEv
	movq	%rax, -48(%rbp)
	jmp	.L195
.L201:
	movq	-40(%rbp), %rax
	movss	(%rax), %xmm0
	movss	%xmm0, -12(%rbp)
	movss	-12(%rbp), %xmm0
	movq	.refptr._ZSt4cout(%rip), %rax
	movaps	%xmm0, %xmm1
	movq	%rax, %rcx
	call	_ZNSolsEf
	movl	$32, %edx
	movq	%rax, %rcx
	call	_ZStlsISt11char_traitsIcEERSt13basic_ostreamIcT_ES5_c
	movq	-40(%rbp), %rax
	addq	$4, %rax
	movq	%rax, -40(%rbp)
	nop
.L195:
	leaq	-40(%rbp), %rax
	movq	%rax, -24(%rbp)
	movq	-24(%rbp), %rax
	movq	(%rax), %rdx
	leaq	-48(%rbp), %rax
	movq	%rax, -32(%rbp)
	movq	-32(%rbp), %rax
	movq	(%rax), %rax
	cmpq	%rax, %rdx
	setne	%al
	testb	%al, %al
	jne	.L201
	movq	.refptr._ZSt4cout(%rip), %rax
	movl	$10, %edx
	movq	%rax, %rcx
	call	_ZStlsISt11char_traitsIcEERSt13basic_ostreamIcT_ES5_c
	nop
	addq	$88, %rsp
	popq	%rbx
	popq	%rbp
	ret
	.seh_endproc
	.section	.text$_ZN7Feature9zero_gridEii,"x"
	.linkonce discard
	.globl	_ZN7Feature9zero_gridEii
	.def	_ZN7Feature9zero_gridEii;	.scl	2;	.type	32;	.endef
	.seh_proc	_ZN7Feature9zero_gridEii
_ZN7Feature9zero_gridEii:
.LFB10670:
	pushq	%rbp
	.seh_pushreg	%rbp
	pushq	%rbx
	.seh_pushreg	%rbx
	subq	$104, %rsp
	.seh_stackalloc	104
	leaq	96(%rsp), %rbp
	.seh_setframe	%rbp, 96
	.seh_endprologue
	movq	%rcx, 32(%rbp)
	movl	%edx, 40(%rbp)
	movl	%r8d, 48(%rbp)
	leaq	-49(%rbp), %rax
	movq	%rax, -16(%rbp)
	nop
	nop
	leaq	-21(%rbp), %rax
	movq	%rax, -8(%rbp)
	nop
	nop
	pxor	%xmm0, %xmm0
	movss	%xmm0, -20(%rbp)
	movl	48(%rbp), %eax
	movslq	%eax, %rdx
	leaq	-21(%rbp), %r8
	leaq	-20(%rbp), %rcx
	leaq	-48(%rbp), %rax
	movq	%r8, %r9
	movq	%rcx, %r8
	movq	%rax, %rcx
.LEHB29:
	call	_ZNSt6vectorIfSaIfEEC1EyRKfRKS0_
.LEHE29:
	movl	40(%rbp), %eax
	movslq	%eax, %rdx
	leaq	-49(%rbp), %r8
	leaq	-48(%rbp), %rcx
	movq	32(%rbp), %rax
	movq	%r8, %r9
	movq	%rcx, %r8
	movq	%rax, %rcx
.LEHB30:
	call	_ZNSt6vectorIS_IfSaIfEESaIS1_EEC1EyRKS1_RKS2_
.LEHE30:
	nop
	leaq	-48(%rbp), %rax
	movq	%rax, %rcx
	call	_ZNSt6vectorIfSaIfEED1Ev
	leaq	-21(%rbp), %rax
	movq	%rax, %rcx
	call	_ZNSt15__new_allocatorIfED2Ev
	nop
	leaq	-49(%rbp), %rax
	movq	%rax, %rcx
	call	_ZNSt15__new_allocatorISt6vectorIfSaIfEEED2Ev
	nop
	jmp	.L208
.L207:
	movq	%rax, %rbx
	leaq	-48(%rbp), %rax
	movq	%rax, %rcx
	call	_ZNSt6vectorIfSaIfEED1Ev
	jmp	.L205
.L206:
	movq	%rax, %rbx
.L205:
	leaq	-21(%rbp), %rax
	movq	%rax, %rcx
	call	_ZNSt15__new_allocatorIfED2Ev
	nop
	leaq	-49(%rbp), %rax
	movq	%rax, %rcx
	call	_ZNSt15__new_allocatorISt6vectorIfSaIfEEED2Ev
	nop
	movq	%rbx, %rax
	movq	%rax, %rcx
.LEHB31:
	call	_Unwind_Resume
.LEHE31:
.L208:
	movq	32(%rbp), %rax
	addq	$104, %rsp
	popq	%rbx
	popq	%rbp
	ret
	.seh_handler	__gxx_personality_seh0, @unwind, @except
	.seh_handlerdata
.LLSDA10670:
	.byte	0xff
	.byte	0xff
	.byte	0x1
	.uleb128 .LLSDACSE10670-.LLSDACSB10670
.LLSDACSB10670:
	.uleb128 .LEHB29-.LFB10670
	.uleb128 .LEHE29-.LEHB29
	.uleb128 .L206-.LFB10670
	.uleb128 0
	.uleb128 .LEHB30-.LFB10670
	.uleb128 .LEHE30-.LEHB30
	.uleb128 .L207-.LFB10670
	.uleb128 0
	.uleb128 .LEHB31-.LFB10670
	.uleb128 .LEHE31-.LEHB31
	.uleb128 0
	.uleb128 0
.LLSDACSE10670:
	.section	.text$_ZN7Feature9zero_gridEii,"x"
	.linkonce discard
	.seh_endproc
	.section	.text$_ZN7Feature14append_channelERKSt6vectorIS0_IfSaIfEESaIS2_EERS2_,"x"
	.linkonce discard
	.globl	_ZN7Feature14append_channelERKSt6vectorIS0_IfSaIfEESaIS2_EERS2_
	.def	_ZN7Feature14append_channelERKSt6vectorIS0_IfSaIfEESaIS2_EERS2_;	.scl	2;	.type	32;	.endef
	.seh_proc	_ZN7Feature14append_channelERKSt6vectorIS0_IfSaIfEESaIS2_EERS2_
_ZN7Feature14append_channelERKSt6vectorIS0_IfSaIfEESaIS2_EERS2_:
.LFB10671:
	pushq	%rbp
	.seh_pushreg	%rbp
	movq	%rsp, %rbp
	.seh_setframe	%rbp, 0
	addq	$-128, %rsp
	.seh_stackalloc	128
	.seh_endprologue
	movq	%rcx, 16(%rbp)
	movq	%rdx, 24(%rbp)
	movq	16(%rbp), %rax
	movq	%rax, -8(%rbp)
	movq	-8(%rbp), %rax
	movq	%rax, %rcx
	call	_ZNKSt6vectorIS_IfSaIfEESaIS1_EE5beginEv
	movq	%rax, -64(%rbp)
	movq	-8(%rbp), %rax
	movq	%rax, %rcx
	call	_ZNKSt6vectorIS_IfSaIfEESaIS1_EE3endEv
	movq	%rax, -72(%rbp)
	jmp	.L210
.L223:
	movq	-64(%rbp), %rax
	movq	%rax, -16(%rbp)
	movq	-16(%rbp), %rax
	movq	%rax, -24(%rbp)
	movq	-24(%rbp), %rax
	movq	%rax, %rcx
	call	_ZNKSt6vectorIfSaIfEE5beginEv
	movq	%rax, -88(%rbp)
	movq	-24(%rbp), %rax
	movq	%rax, %rcx
	call	_ZNKSt6vectorIfSaIfEE3endEv
	movq	%rax, -96(%rbp)
	jmp	.L212
.L218:
	movq	-88(%rbp), %rax
	movss	(%rax), %xmm0
	movss	%xmm0, -76(%rbp)
	leaq	-76(%rbp), %rdx
	movq	24(%rbp), %rax
	movq	%rax, %rcx
	call	_ZNSt6vectorIfSaIfEE9push_backERKf
	movq	-88(%rbp), %rax
	addq	$4, %rax
	movq	%rax, -88(%rbp)
	nop
.L212:
	leaq	-88(%rbp), %rax
	movq	%rax, -32(%rbp)
	movq	-32(%rbp), %rax
	movq	(%rax), %rdx
	leaq	-96(%rbp), %rax
	movq	%rax, -40(%rbp)
	movq	-40(%rbp), %rax
	movq	(%rax), %rax
	cmpq	%rax, %rdx
	setne	%al
	testb	%al, %al
	jne	.L218
	movq	-64(%rbp), %rax
	addq	$24, %rax
	movq	%rax, -64(%rbp)
	nop
.L210:
	leaq	-64(%rbp), %rax
	movq	%rax, -48(%rbp)
	movq	-48(%rbp), %rax
	movq	(%rax), %rdx
	leaq	-72(%rbp), %rax
	movq	%rax, -56(%rbp)
	movq	-56(%rbp), %rax
	movq	(%rax), %rax
	cmpq	%rax, %rdx
	setne	%al
	testb	%al, %al
	jne	.L223
	nop
	nop
	subq	$-128, %rsp
	popq	%rbp
	ret
	.seh_endproc
	.section	.text$_ZN7Feature18normalize_other_idEiii,"x"
	.linkonce discard
	.globl	_ZN7Feature18normalize_other_idEiii
	.def	_ZN7Feature18normalize_other_idEiii;	.scl	2;	.type	32;	.endef
	.seh_proc	_ZN7Feature18normalize_other_idEiii
_ZN7Feature18normalize_other_idEiii:
.LFB10675:
	pushq	%rbp
	.seh_pushreg	%rbp
	subq	$64, %rsp
	.seh_stackalloc	64
	leaq	48(%rsp), %rbp
	.seh_setframe	%rbp, 48
	movups	%xmm6, 0(%rbp)
	.seh_savexmm	%xmm6, 48
	.seh_endprologue
	movl	%ecx, 32(%rbp)
	movl	%edx, 40(%rbp)
	movl	%r8d, 48(%rbp)
	movl	32(%rbp), %eax
	subl	48(%rbp), %eax
	addl	$1, %eax
	pxor	%xmm6, %xmm6
	cvtsi2ssl	%eax, %xmm6
	movl	$1, -12(%rbp)
	leaq	40(%rbp), %rdx
	leaq	-12(%rbp), %rax
	movq	%rax, %rcx
	call	_ZSt3maxIiERKT_S2_S2_
	movl	(%rax), %eax
	pxor	%xmm1, %xmm1
	cvtsi2ssl	%eax, %xmm1
	divss	%xmm1, %xmm6
	movaps	%xmm6, %xmm0
	movss	%xmm0, -16(%rbp)
	movss	.LC10(%rip), %xmm0
	movss	%xmm0, -8(%rbp)
	pxor	%xmm0, %xmm0
	movss	%xmm0, -4(%rbp)
	leaq	-8(%rbp), %rcx
	leaq	-4(%rbp), %rdx
	leaq	-16(%rbp), %rax
	movq	%rcx, %r8
	movq	%rax, %rcx
	call	_ZSt5clampIfERKT_S2_S2_S2_
	movss	(%rax), %xmm0
	movups	0(%rbp), %xmm6
	addq	$64, %rsp
	popq	%rbp
	ret
	.seh_endproc
	.section .rdata,"dr"
.LC11:
	.ascii "view is empty\0"
.LC12:
	.ascii "view is not a rectangle\0"
	.align 8
.LC13:
	.ascii "center cell must be self head (+self_id)\0"
	.section	.text$_ZN7Feature14check_and_initEv,"x"
	.linkonce discard
	.align 2
	.globl	_ZN7Feature14check_and_initEv
	.def	_ZN7Feature14check_and_initEv;	.scl	2;	.type	32;	.endef
	.seh_proc	_ZN7Feature14check_and_initEv
_ZN7Feature14check_and_initEv:
.LFB10676:
	pushq	%rbp
	.seh_pushreg	%rbp
	pushq	%rsi
	.seh_pushreg	%rsi
	pushq	%rbx
	.seh_pushreg	%rbx
	subq	$288, %rsp
	.seh_stackalloc	288
	leaq	128(%rsp), %rbp
	.seh_setframe	%rbp, 128
	.seh_endprologue
	movq	%rcx, 192(%rbp)
	movq	192(%rbp), %rax
	movq	%rax, %rcx
	call	_ZNKSt6vectorIS_IiSaIiEESaIS1_EE5emptyEv
	testb	%al, %al
	jne	.L227
	movq	192(%rbp), %rax
	movl	$0, %edx
	movq	%rax, %rcx
	call	_ZNSt6vectorIS_IiSaIiEESaIS1_EEixEy
	movq	%rax, %rcx
	call	_ZNKSt6vectorIiSaIiEE5emptyEv
	testb	%al, %al
	je	.L228
.L227:
	movl	$1, %eax
	jmp	.L229
.L228:
	movl	$0, %eax
.L229:
	testb	%al, %al
	je	.L230
	movl	$16, %ecx
	call	__cxa_allocate_exception
	movq	%rax, %rbx
	leaq	.LC11(%rip), %rax
	movq	%rax, %rdx
	movq	%rbx, %rcx
.LEHB32:
	call	_ZNSt16invalid_argumentC1EPKc
.LEHE32:
	movq	.refptr._ZNSt16invalid_argumentD1Ev(%rip), %rdx
	leaq	_ZTISt16invalid_argument(%rip), %rax
	movq	%rdx, %r8
	movq	%rax, %rdx
	movq	%rbx, %rcx
.LEHB33:
	call	__cxa_throw
.LEHE33:
.L230:
	movq	192(%rbp), %rax
	movq	%rax, %rcx
	call	_ZNKSt6vectorIS_IiSaIiEESaIS1_EE4sizeEv
	movl	%eax, %edx
	movq	192(%rbp), %rax
	movl	%edx, 24(%rax)
	movq	192(%rbp), %rax
	movl	$0, %edx
	movq	%rax, %rcx
	call	_ZNSt6vectorIS_IiSaIiEESaIS1_EEixEy
	movq	%rax, %rcx
	call	_ZNKSt6vectorIiSaIiEE4sizeEv
	movl	%eax, %edx
	movq	192(%rbp), %rax
	movl	%edx, 28(%rax)
	movq	192(%rbp), %rax
	movq	%rax, 152(%rbp)
	movq	152(%rbp), %rax
	movq	%rax, %rcx
	call	_ZNSt6vectorIS_IiSaIiEESaIS1_EE5beginEv
	movq	%rax, -88(%rbp)
	movq	152(%rbp), %rax
	movq	%rax, %rcx
	call	_ZNSt6vectorIS_IiSaIiEESaIS1_EE3endEv
	movq	%rax, -96(%rbp)
	jmp	.L231
.L238:
	movq	-88(%rbp), %rax
	movq	%rax, 128(%rbp)
	movq	128(%rbp), %rax
	movq	%rax, %rcx
	call	_ZNKSt6vectorIiSaIiEE4sizeEv
	movl	%eax, %edx
	movq	192(%rbp), %rax
	movl	28(%rax), %eax
	cmpl	%eax, %edx
	setne	%al
	testb	%al, %al
	je	.L233
	movl	$16, %ecx
	call	__cxa_allocate_exception
	movq	%rax, %rbx
	leaq	.LC12(%rip), %rax
	movq	%rax, %rdx
	movq	%rbx, %rcx
.LEHB34:
	call	_ZNSt16invalid_argumentC1EPKc
.LEHE34:
	movq	.refptr._ZNSt16invalid_argumentD1Ev(%rip), %rdx
	leaq	_ZTISt16invalid_argument(%rip), %rax
	movq	%rdx, %r8
	movq	%rax, %rdx
	movq	%rbx, %rcx
.LEHB35:
	call	__cxa_throw
.LEHE35:
.L233:
	movq	-88(%rbp), %rax
	addq	$24, %rax
	movq	%rax, -88(%rbp)
	nop
.L231:
	leaq	-88(%rbp), %rax
	movq	%rax, 120(%rbp)
	movq	120(%rbp), %rax
	movq	(%rax), %rdx
	leaq	-96(%rbp), %rax
	movq	%rax, 112(%rbp)
	movq	112(%rbp), %rax
	movq	(%rax), %rax
	cmpq	%rax, %rdx
	setne	%al
	testb	%al, %al
	jne	.L238
	movq	192(%rbp), %rax
	movl	24(%rax), %eax
	movl	%eax, %edx
	shrl	$31, %edx
	addl	%edx, %eax
	sarl	%eax
	movl	%eax, 148(%rbp)
	movq	192(%rbp), %rax
	movl	28(%rax), %eax
	movl	%eax, %edx
	shrl	$31, %edx
	addl	%edx, %eax
	sarl	%eax
	movl	%eax, 144(%rbp)
	movq	192(%rbp), %rax
	movl	148(%rbp), %edx
	movslq	%edx, %rdx
	movq	%rax, %rcx
	call	_ZNSt6vectorIS_IiSaIiEESaIS1_EEixEy
	movq	%rax, %rcx
	movl	144(%rbp), %eax
	cltq
	movq	%rax, %rdx
	call	_ZNSt6vectorIiSaIiEEixEy
	movl	(%rax), %eax
	movl	%eax, 140(%rbp)
	cmpl	$0, 140(%rbp)
	jg	.L239
	movl	$16, %ecx
	call	__cxa_allocate_exception
	movq	%rax, %rbx
	leaq	.LC13(%rip), %rax
	movq	%rax, %rdx
	movq	%rbx, %rcx
.LEHB36:
	call	_ZNSt16invalid_argumentC1EPKc
.LEHE36:
	movq	.refptr._ZNSt16invalid_argumentD1Ev(%rip), %rdx
	leaq	_ZTISt16invalid_argument(%rip), %rax
	movq	%rdx, %r8
	movq	%rax, %rdx
	movq	%rbx, %rcx
.LEHB37:
	call	__cxa_throw
.L239:
	movq	192(%rbp), %rax
	movl	140(%rbp), %edx
	movl	%edx, 32(%rax)
	movq	192(%rbp), %rax
	movl	28(%rax), %ecx
	movq	192(%rbp), %rax
	movl	24(%rax), %edx
	leaq	-80(%rbp), %rax
	movl	%ecx, %r8d
	movq	%rax, %rcx
	call	_ZN7Feature9zero_gridEii
	movq	192(%rbp), %rax
	leaq	72(%rax), %rcx
	leaq	-80(%rbp), %rax
	movq	%rax, %rdx
	call	_ZNSt6vectorIS_IfSaIfEESaIS1_EEaSEOS3_
	leaq	-80(%rbp), %rax
	movq	%rax, %rcx
	call	_ZNSt6vectorIS_IfSaIfEESaIS1_EED1Ev
	movq	192(%rbp), %rax
	movl	28(%rax), %ecx
	movq	192(%rbp), %rax
	movl	24(%rax), %edx
	leaq	-48(%rbp), %rax
	movl	%ecx, %r8d
	movq	%rax, %rcx
	call	_ZN7Feature9zero_gridEii
	movq	192(%rbp), %rax
	leaq	96(%rax), %rcx
	leaq	-48(%rbp), %rax
	movq	%rax, %rdx
	call	_ZNSt6vectorIS_IfSaIfEESaIS1_EEaSEOS3_
	leaq	-48(%rbp), %rax
	movq	%rax, %rcx
	call	_ZNSt6vectorIS_IfSaIfEESaIS1_EED1Ev
	movq	192(%rbp), %rax
	movl	28(%rax), %ecx
	movq	192(%rbp), %rax
	movl	24(%rax), %edx
	leaq	-16(%rbp), %rax
	movl	%ecx, %r8d
	movq	%rax, %rcx
	call	_ZN7Feature9zero_gridEii
	movq	192(%rbp), %rax
	leaq	120(%rax), %rcx
	leaq	-16(%rbp), %rax
	movq	%rax, %rdx
	call	_ZNSt6vectorIS_IfSaIfEESaIS1_EEaSEOS3_
	leaq	-16(%rbp), %rax
	movq	%rax, %rcx
	call	_ZNSt6vectorIS_IfSaIfEESaIS1_EED1Ev
	movq	192(%rbp), %rax
	movl	28(%rax), %ecx
	movq	192(%rbp), %rax
	movl	24(%rax), %edx
	leaq	16(%rbp), %rax
	movl	%ecx, %r8d
	movq	%rax, %rcx
	call	_ZN7Feature9zero_gridEii
	movq	192(%rbp), %rax
	leaq	144(%rax), %rcx
	leaq	16(%rbp), %rax
	movq	%rax, %rdx
	call	_ZNSt6vectorIS_IfSaIfEESaIS1_EEaSEOS3_
	leaq	16(%rbp), %rax
	movq	%rax, %rcx
	call	_ZNSt6vectorIS_IfSaIfEESaIS1_EED1Ev
	movq	192(%rbp), %rax
	movl	28(%rax), %ecx
	movq	192(%rbp), %rax
	movl	24(%rax), %edx
	leaq	48(%rbp), %rax
	movl	%ecx, %r8d
	movq	%rax, %rcx
	call	_ZN7Feature9zero_gridEii
	movq	192(%rbp), %rax
	leaq	168(%rax), %rcx
	leaq	48(%rbp), %rax
	movq	%rax, %rdx
	call	_ZNSt6vectorIS_IfSaIfEESaIS1_EEaSEOS3_
	leaq	48(%rbp), %rax
	movq	%rax, %rcx
	call	_ZNSt6vectorIS_IfSaIfEESaIS1_EED1Ev
	movq	192(%rbp), %rax
	movl	28(%rax), %ecx
	movq	192(%rbp), %rax
	movl	24(%rax), %edx
	leaq	80(%rbp), %rax
	movl	%ecx, %r8d
	movq	%rax, %rcx
	call	_ZN7Feature9zero_gridEii
	movq	192(%rbp), %rax
	leaq	192(%rax), %rcx
	leaq	80(%rbp), %rax
	movq	%rax, %rdx
	call	_ZNSt6vectorIS_IfSaIfEESaIS1_EEaSEOS3_
	leaq	80(%rbp), %rax
	movq	%rax, %rcx
	call	_ZNSt6vectorIS_IfSaIfEESaIS1_EED1Ev
	jmp	.L246
.L243:
	movq	%rax, %rsi
	movq	%rbx, %rcx
	call	__cxa_free_exception
	movq	%rsi, %rax
	movq	%rax, %rcx
	call	_Unwind_Resume
.L244:
	movq	%rax, %rsi
	movq	%rbx, %rcx
	call	__cxa_free_exception
	movq	%rsi, %rax
	movq	%rax, %rcx
	call	_Unwind_Resume
.L245:
	movq	%rax, %rsi
	movq	%rbx, %rcx
	call	__cxa_free_exception
	movq	%rsi, %rax
	movq	%rax, %rcx
	call	_Unwind_Resume
	nop
.LEHE37:
.L246:
	addq	$288, %rsp
	popq	%rbx
	popq	%rsi
	popq	%rbp
	ret
	.seh_handler	__gxx_personality_seh0, @unwind, @except
	.seh_handlerdata
.LLSDA10676:
	.byte	0xff
	.byte	0xff
	.byte	0x1
	.uleb128 .LLSDACSE10676-.LLSDACSB10676
.LLSDACSB10676:
	.uleb128 .LEHB32-.LFB10676
	.uleb128 .LEHE32-.LEHB32
	.uleb128 .L243-.LFB10676
	.uleb128 0
	.uleb128 .LEHB33-.LFB10676
	.uleb128 .LEHE33-.LEHB33
	.uleb128 0
	.uleb128 0
	.uleb128 .LEHB34-.LFB10676
	.uleb128 .LEHE34-.LEHB34
	.uleb128 .L244-.LFB10676
	.uleb128 0
	.uleb128 .LEHB35-.LFB10676
	.uleb128 .LEHE35-.LEHB35
	.uleb128 0
	.uleb128 0
	.uleb128 .LEHB36-.LFB10676
	.uleb128 .LEHE36-.LEHB36
	.uleb128 .L245-.LFB10676
	.uleb128 0
	.uleb128 .LEHB37-.LFB10676
	.uleb128 .LEHE37-.LEHB37
	.uleb128 0
	.uleb128 0
.LLSDACSE10676:
	.section	.text$_ZN7Feature14check_and_initEv,"x"
	.linkonce discard
	.seh_endproc
	.section	.text$_ZN7Feature14build_channelsEv,"x"
	.linkonce discard
	.align 2
	.globl	_ZN7Feature14build_channelsEv
	.def	_ZN7Feature14build_channelsEv;	.scl	2;	.type	32;	.endef
	.seh_proc	_ZN7Feature14build_channelsEv
_ZN7Feature14build_channelsEv:
.LFB10683:
	pushq	%rbp
	.seh_pushreg	%rbp
	pushq	%rbx
	.seh_pushreg	%rbx
	subq	$56, %rsp
	.seh_stackalloc	56
	leaq	48(%rsp), %rbp
	.seh_setframe	%rbp, 48
	.seh_endprologue
	movq	%rcx, 32(%rbp)
	movl	$0, -4(%rbp)
	jmp	.L248
.L257:
	movl	$0, -8(%rbp)
	jmp	.L249
.L256:
	movq	32(%rbp), %rax
	movl	-4(%rbp), %edx
	movslq	%edx, %rdx
	movq	%rax, %rcx
	call	_ZNSt6vectorIS_IiSaIiEESaIS1_EEixEy
	movq	%rax, %rcx
	movl	-8(%rbp), %eax
	cltq
	movq	%rax, %rdx
	call	_ZNSt6vectorIiSaIiEEixEy
	movl	(%rax), %eax
	movl	%eax, -12(%rbp)
	cmpl	$-1, -12(%rbp)
	jne	.L250
	movq	32(%rbp), %rax
	leaq	72(%rax), %rcx
	movl	-4(%rbp), %eax
	cltq
	movq	%rax, %rdx
	call	_ZNSt6vectorIS_IfSaIfEESaIS1_EEixEy
	movq	%rax, %rcx
	movl	-8(%rbp), %eax
	cltq
	movq	%rax, %rdx
	call	_ZNSt6vectorIfSaIfEEixEy
	movss	.LC10(%rip), %xmm0
	movss	%xmm0, (%rax)
	jmp	.L251
.L250:
	cmpl	$-2, -12(%rbp)
	jne	.L252
	movq	32(%rbp), %rax
	leaq	96(%rax), %rcx
	movl	-4(%rbp), %eax
	cltq
	movq	%rax, %rdx
	call	_ZNSt6vectorIS_IfSaIfEESaIS1_EEixEy
	movq	%rax, %rcx
	movl	-8(%rbp), %eax
	cltq
	movq	%rax, %rdx
	call	_ZNSt6vectorIfSaIfEEixEy
	movss	.LC10(%rip), %xmm0
	movss	%xmm0, (%rax)
	jmp	.L251
.L252:
	movq	32(%rbp), %rax
	movl	32(%rax), %eax
	negl	%eax
	cmpl	%eax, -12(%rbp)
	jne	.L253
	movq	32(%rbp), %rax
	leaq	120(%rax), %rcx
	movl	-4(%rbp), %eax
	cltq
	movq	%rax, %rdx
	call	_ZNSt6vectorIS_IfSaIfEESaIS1_EEixEy
	movq	%rax, %rcx
	movl	-8(%rbp), %eax
	cltq
	movq	%rax, %rdx
	call	_ZNSt6vectorIfSaIfEEixEy
	movss	.LC10(%rip), %xmm0
	movss	%xmm0, (%rax)
	jmp	.L251
.L253:
	movq	32(%rbp), %rax
	movl	32(%rax), %eax
	cmpl	%eax, -12(%rbp)
	jne	.L254
	movq	32(%rbp), %rax
	leaq	144(%rax), %rcx
	movl	-4(%rbp), %eax
	cltq
	movq	%rax, %rdx
	call	_ZNSt6vectorIS_IfSaIfEESaIS1_EEixEy
	movq	%rax, %rcx
	movl	-8(%rbp), %eax
	cltq
	movq	%rax, %rdx
	call	_ZNSt6vectorIfSaIfEEixEy
	movss	.LC10(%rip), %xmm0
	movss	%xmm0, (%rax)
	jmp	.L251
.L254:
	cmpl	$-9, -12(%rbp)
	jge	.L255
	movl	-12(%rbp), %eax
	negl	%eax
	movl	%eax, -16(%rbp)
	movq	32(%rbp), %rax
	movl	48(%rax), %ecx
	movq	32(%rbp), %rax
	movl	40(%rax), %edx
	movl	-16(%rbp), %eax
	movl	%ecx, %r8d
	movl	%eax, %ecx
	call	_ZN7Feature18normalize_other_idEiii
	movd	%xmm0, %ebx
	movq	32(%rbp), %rax
	leaq	168(%rax), %rcx
	movl	-4(%rbp), %eax
	cltq
	movq	%rax, %rdx
	call	_ZNSt6vectorIS_IfSaIfEESaIS1_EEixEy
	movq	%rax, %rcx
	movl	-8(%rbp), %eax
	cltq
	movq	%rax, %rdx
	call	_ZNSt6vectorIfSaIfEEixEy
	movl	%ebx, (%rax)
	jmp	.L251
.L255:
	cmpl	$0, -12(%rbp)
	jle	.L251
	movq	32(%rbp), %rax
	movl	48(%rax), %ecx
	movq	32(%rbp), %rax
	movl	40(%rax), %edx
	movl	-12(%rbp), %eax
	movl	%ecx, %r8d
	movl	%eax, %ecx
	call	_ZN7Feature18normalize_other_idEiii
	movd	%xmm0, %ebx
	movq	32(%rbp), %rax
	leaq	192(%rax), %rcx
	movl	-4(%rbp), %eax
	cltq
	movq	%rax, %rdx
	call	_ZNSt6vectorIS_IfSaIfEESaIS1_EEixEy
	movq	%rax, %rcx
	movl	-8(%rbp), %eax
	cltq
	movq	%rax, %rdx
	call	_ZNSt6vectorIfSaIfEEixEy
	movl	%ebx, (%rax)
.L251:
	addl	$1, -8(%rbp)
.L249:
	movq	32(%rbp), %rax
	movl	28(%rax), %eax
	cmpl	%eax, -8(%rbp)
	jl	.L256
	addl	$1, -4(%rbp)
.L248:
	movq	32(%rbp), %rax
	movl	24(%rax), %eax
	cmpl	%eax, -4(%rbp)
	jl	.L257
	nop
	nop
	addq	$56, %rsp
	popq	%rbx
	popq	%rbp
	ret
	.seh_endproc
	.section	.text$_ZSt3maxIiERKT_S2_S2_,"x"
	.linkonce discard
	.globl	_ZSt3maxIiERKT_S2_S2_
	.def	_ZSt3maxIiERKT_S2_S2_;	.scl	2;	.type	32;	.endef
	.seh_proc	_ZSt3maxIiERKT_S2_S2_
_ZSt3maxIiERKT_S2_S2_:
.LFB10685:
	pushq	%rbp
	.seh_pushreg	%rbp
	movq	%rsp, %rbp
	.seh_setframe	%rbp, 0
	.seh_endprologue
	movq	%rcx, 16(%rbp)
	movq	%rdx, 24(%rbp)
	movq	16(%rbp), %rax
	movl	(%rax), %edx
	movq	24(%rbp), %rax
	movl	(%rax), %eax
	cmpl	%eax, %edx
	jge	.L259
	movq	24(%rbp), %rax
	jmp	.L260
.L259:
	movq	16(%rbp), %rax
.L260:
	popq	%rbp
	ret
	.seh_endproc
	.section .rdata,"dr"
.LC14:
	.ascii "max_snakes must be > 0\0"
.LC15:
	.ascii "max_len must be > 0\0"
	.section	.text$_ZN7FeatureC1ERKSt6vectorIS0_IiSaIiEESaIS2_EEiiiiiiii,"x"
	.linkonce discard
	.align 2
	.globl	_ZN7FeatureC1ERKSt6vectorIS0_IiSaIiEESaIS2_EEiiiiiiii
	.def	_ZN7FeatureC1ERKSt6vectorIS0_IiSaIiEESaIS2_EEiiiiiiii;	.scl	2;	.type	32;	.endef
	.seh_proc	_ZN7FeatureC1ERKSt6vectorIS0_IiSaIiEESaIS2_EEiiiiiiii
_ZN7FeatureC1ERKSt6vectorIS0_IiSaIiEESaIS2_EEiiiiiiii:
.LFB10687:
	pushq	%rbp
	.seh_pushreg	%rbp
	pushq	%rsi
	.seh_pushreg	%rsi
	pushq	%rbx
	.seh_pushreg	%rbx
	subq	$96, %rsp
	.seh_stackalloc	96
	leaq	96(%rsp), %rbp
	.seh_setframe	%rbp, 96
	.seh_endprologue
	movq	%rcx, 32(%rbp)
	movq	%rdx, 40(%rbp)
	movl	%r8d, 48(%rbp)
	movl	%r9d, 56(%rbp)
	movq	32(%rbp), %rax
	movq	40(%rbp), %rdx
	movq	%rax, %rcx
.LEHB38:
	call	_ZNSt6vectorIS_IiSaIiEESaIS1_EEC1ERKS3_
.LEHE38:
	movq	32(%rbp), %rax
	movl	$0, 24(%rax)
	movq	32(%rbp), %rax
	movl	$0, 28(%rax)
	movq	32(%rbp), %rax
	movl	$-1, 32(%rax)
	movq	32(%rbp), %rax
	movl	48(%rbp), %edx
	movl	%edx, 36(%rax)
	movq	32(%rbp), %rax
	movl	56(%rbp), %edx
	movl	%edx, 40(%rax)
	movq	32(%rbp), %rax
	movl	64(%rbp), %edx
	movl	%edx, 44(%rax)
	movq	32(%rbp), %rax
	movl	104(%rbp), %edx
	movl	%edx, 48(%rax)
	movq	32(%rbp), %rax
	pxor	%xmm0, %xmm0
	movss	%xmm0, 52(%rax)
	movq	32(%rbp), %rax
	movl	72(%rbp), %edx
	movl	%edx, 56(%rax)
	movq	32(%rbp), %rax
	pxor	%xmm0, %xmm0
	movss	%xmm0, 60(%rax)
	movq	32(%rbp), %rax
	pxor	%xmm0, %xmm0
	movss	%xmm0, 64(%rax)
	movq	32(%rbp), %rax
	addq	$72, %rax
	movq	%rax, %rcx
	call	_ZNSt6vectorIS_IfSaIfEESaIS1_EEC1Ev
	movq	32(%rbp), %rax
	addq	$96, %rax
	movq	%rax, %rcx
	call	_ZNSt6vectorIS_IfSaIfEESaIS1_EEC1Ev
	movq	32(%rbp), %rax
	addq	$120, %rax
	movq	%rax, %rcx
	call	_ZNSt6vectorIS_IfSaIfEESaIS1_EEC1Ev
	movq	32(%rbp), %rax
	addq	$144, %rax
	movq	%rax, %rcx
	call	_ZNSt6vectorIS_IfSaIfEESaIS1_EEC1Ev
	movq	32(%rbp), %rax
	addq	$168, %rax
	movq	%rax, %rcx
	call	_ZNSt6vectorIS_IfSaIfEESaIS1_EEC1Ev
	movq	32(%rbp), %rax
	addq	$192, %rax
	movq	%rax, %rcx
	call	_ZNSt6vectorIS_IfSaIfEESaIS1_EEC1Ev
	movq	32(%rbp), %rax
	movl	40(%rax), %eax
	testl	%eax, %eax
	jg	.L262
	movl	$16, %ecx
	call	__cxa_allocate_exception
	movq	%rax, %rbx
	leaq	.LC14(%rip), %rax
	movq	%rax, %rdx
	movq	%rbx, %rcx
.LEHB39:
	call	_ZNSt16invalid_argumentC1EPKc
.LEHE39:
	movq	.refptr._ZNSt16invalid_argumentD1Ev(%rip), %rdx
	leaq	_ZTISt16invalid_argument(%rip), %rax
	movq	%rdx, %r8
	movq	%rax, %rdx
	movq	%rbx, %rcx
.LEHB40:
	call	__cxa_throw
.LEHE40:
.L262:
	movq	32(%rbp), %rax
	movl	44(%rax), %eax
	testl	%eax, %eax
	jg	.L263
	movl	$16, %ecx
	call	__cxa_allocate_exception
	movq	%rax, %rbx
	leaq	.LC15(%rip), %rax
	movq	%rax, %rdx
	movq	%rbx, %rcx
.LEHB41:
	call	_ZNSt16invalid_argumentC1EPKc
.LEHE41:
	movq	.refptr._ZNSt16invalid_argumentD1Ev(%rip), %rdx
	leaq	_ZTISt16invalid_argument(%rip), %rax
	movq	%rdx, %r8
	movq	%rax, %rdx
	movq	%rbx, %rcx
.LEHB42:
	call	__cxa_throw
.L263:
	movl	$3, -52(%rbp)
	movl	$0, -48(%rbp)
	movq	32(%rbp), %rax
	leaq	56(%rax), %rcx
	leaq	-52(%rbp), %rdx
	leaq	-48(%rbp), %rax
	movq	%rdx, %r8
	movq	%rax, %rdx
	call	_ZSt5clampIiERKT_S2_S2_S2_
	movl	(%rax), %edx
	movq	32(%rbp), %rax
	movl	%edx, 56(%rax)
	movl	$1, -44(%rbp)
	leaq	96(%rbp), %rdx
	leaq	-44(%rbp), %rax
	movq	%rax, %rcx
	call	_ZSt3maxIiERKT_S2_S2_
	movl	(%rax), %eax
	movl	%eax, -4(%rbp)
	movss	.LC10(%rip), %xmm0
	movss	%xmm0, -40(%rbp)
	pxor	%xmm0, %xmm0
	movss	%xmm0, -36(%rbp)
	pxor	%xmm0, %xmm0
	cvtsi2ssl	80(%rbp), %xmm0
	pxor	%xmm1, %xmm1
	cvtsi2ssl	-4(%rbp), %xmm1
	divss	%xmm1, %xmm0
	movss	%xmm0, -32(%rbp)
	leaq	-40(%rbp), %rcx
	leaq	-36(%rbp), %rdx
	leaq	-32(%rbp), %rax
	movq	%rcx, %r8
	movq	%rax, %rcx
	call	_ZSt5clampIfERKT_S2_S2_S2_
	movss	(%rax), %xmm0
	movq	32(%rbp), %rax
	movss	%xmm0, 60(%rax)
	movss	.LC10(%rip), %xmm0
	movss	%xmm0, -28(%rbp)
	pxor	%xmm0, %xmm0
	movss	%xmm0, -24(%rbp)
	pxor	%xmm0, %xmm0
	cvtsi2ssl	88(%rbp), %xmm0
	pxor	%xmm1, %xmm1
	cvtsi2ssl	-4(%rbp), %xmm1
	divss	%xmm1, %xmm0
	movss	%xmm0, -20(%rbp)
	leaq	-28(%rbp), %rcx
	leaq	-24(%rbp), %rdx
	leaq	-20(%rbp), %rax
	movq	%rcx, %r8
	movq	%rax, %rcx
	call	_ZSt5clampIfERKT_S2_S2_S2_
	movss	(%rax), %xmm0
	movq	32(%rbp), %rax
	movss	%xmm0, 64(%rax)
	movss	.LC10(%rip), %xmm0
	movss	%xmm0, -16(%rbp)
	pxor	%xmm0, %xmm0
	movss	%xmm0, -12(%rbp)
	movq	32(%rbp), %rax
	movl	36(%rax), %eax
	pxor	%xmm0, %xmm0
	cvtsi2ssl	%eax, %xmm0
	movq	32(%rbp), %rax
	movl	44(%rax), %eax
	pxor	%xmm1, %xmm1
	cvtsi2ssl	%eax, %xmm1
	divss	%xmm1, %xmm0
	movss	%xmm0, -8(%rbp)
	leaq	-16(%rbp), %rcx
	leaq	-12(%rbp), %rdx
	leaq	-8(%rbp), %rax
	movq	%rcx, %r8
	movq	%rax, %rcx
	call	_ZSt5clampIfERKT_S2_S2_S2_
	movss	(%rax), %xmm0
	movq	32(%rbp), %rax
	movss	%xmm0, 52(%rax)
	movq	32(%rbp), %rax
	movq	%rax, %rcx
	call	_ZN7Feature14check_and_initEv
	movq	32(%rbp), %rax
	movq	%rax, %rcx
	call	_ZN7Feature14build_channelsEv
.LEHE42:
	jmp	.L270
.L267:
	movq	%rax, %rsi
	movq	%rbx, %rcx
	call	__cxa_free_exception
	movq	%rsi, %rbx
	jmp	.L265
.L269:
	movq	%rax, %rsi
	movq	%rbx, %rcx
	call	__cxa_free_exception
	movq	%rsi, %rbx
	jmp	.L265
.L268:
	movq	%rax, %rbx
.L265:
	movq	32(%rbp), %rax
	addq	$192, %rax
	movq	%rax, %rcx
	call	_ZNSt6vectorIS_IfSaIfEESaIS1_EED1Ev
	movq	32(%rbp), %rax
	addq	$168, %rax
	movq	%rax, %rcx
	call	_ZNSt6vectorIS_IfSaIfEESaIS1_EED1Ev
	movq	32(%rbp), %rax
	addq	$144, %rax
	movq	%rax, %rcx
	call	_ZNSt6vectorIS_IfSaIfEESaIS1_EED1Ev
	movq	32(%rbp), %rax
	addq	$120, %rax
	movq	%rax, %rcx
	call	_ZNSt6vectorIS_IfSaIfEESaIS1_EED1Ev
	movq	32(%rbp), %rax
	addq	$96, %rax
	movq	%rax, %rcx
	call	_ZNSt6vectorIS_IfSaIfEESaIS1_EED1Ev
	movq	32(%rbp), %rax
	addq	$72, %rax
	movq	%rax, %rcx
	call	_ZNSt6vectorIS_IfSaIfEESaIS1_EED1Ev
	movq	32(%rbp), %rax
	movq	%rax, %rcx
	call	_ZNSt6vectorIS_IiSaIiEESaIS1_EED1Ev
	movq	%rbx, %rax
	movq	%rax, %rcx
.LEHB43:
	call	_Unwind_Resume
	nop
.LEHE43:
.L270:
	addq	$96, %rsp
	popq	%rbx
	popq	%rsi
	popq	%rbp
	ret
	.seh_handler	__gxx_personality_seh0, @unwind, @except
	.seh_handlerdata
.LLSDA10687:
	.byte	0xff
	.byte	0xff
	.byte	0x1
	.uleb128 .LLSDACSE10687-.LLSDACSB10687
.LLSDACSB10687:
	.uleb128 .LEHB38-.LFB10687
	.uleb128 .LEHE38-.LEHB38
	.uleb128 0
	.uleb128 0
	.uleb128 .LEHB39-.LFB10687
	.uleb128 .LEHE39-.LEHB39
	.uleb128 .L267-.LFB10687
	.uleb128 0
	.uleb128 .LEHB40-.LFB10687
	.uleb128 .LEHE40-.LEHB40
	.uleb128 .L268-.LFB10687
	.uleb128 0
	.uleb128 .LEHB41-.LFB10687
	.uleb128 .LEHE41-.LEHB41
	.uleb128 .L269-.LFB10687
	.uleb128 0
	.uleb128 .LEHB42-.LFB10687
	.uleb128 .LEHE42-.LEHB42
	.uleb128 .L268-.LFB10687
	.uleb128 0
	.uleb128 .LEHB43-.LFB10687
	.uleb128 .LEHE43-.LEHB43
	.uleb128 0
	.uleb128 0
.LLSDACSE10687:
	.section	.text$_ZN7FeatureC1ERKSt6vectorIS0_IiSaIiEESaIS2_EEiiiiiiii,"x"
	.linkonce discard
	.seh_endproc
	.section	.text$_ZNK7Feature12ToModelInputEv,"x"
	.linkonce discard
	.align 2
	.globl	_ZNK7Feature12ToModelInputEv
	.def	_ZNK7Feature12ToModelInputEv;	.scl	2;	.type	32;	.endef
	.seh_proc	_ZNK7Feature12ToModelInputEv
_ZNK7Feature12ToModelInputEv:
.LFB10688:
	pushq	%rbp
	.seh_pushreg	%rbp
	pushq	%rbx
	.seh_pushreg	%rbx
	subq	$56, %rsp
	.seh_stackalloc	56
	leaq	48(%rsp), %rbp
	.seh_setframe	%rbp, 48
	.seh_endprologue
	movq	%rcx, 32(%rbp)
	movq	%rdx, 40(%rbp)
	movq	32(%rbp), %rax
	movq	%rax, %rcx
	call	_ZNSt6vectorIfSaIfEEC1Ev
	movq	40(%rbp), %rax
	movl	24(%rax), %eax
	movslq	%eax, %rdx
	movq	40(%rbp), %rax
	movl	28(%rax), %eax
	cltq
	imulq	%rax, %rdx
	movq	%rdx, %rax
	addq	%rax, %rax
	addq	%rdx, %rax
	addq	%rax, %rax
	leaq	7(%rax), %rdx
	movq	32(%rbp), %rax
	movq	%rax, %rcx
.LEHB44:
	call	_ZNSt6vectorIfSaIfEE7reserveEy
	movq	40(%rbp), %rax
	leaq	72(%rax), %rcx
	movq	32(%rbp), %rax
	movq	%rax, %rdx
	call	_ZN7Feature14append_channelERKSt6vectorIS0_IfSaIfEESaIS2_EERS2_
	movq	40(%rbp), %rax
	leaq	96(%rax), %rcx
	movq	32(%rbp), %rax
	movq	%rax, %rdx
	call	_ZN7Feature14append_channelERKSt6vectorIS0_IfSaIfEESaIS2_EERS2_
	movq	40(%rbp), %rax
	leaq	120(%rax), %rcx
	movq	32(%rbp), %rax
	movq	%rax, %rdx
	call	_ZN7Feature14append_channelERKSt6vectorIS0_IfSaIfEESaIS2_EERS2_
	movq	40(%rbp), %rax
	leaq	144(%rax), %rcx
	movq	32(%rbp), %rax
	movq	%rax, %rdx
	call	_ZN7Feature14append_channelERKSt6vectorIS0_IfSaIfEESaIS2_EERS2_
	movq	40(%rbp), %rax
	leaq	168(%rax), %rcx
	movq	32(%rbp), %rax
	movq	%rax, %rdx
	call	_ZN7Feature14append_channelERKSt6vectorIS0_IfSaIfEESaIS2_EERS2_
	movq	40(%rbp), %rax
	leaq	192(%rax), %rcx
	movq	32(%rbp), %rax
	movq	%rax, %rdx
	call	_ZN7Feature14append_channelERKSt6vectorIS0_IfSaIfEESaIS2_EERS2_
	movq	40(%rbp), %rax
	leaq	52(%rax), %rdx
	movq	32(%rbp), %rax
	movq	%rax, %rcx
	call	_ZNSt6vectorIfSaIfEE9push_backERKf
	movq	40(%rbp), %rax
	leaq	60(%rax), %rdx
	movq	32(%rbp), %rax
	movq	%rax, %rcx
	call	_ZNSt6vectorIfSaIfEE9push_backERKf
	movq	40(%rbp), %rax
	leaq	64(%rax), %rdx
	movq	32(%rbp), %rax
	movq	%rax, %rcx
	call	_ZNSt6vectorIfSaIfEE9push_backERKf
	movl	$0, -4(%rbp)
	jmp	.L272
.L275:
	movq	40(%rbp), %rax
	movl	56(%rax), %eax
	cmpl	%eax, -4(%rbp)
	jne	.L273
	movss	.LC10(%rip), %xmm0
	jmp	.L274
.L273:
	pxor	%xmm0, %xmm0
.L274:
	movss	%xmm0, -8(%rbp)
	leaq	-8(%rbp), %rdx
	movq	32(%rbp), %rax
	movq	%rax, %rcx
	call	_ZNSt6vectorIfSaIfEE9push_backEOf
.LEHE44:
	addl	$1, -4(%rbp)
.L272:
	cmpl	$3, -4(%rbp)
	jle	.L275
	jmp	.L279
.L278:
	movq	%rax, %rbx
	movq	32(%rbp), %rax
	movq	%rax, %rcx
	call	_ZNSt6vectorIfSaIfEED1Ev
	movq	%rbx, %rax
	movq	%rax, %rcx
.LEHB45:
	call	_Unwind_Resume
.LEHE45:
.L279:
	movq	32(%rbp), %rax
	addq	$56, %rsp
	popq	%rbx
	popq	%rbp
	ret
	.seh_handler	__gxx_personality_seh0, @unwind, @except
	.seh_handlerdata
.LLSDA10688:
	.byte	0xff
	.byte	0xff
	.byte	0x1
	.uleb128 .LLSDACSE10688-.LLSDACSB10688
.LLSDACSB10688:
	.uleb128 .LEHB44-.LFB10688
	.uleb128 .LEHE44-.LEHB44
	.uleb128 .L278-.LFB10688
	.uleb128 0
	.uleb128 .LEHB45-.LFB10688
	.uleb128 .LEHE45-.LEHB45
	.uleb128 0
	.uleb128 0
.LLSDACSE10688:
	.section	.text$_ZNK7Feature12ToModelInputEv,"x"
	.linkonce discard
	.seh_endproc
	.section	.text$_ZNK7Feature4wallEv,"x"
	.linkonce discard
	.align 2
	.globl	_ZNK7Feature4wallEv
	.def	_ZNK7Feature4wallEv;	.scl	2;	.type	32;	.endef
	.seh_proc	_ZNK7Feature4wallEv
_ZNK7Feature4wallEv:
.LFB10689:
	pushq	%rbp
	.seh_pushreg	%rbp
	movq	%rsp, %rbp
	.seh_setframe	%rbp, 0
	.seh_endprologue
	movq	%rcx, 16(%rbp)
	movq	16(%rbp), %rax
	addq	$72, %rax
	popq	%rbp
	ret
	.seh_endproc
	.section	.text$_ZNK7Feature5appleEv,"x"
	.linkonce discard
	.align 2
	.globl	_ZNK7Feature5appleEv
	.def	_ZNK7Feature5appleEv;	.scl	2;	.type	32;	.endef
	.seh_proc	_ZNK7Feature5appleEv
_ZNK7Feature5appleEv:
.LFB10690:
	pushq	%rbp
	.seh_pushreg	%rbp
	movq	%rsp, %rbp
	.seh_setframe	%rbp, 0
	.seh_endprologue
	movq	%rcx, 16(%rbp)
	movq	16(%rbp), %rax
	addq	$96, %rax
	popq	%rbp
	ret
	.seh_endproc
	.section	.text$_ZNK7Feature9self_bodyEv,"x"
	.linkonce discard
	.align 2
	.globl	_ZNK7Feature9self_bodyEv
	.def	_ZNK7Feature9self_bodyEv;	.scl	2;	.type	32;	.endef
	.seh_proc	_ZNK7Feature9self_bodyEv
_ZNK7Feature9self_bodyEv:
.LFB10691:
	pushq	%rbp
	.seh_pushreg	%rbp
	movq	%rsp, %rbp
	.seh_setframe	%rbp, 0
	.seh_endprologue
	movq	%rcx, 16(%rbp)
	movq	16(%rbp), %rax
	addq	$120, %rax
	popq	%rbp
	ret
	.seh_endproc
	.section	.text$_ZNK7Feature9self_headEv,"x"
	.linkonce discard
	.align 2
	.globl	_ZNK7Feature9self_headEv
	.def	_ZNK7Feature9self_headEv;	.scl	2;	.type	32;	.endef
	.seh_proc	_ZNK7Feature9self_headEv
_ZNK7Feature9self_headEv:
.LFB10692:
	pushq	%rbp
	.seh_pushreg	%rbp
	movq	%rsp, %rbp
	.seh_setframe	%rbp, 0
	.seh_endprologue
	movq	%rcx, 16(%rbp)
	movq	16(%rbp), %rax
	addq	$144, %rax
	popq	%rbp
	ret
	.seh_endproc
	.section	.text$_ZNK7Feature10other_bodyEv,"x"
	.linkonce discard
	.align 2
	.globl	_ZNK7Feature10other_bodyEv
	.def	_ZNK7Feature10other_bodyEv;	.scl	2;	.type	32;	.endef
	.seh_proc	_ZNK7Feature10other_bodyEv
_ZNK7Feature10other_bodyEv:
.LFB10693:
	pushq	%rbp
	.seh_pushreg	%rbp
	movq	%rsp, %rbp
	.seh_setframe	%rbp, 0
	.seh_endprologue
	movq	%rcx, 16(%rbp)
	movq	16(%rbp), %rax
	addq	$168, %rax
	popq	%rbp
	ret
	.seh_endproc
	.section	.text$_ZNK7Feature10other_headEv,"x"
	.linkonce discard
	.align 2
	.globl	_ZNK7Feature10other_headEv
	.def	_ZNK7Feature10other_headEv;	.scl	2;	.type	32;	.endef
	.seh_proc	_ZNK7Feature10other_headEv
_ZNK7Feature10other_headEv:
.LFB10694:
	pushq	%rbp
	.seh_pushreg	%rbp
	movq	%rsp, %rbp
	.seh_setframe	%rbp, 0
	.seh_endprologue
	movq	%rcx, 16(%rbp)
	movq	16(%rbp), %rax
	addq	$192, %rax
	popq	%rbp
	ret
	.seh_endproc
	.section	.text$_ZN13NeuralNetworkC1ERKS_,"x"
	.linkonce discard
	.align 2
	.globl	_ZN13NeuralNetworkC1ERKS_
	.def	_ZN13NeuralNetworkC1ERKS_;	.scl	2;	.type	32;	.endef
	.seh_proc	_ZN13NeuralNetworkC1ERKS_
_ZN13NeuralNetworkC1ERKS_:
.LFB10699:
	pushq	%rbp
	.seh_pushreg	%rbp
	pushq	%rdi
	.seh_pushreg	%rdi
	pushq	%rsi
	.seh_pushreg	%rsi
	pushq	%rbx
	.seh_pushreg	%rbx
	subq	$40, %rsp
	.seh_stackalloc	40
	leaq	32(%rsp), %rbp
	.seh_setframe	%rbp, 32
	.seh_endprologue
	movq	%rcx, 48(%rbp)
	movq	%rdx, 56(%rbp)
	movq	48(%rbp), %rax
	movq	56(%rbp), %rdx
	movq	%rax, %rcx
.LEHB46:
	call	_ZNSt6vectorIySaIyEEC1ERKS1_
.LEHE46:
	movq	56(%rbp), %rax
	movl	24(%rax), %edx
	movq	48(%rbp), %rax
	movl	%edx, 24(%rax)
	movq	48(%rbp), %rax
	addq	$32, %rax
	movq	56(%rbp), %rdx
	addq	$32, %rdx
	movq	%rax, %rcx
.LEHB47:
	call	_ZNSt6vectorIS_IS_IfSaIfEESaIS1_EESaIS3_EEC1ERKS5_
.LEHE47:
	movq	48(%rbp), %rax
	addq	$56, %rax
	movq	56(%rbp), %rdx
	addq	$56, %rdx
	movq	%rax, %rcx
.LEHB48:
	call	_ZNSt6vectorIS_IfSaIfEESaIS1_EEC1ERKS3_
.LEHE48:
	movq	48(%rbp), %rax
	movq	56(%rbp), %rdx
	addq	$80, %rax
	addq	$80, %rdx
	movl	$313, %ecx
	movq	%rax, %rdi
	movq	%rdx, %rsi
	rep movsq
	jmp	.L297
.L296:
	movq	%rax, %rbx
	movq	48(%rbp), %rax
	addq	$32, %rax
	movq	%rax, %rcx
	call	_ZNSt6vectorIS_IS_IfSaIfEESaIS1_EESaIS3_EED1Ev
	jmp	.L294
.L295:
	movq	%rax, %rbx
.L294:
	movq	48(%rbp), %rax
	movq	%rax, %rcx
	call	_ZNSt6vectorIySaIyEED1Ev
	movq	%rbx, %rax
	movq	%rax, %rcx
.LEHB49:
	call	_Unwind_Resume
	nop
.LEHE49:
.L297:
	addq	$40, %rsp
	popq	%rbx
	popq	%rsi
	popq	%rdi
	popq	%rbp
	ret
	.seh_handler	__gxx_personality_seh0, @unwind, @except
	.seh_handlerdata
.LLSDA10699:
	.byte	0xff
	.byte	0xff
	.byte	0x1
	.uleb128 .LLSDACSE10699-.LLSDACSB10699
.LLSDACSB10699:
	.uleb128 .LEHB46-.LFB10699
	.uleb128 .LEHE46-.LEHB46
	.uleb128 0
	.uleb128 0
	.uleb128 .LEHB47-.LFB10699
	.uleb128 .LEHE47-.LEHB47
	.uleb128 .L295-.LFB10699
	.uleb128 0
	.uleb128 .LEHB48-.LFB10699
	.uleb128 .LEHE48-.LEHB48
	.uleb128 .L296-.LFB10699
	.uleb128 0
	.uleb128 .LEHB49-.LFB10699
	.uleb128 .LEHE49-.LEHB49
	.uleb128 0
	.uleb128 0
.LLSDACSE10699:
	.section	.text$_ZN13NeuralNetworkC1ERKS_,"x"
	.linkonce discard
	.seh_endproc
	.section	.text$_ZNK5Snake6GetNetEv,"x"
	.linkonce discard
	.align 2
	.globl	_ZNK5Snake6GetNetEv
	.def	_ZNK5Snake6GetNetEv;	.scl	2;	.type	32;	.endef
	.seh_proc	_ZNK5Snake6GetNetEv
_ZNK5Snake6GetNetEv:
.LFB10696:
	pushq	%rbp
	.seh_pushreg	%rbp
	movq	%rsp, %rbp
	.seh_setframe	%rbp, 0
	subq	$32, %rsp
	.seh_stackalloc	32
	.seh_endprologue
	movq	%rcx, 16(%rbp)
	movq	%rdx, 24(%rbp)
	movq	24(%rbp), %rax
	leaq	24(%rax), %rdx
	movq	16(%rbp), %rax
	movq	%rax, %rcx
	call	_ZN13NeuralNetworkC1ERKS_
	movq	16(%rbp), %rax
	addq	$32, %rsp
	popq	%rbp
	ret
	.seh_endproc
	.section	.text$_ZNK5Snake12GetTargetValEv,"x"
	.linkonce discard
	.align 2
	.globl	_ZNK5Snake12GetTargetValEv
	.def	_ZNK5Snake12GetTargetValEv;	.scl	2;	.type	32;	.endef
	.seh_proc	_ZNK5Snake12GetTargetValEv
_ZNK5Snake12GetTargetValEv:
.LFB10700:
	pushq	%rbp
	.seh_pushreg	%rbp
	movq	%rsp, %rbp
	.seh_setframe	%rbp, 0
	.seh_endprologue
	movq	%rcx, 16(%rbp)
	movq	16(%rbp), %rax
	movl	2980(%rax), %eax
	popq	%rbp
	ret
	.seh_endproc
	.section .rdata,"dr"
	.align 4
_ZL4Size:
	.long	50
	.align 4
_ZL8NumSnake:
	.long	40
	.globl	rng
	.section	.data$rng,"w"
	.linkonce same_size
	.align 32
rng:
	.space 2504
	.section	.text$_ZNSt12_Vector_baseISt6vectorIiSaIiEESaIS2_EE12_Vector_implD1Ev,"x"
	.linkonce discard
	.align 2
	.globl	_ZNSt12_Vector_baseISt6vectorIiSaIiEESaIS2_EE12_Vector_implD1Ev
	.def	_ZNSt12_Vector_baseISt6vectorIiSaIiEESaIS2_EE12_Vector_implD1Ev;	.scl	2;	.type	32;	.endef
	.seh_proc	_ZNSt12_Vector_baseISt6vectorIiSaIiEESaIS2_EE12_Vector_implD1Ev
_ZNSt12_Vector_baseISt6vectorIiSaIiEESaIS2_EE12_Vector_implD1Ev:
.LFB10846:
	pushq	%rbp
	.seh_pushreg	%rbp
	movq	%rsp, %rbp
	.seh_setframe	%rbp, 0
	subq	$48, %rsp
	.seh_stackalloc	48
	.seh_endprologue
	movq	%rcx, 16(%rbp)
	movq	16(%rbp), %rax
	movq	%rax, -8(%rbp)
	movq	-8(%rbp), %rax
	movq	%rax, %rcx
	call	_ZNSt15__new_allocatorISt6vectorIiSaIiEEED2Ev
	nop
	nop
	addq	$48, %rsp
	popq	%rbp
	ret
	.seh_endproc
	.section	.text$_ZNSt12_Vector_baseISt6vectorIiSaIiEESaIS2_EEC2Ev,"x"
	.linkonce discard
	.align 2
	.globl	_ZNSt12_Vector_baseISt6vectorIiSaIiEESaIS2_EEC2Ev
	.def	_ZNSt12_Vector_baseISt6vectorIiSaIiEESaIS2_EEC2Ev;	.scl	2;	.type	32;	.endef
	.seh_proc	_ZNSt12_Vector_baseISt6vectorIiSaIiEESaIS2_EEC2Ev
_ZNSt12_Vector_baseISt6vectorIiSaIiEESaIS2_EEC2Ev:
.LFB10847:
	pushq	%rbp
	.seh_pushreg	%rbp
	movq	%rsp, %rbp
	.seh_setframe	%rbp, 0
	subq	$32, %rsp
	.seh_stackalloc	32
	.seh_endprologue
	movq	%rcx, 16(%rbp)
	movq	16(%rbp), %rax
	movq	%rax, %rcx
	call	_ZNSt12_Vector_baseISt6vectorIiSaIiEESaIS2_EE12_Vector_implC1Ev
	nop
	addq	$32, %rsp
	popq	%rbp
	ret
	.seh_endproc
	.section	.text$_ZNSt6vectorIS_IiSaIiEESaIS1_EEC1Ev,"x"
	.linkonce discard
	.align 2
	.globl	_ZNSt6vectorIS_IiSaIiEESaIS1_EEC1Ev
	.def	_ZNSt6vectorIS_IiSaIiEESaIS1_EEC1Ev;	.scl	2;	.type	32;	.endef
	.seh_proc	_ZNSt6vectorIS_IiSaIiEESaIS1_EEC1Ev
_ZNSt6vectorIS_IiSaIiEESaIS1_EEC1Ev:
.LFB10850:
	pushq	%rbp
	.seh_pushreg	%rbp
	movq	%rsp, %rbp
	.seh_setframe	%rbp, 0
	subq	$32, %rsp
	.seh_stackalloc	32
	.seh_endprologue
	movq	%rcx, 16(%rbp)
	movq	16(%rbp), %rax
	movq	%rax, %rcx
	call	_ZNSt12_Vector_baseISt6vectorIiSaIiEESaIS2_EEC2Ev
	nop
	addq	$32, %rsp
	popq	%rbp
	ret
	.seh_endproc
	.section	.text$_ZN7FeatureC1Ev,"x"
	.linkonce discard
	.align 2
	.globl	_ZN7FeatureC1Ev
	.def	_ZN7FeatureC1Ev;	.scl	2;	.type	32;	.endef
	.seh_proc	_ZN7FeatureC1Ev
_ZN7FeatureC1Ev:
.LFB10852:
	pushq	%rbp
	.seh_pushreg	%rbp
	movq	%rsp, %rbp
	.seh_setframe	%rbp, 0
	subq	$32, %rsp
	.seh_stackalloc	32
	.seh_endprologue
	movq	%rcx, 16(%rbp)
	movq	16(%rbp), %rax
	movq	%rax, %rcx
	call	_ZNSt6vectorIS_IiSaIiEESaIS1_EEC1Ev
	movq	16(%rbp), %rax
	movl	$0, 24(%rax)
	movq	16(%rbp), %rax
	movl	$0, 28(%rax)
	movq	16(%rbp), %rax
	movl	$-1, 32(%rax)
	movq	16(%rbp), %rax
	movl	$0, 36(%rax)
	movq	16(%rbp), %rax
	movl	$1, 40(%rax)
	movq	16(%rbp), %rax
	movl	$1, 44(%rax)
	movq	16(%rbp), %rax
	movl	$10, 48(%rax)
	movq	16(%rbp), %rax
	pxor	%xmm0, %xmm0
	movss	%xmm0, 52(%rax)
	movq	16(%rbp), %rax
	movl	$0, 56(%rax)
	movq	16(%rbp), %rax
	pxor	%xmm0, %xmm0
	movss	%xmm0, 60(%rax)
	movq	16(%rbp), %rax
	pxor	%xmm0, %xmm0
	movss	%xmm0, 64(%rax)
	movq	16(%rbp), %rax
	addq	$72, %rax
	movq	%rax, %rcx
	call	_ZNSt6vectorIS_IfSaIfEESaIS1_EEC1Ev
	movq	16(%rbp), %rax
	addq	$96, %rax
	movq	%rax, %rcx
	call	_ZNSt6vectorIS_IfSaIfEESaIS1_EEC1Ev
	movq	16(%rbp), %rax
	addq	$120, %rax
	movq	%rax, %rcx
	call	_ZNSt6vectorIS_IfSaIfEESaIS1_EEC1Ev
	movq	16(%rbp), %rax
	addq	$144, %rax
	movq	%rax, %rcx
	call	_ZNSt6vectorIS_IfSaIfEESaIS1_EEC1Ev
	movq	16(%rbp), %rax
	addq	$168, %rax
	movq	%rax, %rcx
	call	_ZNSt6vectorIS_IfSaIfEESaIS1_EEC1Ev
	movq	16(%rbp), %rax
	addq	$192, %rax
	movq	%rax, %rcx
	call	_ZNSt6vectorIS_IfSaIfEESaIS1_EEC1Ev
	nop
	addq	$32, %rsp
	popq	%rbp
	ret
	.seh_endproc
	.section	.text$_ZN7FeatureD1Ev,"x"
	.linkonce discard
	.align 2
	.globl	_ZN7FeatureD1Ev
	.def	_ZN7FeatureD1Ev;	.scl	2;	.type	32;	.endef
	.seh_proc	_ZN7FeatureD1Ev
_ZN7FeatureD1Ev:
.LFB10855:
	pushq	%rbp
	.seh_pushreg	%rbp
	movq	%rsp, %rbp
	.seh_setframe	%rbp, 0
	subq	$32, %rsp
	.seh_stackalloc	32
	.seh_endprologue
	movq	%rcx, 16(%rbp)
	movq	16(%rbp), %rax
	addq	$192, %rax
	movq	%rax, %rcx
	call	_ZNSt6vectorIS_IfSaIfEESaIS1_EED1Ev
	movq	16(%rbp), %rax
	addq	$168, %rax
	movq	%rax, %rcx
	call	_ZNSt6vectorIS_IfSaIfEESaIS1_EED1Ev
	movq	16(%rbp), %rax
	addq	$144, %rax
	movq	%rax, %rcx
	call	_ZNSt6vectorIS_IfSaIfEESaIS1_EED1Ev
	movq	16(%rbp), %rax
	addq	$120, %rax
	movq	%rax, %rcx
	call	_ZNSt6vectorIS_IfSaIfEESaIS1_EED1Ev
	movq	16(%rbp), %rax
	addq	$96, %rax
	movq	%rax, %rcx
	call	_ZNSt6vectorIS_IfSaIfEESaIS1_EED1Ev
	movq	16(%rbp), %rax
	addq	$72, %rax
	movq	%rax, %rcx
	call	_ZNSt6vectorIS_IfSaIfEESaIS1_EED1Ev
	movq	16(%rbp), %rax
	movq	%rax, %rcx
	call	_ZNSt6vectorIS_IiSaIiEESaIS1_EED1Ev
	nop
	addq	$32, %rsp
	popq	%rbp
	ret
	.seh_endproc
	.section	.text$_ZNSt5dequeISt4pairIiiESaIS1_EEC1Ev,"x"
	.linkonce discard
	.align 2
	.globl	_ZNSt5dequeISt4pairIiiESaIS1_EEC1Ev
	.def	_ZNSt5dequeISt4pairIiiESaIS1_EEC1Ev;	.scl	2;	.type	32;	.endef
	.seh_proc	_ZNSt5dequeISt4pairIiiESaIS1_EEC1Ev
_ZNSt5dequeISt4pairIiiESaIS1_EEC1Ev:
.LFB10858:
	pushq	%rbp
	.seh_pushreg	%rbp
	movq	%rsp, %rbp
	.seh_setframe	%rbp, 0
	subq	$32, %rsp
	.seh_stackalloc	32
	.seh_endprologue
	movq	%rcx, 16(%rbp)
	movq	16(%rbp), %rax
	movq	%rax, %rcx
	call	_ZNSt11_Deque_baseISt4pairIiiESaIS1_EEC2Ev
	nop
	addq	$32, %rsp
	popq	%rbp
	ret
	.seh_endproc
	.section	.text$_ZN13NeuralNetworkaSEOS_,"x"
	.linkonce discard
	.align 2
	.globl	_ZN13NeuralNetworkaSEOS_
	.def	_ZN13NeuralNetworkaSEOS_;	.scl	2;	.type	32;	.endef
	.seh_proc	_ZN13NeuralNetworkaSEOS_
_ZN13NeuralNetworkaSEOS_:
.LFB10865:
	pushq	%rbp
	.seh_pushreg	%rbp
	pushq	%rdi
	.seh_pushreg	%rdi
	pushq	%rsi
	.seh_pushreg	%rsi
	subq	$32, %rsp
	.seh_stackalloc	32
	leaq	32(%rsp), %rbp
	.seh_setframe	%rbp, 32
	.seh_endprologue
	movq	%rcx, 32(%rbp)
	movq	%rdx, 40(%rbp)
	movq	40(%rbp), %rdx
	movq	32(%rbp), %rax
	movq	%rax, %rcx
	call	_ZNSt6vectorIySaIyEEaSEOS1_
	movq	40(%rbp), %rax
	movl	24(%rax), %edx
	movq	32(%rbp), %rax
	movl	%edx, 24(%rax)
	movq	40(%rbp), %rax
	leaq	32(%rax), %rdx
	movq	32(%rbp), %rax
	addq	$32, %rax
	movq	%rax, %rcx
	call	_ZNSt6vectorIS_IS_IfSaIfEESaIS1_EESaIS3_EEaSEOS5_
	movq	40(%rbp), %rax
	leaq	56(%rax), %rdx
	movq	32(%rbp), %rax
	addq	$56, %rax
	movq	%rax, %rcx
	call	_ZNSt6vectorIS_IfSaIfEESaIS1_EEaSEOS3_
	movq	32(%rbp), %rax
	movq	40(%rbp), %rdx
	addq	$80, %rax
	addq	$80, %rdx
	movl	$313, %ecx
	movq	%rax, %rdi
	movq	%rdx, %rsi
	rep movsq
	movq	32(%rbp), %rax
	addq	$32, %rsp
	popq	%rsi
	popq	%rdi
	popq	%rbp
	ret
	.seh_endproc
	.text
	.align 2
	.globl	_ZN5SnakeC2EP4GameiSt4pairIiiEi
	.def	_ZN5SnakeC2EP4GameiSt4pairIiiEi;	.scl	2;	.type	32;	.endef
	.seh_proc	_ZN5SnakeC2EP4GameiSt4pairIiiEi
_ZN5SnakeC2EP4GameiSt4pairIiiEi:
.LFB10866:
	pushq	%rbp
	.seh_pushreg	%rbp
	pushq	%rbx
	.seh_pushreg	%rbx
	subq	$2712, %rsp
	.seh_stackalloc	2712
	leaq	128(%rsp), %rbp
	.seh_setframe	%rbp, 128
	.seh_endprologue
	movq	%rcx, 2608(%rbp)
	movq	%rdx, 2616(%rbp)
	movl	%r8d, 2624(%rbp)
	movq	%r9, 2632(%rbp)
	movq	2608(%rbp), %rax
	leaq	C.1.0(%rip), %r10
	movl	$5, %r11d
	leaq	-73(%rbp), %rdx
	movq	%rdx, 2568(%rbp)
	nop
	nop
	movq	%r10, -96(%rbp)
	movq	%r11, -88(%rbp)
	leaq	-73(%rbp), %rcx
	leaq	-96(%rbp), %rdx
	movq	%rcx, %r8
	movq	%rax, %rcx
.LEHB50:
	call	_ZNSt6vectorIySaIyEEC1ESt16initializer_listIyERKS0_
.LEHE50:
	leaq	-73(%rbp), %rax
	movq	%rax, %rcx
	call	_ZNSt15__new_allocatorIyED2Ev
	nop
	movq	2608(%rbp), %rax
	addq	$24, %rax
	movq	%rax, %rcx
.LEHB51:
	call	_ZN13NeuralNetworkC1Ev
.LEHE51:
	movq	2608(%rbp), %rax
	addq	$2608, %rax
	movq	%rax, %rcx
	call	_ZN7FeatureC1Ev
	movq	2608(%rbp), %rax
	addq	$2824, %rax
	movq	%rax, %rcx
.LEHB52:
	call	_ZNSt5dequeISt4pairIiiESaIS1_EEC1Ev
.LEHE52:
	movq	2608(%rbp), %rax
	addq	$2904, %rax
	movq	%rax, %rcx
	call	_ZNSt4pairIiiEC1IiiLb1EEEv
	movq	2608(%rbp), %rax
	movl	$1, 2920(%rax)
	movq	2608(%rbp), %rax
	movl	$0, 2924(%rax)
	movq	2608(%rbp), %rax
	movl	$-1, 2928(%rax)
	movq	2608(%rbp), %rax
	movl	$0, 2932(%rax)
	movq	2608(%rbp), %rax
	movl	$0, 2936(%rax)
	movq	2608(%rbp), %rax
	movl	$1, 2940(%rax)
	movq	2608(%rbp), %rax
	movl	$0, 2944(%rax)
	movq	2608(%rbp), %rax
	movl	$-1, 2948(%rax)
	movq	2608(%rbp), %rax
	movl	$11, 2952(%rax)
	movq	2608(%rbp), %rax
	movl	$0, 2972(%rax)
	movq	2608(%rbp), %rax
	movl	$0, 2976(%rax)
	movq	2608(%rbp), %rax
	movl	$0, 2980(%rax)
	movq	2608(%rbp), %rax
	movq	2616(%rbp), %rdx
	movq	%rdx, 2960(%rax)
	movq	2608(%rbp), %rax
	movb	$0, 2968(%rax)
	movq	2608(%rbp), %rax
	movl	2624(%rbp), %edx
	movl	%edx, 2916(%rax)
	movq	2608(%rbp), %rax
	leaq	2824(%rax), %rbx
	movl	2636(%rbp), %eax
	subl	$2, %eax
	movl	%eax, -64(%rbp)
	leaq	-64(%rbp), %rdx
	leaq	2632(%rbp), %rax
	movq	%rax, %rcx
.LEHB53:
	call	_ZSt9make_pairIRiiESt4pairINSt25__strip_reference_wrapperINSt5decayIT_E4typeEE6__typeENS2_INS3_IT0_E4typeEE6__typeEEOS4_OS9_
	movq	%rax, -72(%rbp)
	leaq	-72(%rbp), %rax
	movq	%rax, %rdx
	movq	%rbx, %rcx
	call	_ZNSt5dequeISt4pairIiiESaIS1_EE9push_backEOS1_
	movq	2608(%rbp), %rax
	leaq	2824(%rax), %rbx
	movl	2636(%rbp), %eax
	subl	$1, %eax
	movl	%eax, -52(%rbp)
	leaq	-52(%rbp), %rdx
	leaq	2632(%rbp), %rax
	movq	%rax, %rcx
	call	_ZSt9make_pairIRiiESt4pairINSt25__strip_reference_wrapperINSt5decayIT_E4typeEE6__typeENS2_INS3_IT0_E4typeEE6__typeEEOS4_OS9_
	movq	%rax, -60(%rbp)
	leaq	-60(%rbp), %rax
	movq	%rax, %rdx
	movq	%rbx, %rcx
	call	_ZNSt5dequeISt4pairIiiESaIS1_EE9push_backEOS1_
	movq	2608(%rbp), %rax
	leaq	2824(%rax), %rbx
	leaq	2632(%rbp), %rax
	leaq	4(%rax), %rdx
	leaq	2632(%rbp), %rax
	movq	%rax, %rcx
	call	_ZSt9make_pairIRiS0_ESt4pairINSt25__strip_reference_wrapperINSt5decayIT_E4typeEE6__typeENS2_INS3_IT0_E4typeEE6__typeEEOS4_OS9_
	movq	%rax, -48(%rbp)
	leaq	-48(%rbp), %rax
	movq	%rax, %rdx
	movq	%rbx, %rcx
	call	_ZNSt5dequeISt4pairIiiESaIS1_EE9push_backEOS1_
	movq	2608(%rbp), %rax
	leaq	2824(%rax), %rbx
	movl	2636(%rbp), %eax
	addl	$1, %eax
	movl	%eax, -32(%rbp)
	leaq	-32(%rbp), %rdx
	leaq	2632(%rbp), %rax
	movq	%rax, %rcx
	call	_ZSt9make_pairIRiiESt4pairINSt25__strip_reference_wrapperINSt5decayIT_E4typeEE6__typeENS2_INS3_IT0_E4typeEE6__typeEEOS4_OS9_
	movq	%rax, -40(%rbp)
	leaq	-40(%rbp), %rax
	movq	%rax, %rdx
	movq	%rbx, %rcx
	call	_ZNSt5dequeISt4pairIiiESaIS1_EE9push_backEOS1_
	movl	2636(%rbp), %eax
	addl	$1, %eax
	movl	%eax, -20(%rbp)
	leaq	-20(%rbp), %rdx
	leaq	2632(%rbp), %rax
	movq	%rax, %rcx
	call	_ZSt9make_pairIRiiESt4pairINSt25__strip_reference_wrapperINSt5decayIT_E4typeEE6__typeENS2_INS3_IT0_E4typeEE6__typeEEOS4_OS9_
	movq	%rax, -28(%rbp)
	movq	2608(%rbp), %rax
	leaq	2904(%rax), %rcx
	leaq	-28(%rbp), %rax
	movq	%rax, %rdx
	call	_ZNSt4pairIiiEaSEOS0_
	movq	2608(%rbp), %rax
	movl	2640(%rbp), %edx
	movl	%edx, 2912(%rax)
	movq	2608(%rbp), %rax
	movb	$0, 2969(%rax)
	movq	2608(%rbp), %rax
	movl	$0, 2972(%rax)
	movq	2608(%rbp), %rax
	movl	$0, 2976(%rax)
	movq	2608(%rbp), %rax
	movl	$0, 2980(%rax)
	movq	2608(%rbp), %rdx
	leaq	-16(%rbp), %rax
	movl	$0, %r8d
	movq	%rax, %rcx
	call	_ZN13NeuralNetworkC1ERKSt6vectorIySaIyEE10Activation
	movq	2608(%rbp), %rax
	leaq	24(%rax), %rcx
	leaq	-16(%rbp), %rax
	movq	%rax, %rdx
	call	_ZN13NeuralNetworkaSEOS_
	leaq	-16(%rbp), %rax
	movq	%rax, %rcx
	call	_ZN13NeuralNetworkD1Ev
	movq	2608(%rbp), %rax
	movq	%rax, %rcx
	call	_ZN5Snake15UpdateTargetValEv
.LEHE53:
	jmp	.L319
.L315:
	movq	%rax, %rbx
	leaq	-73(%rbp), %rax
	movq	%rax, %rcx
	call	_ZNSt15__new_allocatorIyED2Ev
	nop
	movq	%rbx, %rax
	movq	%rax, %rcx
.LEHB54:
	call	_Unwind_Resume
.L318:
	movq	%rax, %rbx
	movq	2608(%rbp), %rax
	addq	$2824, %rax
	movq	%rax, %rcx
	call	_ZNSt5dequeISt4pairIiiESaIS1_EED1Ev
	jmp	.L313
.L317:
	movq	%rax, %rbx
.L313:
	movq	2608(%rbp), %rax
	addq	$2608, %rax
	movq	%rax, %rcx
	call	_ZN7FeatureD1Ev
	movq	2608(%rbp), %rax
	addq	$24, %rax
	movq	%rax, %rcx
	call	_ZN13NeuralNetworkD1Ev
	jmp	.L314
.L316:
	movq	%rax, %rbx
.L314:
	movq	2608(%rbp), %rax
	movq	%rax, %rcx
	call	_ZNSt6vectorIySaIyEED1Ev
	movq	%rbx, %rax
	movq	%rax, %rcx
	call	_Unwind_Resume
	nop
.LEHE54:
.L319:
	addq	$2712, %rsp
	popq	%rbx
	popq	%rbp
	ret
	.seh_handler	__gxx_personality_seh0, @unwind, @except
	.seh_handlerdata
.LLSDA10866:
	.byte	0xff
	.byte	0xff
	.byte	0x1
	.uleb128 .LLSDACSE10866-.LLSDACSB10866
.LLSDACSB10866:
	.uleb128 .LEHB50-.LFB10866
	.uleb128 .LEHE50-.LEHB50
	.uleb128 .L315-.LFB10866
	.uleb128 0
	.uleb128 .LEHB51-.LFB10866
	.uleb128 .LEHE51-.LEHB51
	.uleb128 .L316-.LFB10866
	.uleb128 0
	.uleb128 .LEHB52-.LFB10866
	.uleb128 .LEHE52-.LEHB52
	.uleb128 .L317-.LFB10866
	.uleb128 0
	.uleb128 .LEHB53-.LFB10866
	.uleb128 .LEHE53-.LEHB53
	.uleb128 .L318-.LFB10866
	.uleb128 0
	.uleb128 .LEHB54-.LFB10866
	.uleb128 .LEHE54-.LEHB54
	.uleb128 0
	.uleb128 0
.LLSDACSE10866:
	.text
	.seh_endproc
	.globl	_ZN5SnakeC1EP4GameiSt4pairIiiEi
	.def	_ZN5SnakeC1EP4GameiSt4pairIiiEi;	.scl	2;	.type	32;	.endef
	.set	_ZN5SnakeC1EP4GameiSt4pairIiiEi,_ZN5SnakeC2EP4GameiSt4pairIiiEi
	.align 2
	.globl	_ZN5Snake7GetViewEv
	.def	_ZN5Snake7GetViewEv;	.scl	2;	.type	32;	.endef
	.seh_proc	_ZN5Snake7GetViewEv
_ZN5Snake7GetViewEv:
.LFB10868:
	pushq	%rbp
	.seh_pushreg	%rbp
	pushq	%rbx
	.seh_pushreg	%rbx
	subq	$152, %rsp
	.seh_stackalloc	152
	leaq	144(%rsp), %rbp
	.seh_setframe	%rbp, 144
	.seh_endprologue
	movq	%rcx, 32(%rbp)
	movq	%rdx, 40(%rbp)
	leaq	-97(%rbp), %rax
	movq	%rax, -48(%rbp)
	nop
	nop
	leaq	-61(%rbp), %rax
	movq	%rax, -40(%rbp)
	nop
	nop
	movl	$-1, -60(%rbp)
	movq	40(%rbp), %rax
	movl	2952(%rax), %eax
	movslq	%eax, %rdx
	leaq	-61(%rbp), %r8
	leaq	-60(%rbp), %rcx
	leaq	-96(%rbp), %rax
	movq	%r8, %r9
	movq	%rcx, %r8
	movq	%rax, %rcx
.LEHB55:
	call	_ZNSt6vectorIiSaIiEEC1EyRKiRKS0_
.LEHE55:
	movq	40(%rbp), %rax
	movl	2952(%rax), %eax
	movslq	%eax, %rdx
	leaq	-97(%rbp), %r8
	leaq	-96(%rbp), %rcx
	movq	32(%rbp), %rax
	movq	%r8, %r9
	movq	%rcx, %r8
	movq	%rax, %rcx
.LEHB56:
	call	_ZNSt6vectorIS_IiSaIiEESaIS1_EEC1EyRKS1_RKS2_
.LEHE56:
	leaq	-96(%rbp), %rax
	movq	%rax, %rcx
	call	_ZNSt6vectorIiSaIiEED1Ev
	leaq	-61(%rbp), %rax
	movq	%rax, %rcx
	call	_ZNSt15__new_allocatorIiED2Ev
	nop
	leaq	-97(%rbp), %rax
	movq	%rax, %rcx
	call	_ZNSt15__new_allocatorISt6vectorIiSaIiEEED2Ev
	nop
	movq	40(%rbp), %rax
	addq	$2824, %rax
	movq	%rax, %rcx
	call	_ZNSt5dequeISt4pairIiiESaIS1_EE4backEv
	movq	%rax, %rdx
	movq	40(%rbp), %rax
	addq	$2904, %rax
	movq	%rax, %rcx
	call	_ZNSt4pairIiiEaSERKS0_
	movq	40(%rbp), %rax
	movl	2952(%rax), %eax
	movl	%eax, %edx
	shrl	$31, %edx
	addl	%edx, %eax
	sarl	%eax
	movl	%eax, -20(%rbp)
	movl	$0, -4(%rbp)
	jmp	.L321
.L329:
	movl	$0, -8(%rbp)
	jmp	.L322
.L328:
	movl	-4(%rbp), %eax
	subl	-20(%rbp), %eax
	movl	%eax, -24(%rbp)
	movl	-8(%rbp), %eax
	subl	-20(%rbp), %eax
	movl	%eax, -28(%rbp)
	movl	$0, -12(%rbp)
	movl	$0, -16(%rbp)
	movq	40(%rbp), %rax
	movl	2912(%rax), %eax
	cmpl	$1, %eax
	jne	.L323
	movl	-24(%rbp), %eax
	movl	%eax, -12(%rbp)
	movl	-28(%rbp), %eax
	movl	%eax, -16(%rbp)
	jmp	.L324
.L323:
	movq	40(%rbp), %rax
	movl	2912(%rax), %eax
	testl	%eax, %eax
	jne	.L325
	movl	-24(%rbp), %eax
	negl	%eax
	movl	%eax, -12(%rbp)
	movl	-28(%rbp), %eax
	negl	%eax
	movl	%eax, -16(%rbp)
	jmp	.L324
.L325:
	movq	40(%rbp), %rax
	movl	2912(%rax), %eax
	cmpl	$2, %eax
	jne	.L326
	movl	-28(%rbp), %eax
	movl	%eax, -12(%rbp)
	movl	-24(%rbp), %eax
	negl	%eax
	movl	%eax, -16(%rbp)
	jmp	.L324
.L326:
	movl	-28(%rbp), %eax
	negl	%eax
	movl	%eax, -12(%rbp)
	movl	-24(%rbp), %eax
	movl	%eax, -16(%rbp)
.L324:
	movq	40(%rbp), %rax
	movl	2904(%rax), %edx
	movl	-12(%rbp), %eax
	addl	%edx, %eax
	movl	%eax, -104(%rbp)
	movq	40(%rbp), %rax
	movl	2908(%rax), %edx
	movl	-16(%rbp), %eax
	addl	%edx, %eax
	movl	%eax, -108(%rbp)
	movl	-104(%rbp), %eax
	testl	%eax, %eax
	js	.L327
	movl	-104(%rbp), %eax
	cmpl	$51, %eax
	jg	.L327
	movl	-108(%rbp), %eax
	testl	%eax, %eax
	js	.L327
	movl	-108(%rbp), %eax
	cmpl	$51, %eax
	jg	.L327
	movq	40(%rbp), %rax
	movq	2960(%rax), %rbx
	leaq	-108(%rbp), %rcx
	leaq	-104(%rbp), %rdx
	leaq	-56(%rbp), %rax
	movq	%rcx, %r8
	movq	%rax, %rcx
	call	_ZNSt4pairIiiEC1IRiS2_Lb1EEEOT_OT0_
	movq	-56(%rbp), %rax
	movq	%rax, %rdx
	movq	%rbx, %rcx
	call	_ZN4Game6GetStaESt4pairIiiE
	movl	%eax, %ebx
	movl	-4(%rbp), %eax
	movslq	%eax, %rdx
	movq	32(%rbp), %rax
	movq	%rax, %rcx
	call	_ZNSt6vectorIS_IiSaIiEESaIS1_EEixEy
	movq	%rax, %rcx
	movl	-8(%rbp), %eax
	cltq
	movq	%rax, %rdx
	call	_ZNSt6vectorIiSaIiEEixEy
	movl	%ebx, (%rax)
.L327:
	addl	$1, -8(%rbp)
.L322:
	movq	40(%rbp), %rax
	movl	2952(%rax), %eax
	cmpl	%eax, -8(%rbp)
	jl	.L328
	addl	$1, -4(%rbp)
.L321:
	movq	40(%rbp), %rax
	movl	2952(%rax), %eax
	cmpl	%eax, -4(%rbp)
	jl	.L329
	jmp	.L335
.L334:
	movq	%rax, %rbx
	leaq	-96(%rbp), %rax
	movq	%rax, %rcx
	call	_ZNSt6vectorIiSaIiEED1Ev
	jmp	.L332
.L333:
	movq	%rax, %rbx
.L332:
	leaq	-61(%rbp), %rax
	movq	%rax, %rcx
	call	_ZNSt15__new_allocatorIiED2Ev
	nop
	leaq	-97(%rbp), %rax
	movq	%rax, %rcx
	call	_ZNSt15__new_allocatorISt6vectorIiSaIiEEED2Ev
	nop
	movq	%rbx, %rax
	movq	%rax, %rcx
.LEHB57:
	call	_Unwind_Resume
.LEHE57:
.L335:
	movq	32(%rbp), %rax
	addq	$152, %rsp
	popq	%rbx
	popq	%rbp
	ret
	.seh_handler	__gxx_personality_seh0, @unwind, @except
	.seh_handlerdata
.LLSDA10868:
	.byte	0xff
	.byte	0xff
	.byte	0x1
	.uleb128 .LLSDACSE10868-.LLSDACSB10868
.LLSDACSB10868:
	.uleb128 .LEHB55-.LFB10868
	.uleb128 .LEHE55-.LEHB55
	.uleb128 .L333-.LFB10868
	.uleb128 0
	.uleb128 .LEHB56-.LFB10868
	.uleb128 .LEHE56-.LEHB56
	.uleb128 .L334-.LFB10868
	.uleb128 0
	.uleb128 .LEHB57-.LFB10868
	.uleb128 .LEHE57-.LEHB57
	.uleb128 0
	.uleb128 0
.LLSDACSE10868:
	.text
	.seh_endproc
	.section	.text$_ZN7FeatureaSEOS_,"x"
	.linkonce discard
	.align 2
	.globl	_ZN7FeatureaSEOS_
	.def	_ZN7FeatureaSEOS_;	.scl	2;	.type	32;	.endef
	.seh_proc	_ZN7FeatureaSEOS_
_ZN7FeatureaSEOS_:
.LFB10884:
	pushq	%rbp
	.seh_pushreg	%rbp
	movq	%rsp, %rbp
	.seh_setframe	%rbp, 0
	subq	$32, %rsp
	.seh_stackalloc	32
	.seh_endprologue
	movq	%rcx, 16(%rbp)
	movq	%rdx, 24(%rbp)
	movq	24(%rbp), %rdx
	movq	16(%rbp), %rax
	movq	%rax, %rcx
	call	_ZNSt6vectorIS_IiSaIiEESaIS1_EEaSEOS3_
	movq	24(%rbp), %rax
	movl	24(%rax), %edx
	movq	16(%rbp), %rax
	movl	%edx, 24(%rax)
	movq	24(%rbp), %rax
	movl	28(%rax), %edx
	movq	16(%rbp), %rax
	movl	%edx, 28(%rax)
	movq	24(%rbp), %rax
	movl	32(%rax), %edx
	movq	16(%rbp), %rax
	movl	%edx, 32(%rax)
	movq	24(%rbp), %rax
	movl	36(%rax), %edx
	movq	16(%rbp), %rax
	movl	%edx, 36(%rax)
	movq	24(%rbp), %rax
	movl	40(%rax), %edx
	movq	16(%rbp), %rax
	movl	%edx, 40(%rax)
	movq	24(%rbp), %rax
	movl	44(%rax), %edx
	movq	16(%rbp), %rax
	movl	%edx, 44(%rax)
	movq	24(%rbp), %rax
	movl	48(%rax), %edx
	movq	16(%rbp), %rax
	movl	%edx, 48(%rax)
	movq	24(%rbp), %rax
	movss	52(%rax), %xmm0
	movq	16(%rbp), %rax
	movss	%xmm0, 52(%rax)
	movq	24(%rbp), %rax
	movl	56(%rax), %edx
	movq	16(%rbp), %rax
	movl	%edx, 56(%rax)
	movq	24(%rbp), %rax
	movss	60(%rax), %xmm0
	movq	16(%rbp), %rax
	movss	%xmm0, 60(%rax)
	movq	24(%rbp), %rax
	movss	64(%rax), %xmm0
	movq	16(%rbp), %rax
	movss	%xmm0, 64(%rax)
	movq	24(%rbp), %rax
	leaq	72(%rax), %rdx
	movq	16(%rbp), %rax
	addq	$72, %rax
	movq	%rax, %rcx
	call	_ZNSt6vectorIS_IfSaIfEESaIS1_EEaSEOS3_
	movq	24(%rbp), %rax
	leaq	96(%rax), %rdx
	movq	16(%rbp), %rax
	addq	$96, %rax
	movq	%rax, %rcx
	call	_ZNSt6vectorIS_IfSaIfEESaIS1_EEaSEOS3_
	movq	24(%rbp), %rax
	leaq	120(%rax), %rdx
	movq	16(%rbp), %rax
	addq	$120, %rax
	movq	%rax, %rcx
	call	_ZNSt6vectorIS_IfSaIfEESaIS1_EEaSEOS3_
	movq	24(%rbp), %rax
	leaq	144(%rax), %rdx
	movq	16(%rbp), %rax
	addq	$144, %rax
	movq	%rax, %rcx
	call	_ZNSt6vectorIS_IfSaIfEESaIS1_EEaSEOS3_
	movq	24(%rbp), %rax
	leaq	168(%rax), %rdx
	movq	16(%rbp), %rax
	addq	$168, %rax
	movq	%rax, %rcx
	call	_ZNSt6vectorIS_IfSaIfEESaIS1_EEaSEOS3_
	movq	24(%rbp), %rax
	leaq	192(%rax), %rdx
	movq	16(%rbp), %rax
	addq	$192, %rax
	movq	%rax, %rcx
	call	_ZNSt6vectorIS_IfSaIfEESaIS1_EEaSEOS3_
	movq	16(%rbp), %rax
	addq	$32, %rsp
	popq	%rbp
	ret
	.seh_endproc
	.text
	.align 2
	.globl	_ZN5Snake10GetFeatureEiiiiiii
	.def	_ZN5Snake10GetFeatureEiiiiiii;	.scl	2;	.type	32;	.endef
	.seh_proc	_ZN5Snake10GetFeatureEiiiiiii
_ZN5Snake10GetFeatureEiiiiiii:
.LFB10880:
	pushq	%rbp
	.seh_pushreg	%rbp
	pushq	%rbx
	.seh_pushreg	%rbx
	subq	$344, %rsp
	.seh_stackalloc	344
	leaq	128(%rsp), %rbp
	.seh_setframe	%rbp, 128
	.seh_endprologue
	movq	%rcx, 240(%rbp)
	movl	%edx, 248(%rbp)
	movl	%r8d, 256(%rbp)
	movl	%r9d, 264(%rbp)
	leaq	-48(%rbp), %rax
	movq	240(%rbp), %rdx
	movq	%rax, %rcx
.LEHB58:
	call	_ZN5Snake7GetViewEv
.LEHE58:
	movq	240(%rbp), %rax
	addq	$2824, %rax
	movq	%rax, %rcx
	call	_ZNKSt5dequeISt4pairIiiESaIS1_EE4sizeEv
	movl	%eax, %r10d
	movl	248(%rbp), %r8d
	leaq	-48(%rbp), %rdx
	leaq	-16(%rbp), %rax
	movl	296(%rbp), %ecx
	movl	%ecx, 72(%rsp)
	movl	288(%rbp), %ecx
	movl	%ecx, 64(%rsp)
	movl	280(%rbp), %ecx
	movl	%ecx, 56(%rsp)
	movl	272(%rbp), %ecx
	movl	%ecx, 48(%rsp)
	movl	264(%rbp), %ecx
	movl	%ecx, 40(%rsp)
	movl	256(%rbp), %ecx
	movl	%ecx, 32(%rsp)
	movl	%r8d, %r9d
	movl	%r10d, %r8d
	movq	%rax, %rcx
.LEHB59:
	call	_ZN7FeatureC1ERKSt6vectorIS0_IiSaIiEESaIS2_EEiiiiiiii
.LEHE59:
	movq	240(%rbp), %rax
	leaq	2608(%rax), %rcx
	leaq	-16(%rbp), %rax
	movq	%rax, %rdx
	call	_ZN7FeatureaSEOS_
	leaq	-16(%rbp), %rax
	movq	%rax, %rcx
	call	_ZN7FeatureD1Ev
	movq	240(%rbp), %rax
	leaq	2608(%rax), %rbx
	leaq	-48(%rbp), %rax
	movq	%rax, %rcx
	call	_ZNSt6vectorIS_IiSaIiEESaIS1_EED1Ev
	movq	%rbx, %rax
	jmp	.L342
.L341:
	movq	%rax, %rbx
	leaq	-48(%rbp), %rax
	movq	%rax, %rcx
	call	_ZNSt6vectorIS_IiSaIiEESaIS1_EED1Ev
	movq	%rbx, %rax
	movq	%rax, %rcx
.LEHB60:
	call	_Unwind_Resume
.LEHE60:
.L342:
	addq	$344, %rsp
	popq	%rbx
	popq	%rbp
	ret
	.seh_handler	__gxx_personality_seh0, @unwind, @except
	.seh_handlerdata
.LLSDA10880:
	.byte	0xff
	.byte	0xff
	.byte	0x1
	.uleb128 .LLSDACSE10880-.LLSDACSB10880
.LLSDACSB10880:
	.uleb128 .LEHB58-.LFB10880
	.uleb128 .LEHE58-.LEHB58
	.uleb128 0
	.uleb128 0
	.uleb128 .LEHB59-.LFB10880
	.uleb128 .LEHE59-.LEHB59
	.uleb128 .L341-.LFB10880
	.uleb128 0
	.uleb128 .LEHB60-.LFB10880
	.uleb128 .LEHE60-.LEHB60
	.uleb128 0
	.uleb128 0
.LLSDACSE10880:
	.text
	.seh_endproc
	.section .rdata,"dr"
	.align 16
_ZZN5Snake13RunNetAndTurnEiiiE8left_dir:
	.long	2
	.long	3
	.long	1
	.long	0
	.align 16
_ZZN5Snake13RunNetAndTurnEiiiE9right_dir:
	.long	3
	.long	2
	.long	0
	.long	1
.LC16:
	.ascii "incorrect net size\0"
	.text
	.align 2
	.globl	_ZN5Snake13RunNetAndTurnEiii
	.def	_ZN5Snake13RunNetAndTurnEiii;	.scl	2;	.type	32;	.endef
	.seh_proc	_ZN5Snake13RunNetAndTurnEiii
_ZN5Snake13RunNetAndTurnEiii:
.LFB10885:
	pushq	%rbp
	.seh_pushreg	%rbp
	pushq	%rdi
	.seh_pushreg	%rdi
	pushq	%rsi
	.seh_pushreg	%rsi
	pushq	%rbx
	.seh_pushreg	%rbx
	subq	$2840, %rsp
	.seh_stackalloc	2840
	leaq	128(%rsp), %rbp
	.seh_setframe	%rbp, 128
	.seh_endprologue
	movq	%rcx, 2752(%rbp)
	movl	%edx, 2760(%rbp)
	movl	%r8d, 2768(%rbp)
	movl	%r9d, 2776(%rbp)
	movq	2752(%rbp), %rax
	movzbl	2969(%rax), %eax
	testb	%al, %al
	jne	.L368
	movq	2752(%rbp), %rax
	movzbl	2968(%rax), %eax
	testb	%al, %al
	jne	.L368
	movq	2752(%rbp), %rax
	movl	2908(%rax), %r8d
	movq	2752(%rbp), %rax
	movl	2904(%rax), %ecx
	movq	2752(%rbp), %rax
	movl	2912(%rax), %r11d
	movl	2768(%rbp), %r10d
	movl	2760(%rbp), %edx
	movq	2752(%rbp), %rax
	movl	2776(%rbp), %r9d
	movl	%r9d, 56(%rsp)
	movl	$50, 48(%rsp)
	movl	%r8d, 40(%rsp)
	movl	%ecx, 32(%rsp)
	movl	%r11d, %r9d
	movl	%r10d, %r8d
	movq	%rax, %rcx
.LEHB61:
	call	_ZN5Snake10GetFeatureEiiiiiii
	movq	2752(%rbp), %rax
	leaq	2608(%rax), %rdx
	leaq	-16(%rbp), %rax
	movq	%rax, %rcx
	call	_ZNK7Feature12ToModelInputEv
.LEHE61:
	leaq	-16(%rbp), %rax
	movq	%rax, %rcx
	call	_ZNKSt6vectorIfSaIfEE5emptyEv
	testb	%al, %al
	je	.L347
	movl	$0, %ebx
	jmp	.L348
.L347:
	movq	2752(%rbp), %rax
	addq	$24, %rax
	movq	%rax, %rcx
	call	_ZNK13NeuralNetwork6layersEv
	movq	%rax, %rcx
	call	_ZNKSt6vectorIySaIyEE5frontEv
	movq	(%rax), %rbx
	leaq	-16(%rbp), %rax
	movq	%rax, %rcx
	call	_ZNKSt6vectorIfSaIfEE4sizeEv
	cmpq	%rax, %rbx
	jne	.L349
	movq	2752(%rbp), %rax
	addq	$24, %rax
	movq	%rax, %rcx
	call	_ZNK13NeuralNetwork6layersEv
	movq	%rax, %rcx
	call	_ZNKSt6vectorIySaIyEE4backEv
	movq	(%rax), %rax
	cmpq	$3, %rax
	je	.L350
.L349:
	movl	$1, %eax
	jmp	.L351
.L350:
	movl	$0, %eax
.L351:
	testb	%al, %al
	je	.L352
	leaq	.LC16(%rip), %rdx
	movq	.refptr._ZSt4cout(%rip), %rax
	movq	%rax, %rcx
.LEHB62:
	call	_ZStlsISt11char_traitsIcEERSt13basic_ostreamIcT_ES5_PKc
	movq	%rax, %rcx
	movq	.refptr._ZSt4endlIcSt11char_traitsIcEERSt13basic_ostreamIT_T0_ES6_(%rip), %rax
	movq	%rax, %rdx
	call	_ZNSolsEPFRSoS_E
	leaq	-16(%rbp), %rax
	movq	%rax, %rcx
	call	_ZNKSt6vectorIfSaIfEE4sizeEv
	movq	%rax, %rdx
	movq	.refptr._ZSt4cout(%rip), %rax
	movq	%rax, %rcx
	call	_ZNSolsEy
	movl	$32, %edx
	movq	%rax, %rcx
	call	_ZStlsISt11char_traitsIcEERSt13basic_ostreamIcT_ES5_c
	movq	%rax, %rbx
	movq	2752(%rbp), %rax
	addq	$24, %rax
	movq	%rax, %rcx
	call	_ZNK13NeuralNetwork6layersEv
	movq	%rax, %rcx
	call	_ZNKSt6vectorIySaIyEE5frontEv
	movq	(%rax), %rax
	movq	%rax, %rdx
	movq	%rbx, %rcx
	call	_ZNSolsEy
	movq	%rax, %rcx
	movq	.refptr._ZSt4endlIcSt11char_traitsIcEERSt13basic_ostreamIT_T0_ES6_(%rip), %rax
	movq	%rax, %rdx
	call	_ZNSolsEPFRSoS_E
	leaq	-16(%rbp), %rax
	movq	%rax, %rcx
	call	_ZNKSt6vectorIfSaIfEE4sizeEv
	movq	%rax, 16(%rbp)
	movq	$64, 24(%rbp)
	movq	$3, 32(%rbp)
	leaq	16(%rbp), %rax
	movq	%rax, %rsi
	movl	$3, %edi
	movq	2752(%rbp), %rax
	movq	%rsi, -64(%rbp)
	movq	%rdi, -56(%rbp)
	leaq	-64(%rbp), %rdx
	movq	%rax, %rcx
	call	_ZNSt6vectorIySaIyEEaSESt16initializer_listIyE
	movq	2752(%rbp), %rdx
	leaq	48(%rbp), %rax
	movl	$0, %r8d
	movq	%rax, %rcx
	call	_ZN13NeuralNetworkC1ERKSt6vectorIySaIyEE10Activation
	movq	2752(%rbp), %rax
	leaq	24(%rax), %rcx
	leaq	48(%rbp), %rax
	movq	%rax, %rdx
	call	_ZN13NeuralNetworkaSEOS_
	leaq	48(%rbp), %rax
	movq	%rax, %rcx
	call	_ZN13NeuralNetworkD1Ev
.L352:
	movq	2752(%rbp), %rax
	leaq	24(%rax), %rdx
	leaq	-48(%rbp), %rax
	leaq	-16(%rbp), %rcx
	movq	%rcx, %r8
	movq	%rax, %rcx
	call	_ZNK13NeuralNetwork7forwardERKSt6vectorIfSaIfEE
.LEHE62:
	leaq	-48(%rbp), %rax
	movq	%rax, %rcx
	call	_ZNKSt6vectorIfSaIfEE4sizeEv
	cmpq	$2, %rax
	setbe	%al
	testb	%al, %al
	je	.L353
	movl	$0, %ebx
	jmp	.L354
.L353:
	leaq	-48(%rbp), %rax
	movq	%rax, %rcx
	call	_ZNSt6vectorIfSaIfEE5beginEv
	movq	%rax, 2632(%rbp)
	leaq	-48(%rbp), %rax
	movq	%rax, %rcx
	call	_ZNSt6vectorIfSaIfEE5beginEv
	movq	%rax, 2648(%rbp)
	movq	$3, 2688(%rbp)
	movq	2648(%rbp), %rax
	movq	2688(%rbp), %rdx
	salq	$2, %rdx
	addq	%rdx, %rax
	movq	%rax, 2656(%rbp)
	movq	2656(%rbp), %rax
	movq	%rax, 2664(%rbp)
	nop
	movq	2664(%rbp), %rax
	movq	%rax, %rbx
	leaq	-48(%rbp), %rax
	movq	%rax, %rcx
	call	_ZNSt6vectorIfSaIfEE5beginEv
	movq	%rbx, %rdx
	movq	%rax, %rcx
.LEHB63:
	call	_ZSt11max_elementIN9__gnu_cxx17__normal_iteratorIPfSt6vectorIfSaIfEEEEET_S7_S7_
.LEHE63:
	movq	%rax, 2640(%rbp)
	leaq	2640(%rbp), %rax
	movq	%rax, 2680(%rbp)
	movq	2680(%rbp), %rax
	movq	(%rax), %rdx
	leaq	2632(%rbp), %rax
	movq	%rax, 2672(%rbp)
	movq	2672(%rbp), %rax
	movq	(%rax), %rax
	subq	%rax, %rdx
	movq	%rdx, %rax
	sarq	$2, %rax
	movl	%eax, 2700(%rbp)
	cmpl	$1, 2700(%rbp)
	jne	.L359
	movq	2752(%rbp), %rax
	movl	2912(%rax), %eax
	cltq
	leaq	0(,%rax,4), %rdx
	leaq	_ZZN5Snake13RunNetAndTurnEiiiE8left_dir(%rip), %rax
	movl	(%rdx,%rax), %edx
	movq	2752(%rbp), %rax
	movq	%rax, %rcx
	call	_ZN5Snake12ChangeDirectEi
	jmp	.L360
.L359:
	cmpl	$2, 2700(%rbp)
	jne	.L361
	movq	2752(%rbp), %rax
	movl	2912(%rax), %eax
	cltq
	leaq	0(,%rax,4), %rdx
	leaq	_ZZN5Snake13RunNetAndTurnEiiiE9right_dir(%rip), %rax
	movl	(%rdx,%rax), %edx
	movq	2752(%rbp), %rax
	movq	%rax, %rcx
	call	_ZN5Snake12ChangeDirectEi
	jmp	.L360
.L361:
	movq	2752(%rbp), %rax
	movl	2912(%rax), %edx
	movq	2752(%rbp), %rax
	movq	%rax, %rcx
	call	_ZN5Snake12ChangeDirectEi
.L360:
	movl	$1, %ebx
.L354:
	leaq	-48(%rbp), %rax
	movq	%rax, %rcx
	call	_ZNSt6vectorIfSaIfEED1Ev
	cmpl	$1, %ebx
	jne	.L362
	movl	$1, %ebx
	jmp	.L348
.L362:
	movl	$0, %ebx
.L348:
	leaq	-16(%rbp), %rax
	movq	%rax, %rcx
	call	_ZNSt6vectorIfSaIfEED1Ev
	cmpl	$1, %ebx
	jmp	.L343
.L367:
	movq	%rax, %rbx
	leaq	-48(%rbp), %rax
	movq	%rax, %rcx
	call	_ZNSt6vectorIfSaIfEED1Ev
	jmp	.L365
.L366:
	movq	%rax, %rbx
.L365:
	leaq	-16(%rbp), %rax
	movq	%rax, %rcx
	call	_ZNSt6vectorIfSaIfEED1Ev
	movq	%rbx, %rax
	movq	%rax, %rcx
.LEHB64:
	call	_Unwind_Resume
.LEHE64:
.L368:
	nop
.L343:
	addq	$2840, %rsp
	popq	%rbx
	popq	%rsi
	popq	%rdi
	popq	%rbp
	ret
	.seh_handler	__gxx_personality_seh0, @unwind, @except
	.seh_handlerdata
.LLSDA10885:
	.byte	0xff
	.byte	0xff
	.byte	0x1
	.uleb128 .LLSDACSE10885-.LLSDACSB10885
.LLSDACSB10885:
	.uleb128 .LEHB61-.LFB10885
	.uleb128 .LEHE61-.LEHB61
	.uleb128 0
	.uleb128 0
	.uleb128 .LEHB62-.LFB10885
	.uleb128 .LEHE62-.LEHB62
	.uleb128 .L366-.LFB10885
	.uleb128 0
	.uleb128 .LEHB63-.LFB10885
	.uleb128 .LEHE63-.LEHB63
	.uleb128 .L367-.LFB10885
	.uleb128 0
	.uleb128 .LEHB64-.LFB10885
	.uleb128 .LEHE64-.LEHB64
	.uleb128 0
	.uleb128 0
.LLSDACSE10885:
	.text
	.seh_endproc
	.section	.text$_ZNSt4pairIiiEC1IiiLb1EEEv,"x"
	.linkonce discard
	.align 2
	.globl	_ZNSt4pairIiiEC1IiiLb1EEEv
	.def	_ZNSt4pairIiiEC1IiiLb1EEEv;	.scl	2;	.type	32;	.endef
	.seh_proc	_ZNSt4pairIiiEC1IiiLb1EEEv
_ZNSt4pairIiiEC1IiiLb1EEEv:
.LFB10889:
	pushq	%rbp
	.seh_pushreg	%rbp
	movq	%rsp, %rbp
	.seh_setframe	%rbp, 0
	.seh_endprologue
	movq	%rcx, 16(%rbp)
	movq	16(%rbp), %rax
	movl	$0, (%rax)
	movq	16(%rbp), %rax
	movl	$0, 4(%rax)
	nop
	popq	%rbp
	ret
	.seh_endproc
	.text
	.align 2
	.globl	_ZN5Snake6UpdateEv
	.def	_ZN5Snake6UpdateEv;	.scl	2;	.type	32;	.endef
	.seh_proc	_ZN5Snake6UpdateEv
_ZN5Snake6UpdateEv:
.LFB10886:
	pushq	%rbp
	.seh_pushreg	%rbp
	movq	%rsp, %rbp
	.seh_setframe	%rbp, 0
	subq	$48, %rsp
	.seh_stackalloc	48
	.seh_endprologue
	movq	%rcx, 16(%rbp)
	movq	16(%rbp), %rax
	movzbl	2969(%rax), %eax
	testb	%al, %al
	jne	.L374
	movq	$0, -12(%rbp)
	movq	16(%rbp), %rax
	addq	$2824, %rax
	movq	%rax, %rcx
	call	_ZNSt5dequeISt4pairIiiESaIS1_EE4backEv
	movq	%rax, %rdx
	movq	16(%rbp), %rax
	addq	$2904, %rax
	movq	%rax, %rcx
	call	_ZNSt4pairIiiEaSERKS0_
	movq	16(%rbp), %rax
	movl	2904(%rax), %edx
	movq	16(%rbp), %rax
	movl	2912(%rax), %ecx
	movq	16(%rbp), %rax
	movslq	%ecx, %rcx
	addq	$364, %rcx
	movl	8(%rax,%rcx,8), %eax
	addl	%edx, %eax
	movl	%eax, -12(%rbp)
	movq	16(%rbp), %rax
	movl	2908(%rax), %ecx
	movq	16(%rbp), %rax
	movl	2912(%rax), %edx
	movq	16(%rbp), %rax
	movslq	%edx, %rdx
	movl	2924(%rax,%rdx,8), %eax
	addl	%ecx, %eax
	movl	%eax, -8(%rbp)
	movq	16(%rbp), %rax
	movq	2960(%rax), %rax
	movq	-12(%rbp), %rdx
	movq	%rax, %rcx
	call	_ZN4Game6GetStaESt4pairIiiE
	movl	%eax, -4(%rbp)
	movq	16(%rbp), %rax
	leaq	2824(%rax), %rcx
	leaq	-12(%rbp), %rax
	movq	%rax, %rdx
	call	_ZNSt5dequeISt4pairIiiESaIS1_EE9push_backERKS1_
	movq	16(%rbp), %rax
	movq	2960(%rax), %rax
	movq	16(%rbp), %rdx
	movl	2916(%rdx), %edx
	movl	%edx, %ecx
	negl	%ecx
	movq	16(%rbp), %rdx
	movq	2904(%rdx), %rdx
	movl	%ecx, %r8d
	movq	%rax, %rcx
	call	_ZN4Game9ChangeStaESt4pairIiiEi
	movq	16(%rbp), %rax
	leaq	2904(%rax), %rcx
	leaq	-12(%rbp), %rax
	movq	%rax, %rdx
	call	_ZNSt4pairIiiEaSERKS0_
	movq	16(%rbp), %rax
	movl	2972(%rax), %eax
	leal	1(%rax), %edx
	movq	16(%rbp), %rax
	movl	%edx, 2972(%rax)
	jmp	.L370
.L374:
	nop
.L370:
	addq	$48, %rsp
	popq	%rbp
	ret
	.seh_endproc
	.align 2
	.globl	_ZN5Snake5CheckEv
	.def	_ZN5Snake5CheckEv;	.scl	2;	.type	32;	.endef
	.seh_proc	_ZN5Snake5CheckEv
_ZN5Snake5CheckEv:
.LFB10894:
	pushq	%rbp
	.seh_pushreg	%rbp
	pushq	%rbx
	.seh_pushreg	%rbx
	subq	$56, %rsp
	.seh_stackalloc	56
	leaq	48(%rsp), %rbp
	.seh_setframe	%rbp, 48
	.seh_endprologue
	movq	%rcx, 32(%rbp)
	movq	32(%rbp), %rax
	movzbl	2969(%rax), %eax
	testb	%al, %al
	jne	.L382
	movq	32(%rbp), %rax
	movq	2960(%rax), %rax
	movq	32(%rbp), %rdx
	movq	2904(%rdx), %rdx
	movq	%rax, %rcx
	call	_ZN4Game6GetStaESt4pairIiiE
	movl	%eax, -4(%rbp)
	movq	32(%rbp), %rax
	movq	2960(%rax), %rax
	movq	32(%rbp), %rdx
	movl	2916(%rdx), %ecx
	movq	32(%rbp), %rdx
	movq	2904(%rdx), %rdx
	movl	%ecx, %r8d
	movq	%rax, %rcx
	call	_ZN4Game9ChangeStaESt4pairIiiEi
	cmpl	$-1, -4(%rbp)
	je	.L378
	cmpl	$-9, -4(%rbp)
	jge	.L379
.L378:
	movq	32(%rbp), %rax
	addq	$2824, %rax
	movq	%rax, %rcx
	call	_ZNSt5dequeISt4pairIiiESaIS1_EE8pop_backEv
	movq	32(%rbp), %rax
	movq	%rax, %rcx
	call	_ZN5Snake6KilledEv
	jmp	.L375
.L379:
	cmpl	$0, -4(%rbp)
	jle	.L380
	movq	32(%rbp), %rax
	movl	2916(%rax), %eax
	cmpl	%eax, -4(%rbp)
	je	.L380
	movq	32(%rbp), %rax
	addq	$2824, %rax
	movq	%rax, %rcx
	call	_ZNSt5dequeISt4pairIiiESaIS1_EE8pop_backEv
	movq	32(%rbp), %rax
	movq	%rax, %rcx
	call	_ZN5Snake6KilledEv
	movq	32(%rbp), %rax
	movq	2960(%rax), %rax
	movl	-4(%rbp), %edx
	movq	%rax, %rcx
	call	_ZN4Game9KillSnakeEi
	jmp	.L375
.L380:
	cmpl	$-2, -4(%rbp)
	je	.L381
	movq	32(%rbp), %rax
	movq	2960(%rax), %rbx
	movq	32(%rbp), %rax
	addq	$2824, %rax
	movq	%rax, %rcx
	call	_ZNSt5dequeISt4pairIiiESaIS1_EE5frontEv
	movq	(%rax), %rax
	movl	$0, %r8d
	movq	%rax, %rdx
	movq	%rbx, %rcx
	call	_ZN4Game9ChangeStaESt4pairIiiEi
	movq	32(%rbp), %rax
	addq	$2824, %rax
	movq	%rax, %rcx
	call	_ZNSt5dequeISt4pairIiiESaIS1_EE9pop_frontEv
	jmp	.L375
.L381:
	movq	32(%rbp), %rax
	movl	2976(%rax), %eax
	leal	1(%rax), %edx
	movq	32(%rbp), %rax
	movl	%edx, 2976(%rax)
	jmp	.L375
.L382:
	nop
.L375:
	addq	$56, %rsp
	popq	%rbx
	popq	%rbp
	ret
	.seh_endproc
	.align 2
	.globl	_ZN5Snake6KilledEv
	.def	_ZN5Snake6KilledEv;	.scl	2;	.type	32;	.endef
	.seh_proc	_ZN5Snake6KilledEv
_ZN5Snake6KilledEv:
.LFB10895:
	pushq	%rbp
	.seh_pushreg	%rbp
	movq	%rsp, %rbp
	.seh_setframe	%rbp, 0
	.seh_endprologue
	movq	%rcx, 16(%rbp)
	movq	16(%rbp), %rax
	movb	$1, 2968(%rax)
	nop
	popq	%rbp
	ret
	.seh_endproc
	.align 2
	.globl	_ZN5Snake4CookEv
	.def	_ZN5Snake4CookEv;	.scl	2;	.type	32;	.endef
	.seh_proc	_ZN5Snake4CookEv
_ZN5Snake4CookEv:
.LFB10896:
	pushq	%rbp
	.seh_pushreg	%rbp
	movq	%rsp, %rbp
	.seh_setframe	%rbp, 0
	subq	$112, %rsp
	.seh_stackalloc	112
	.seh_endprologue
	movq	%rcx, 16(%rbp)
	movq	16(%rbp), %rax
	movzbl	2968(%rax), %eax
	xorl	$1, %eax
	testb	%al, %al
	jne	.L390
	movq	16(%rbp), %rax
	movzbl	2969(%rax), %eax
	testb	%al, %al
	jne	.L390
	movq	16(%rbp), %rax
	addq	$2824, %rax
	movq	%rax, -8(%rbp)
	leaq	-80(%rbp), %rax
	movq	-8(%rbp), %rdx
	movq	%rax, %rcx
	call	_ZNSt5dequeISt4pairIiiESaIS1_EE5beginEv
	leaq	-48(%rbp), %rax
	movq	-8(%rbp), %rdx
	movq	%rax, %rcx
	call	_ZNSt5dequeISt4pairIiiESaIS1_EE3endEv
	jmp	.L388
.L389:
	leaq	-80(%rbp), %rax
	movq	%rax, %rcx
	call	_ZNKSt15_Deque_iteratorISt4pairIiiERS1_PS1_EdeEv
	movq	(%rax), %rax
	movq	%rax, -16(%rbp)
	movq	16(%rbp), %rax
	movq	2960(%rax), %rax
	movq	-16(%rbp), %rdx
	movl	$-2, %r8d
	movq	%rax, %rcx
	call	_ZN4Game9ChangeStaESt4pairIiiEi
	leaq	-80(%rbp), %rax
	movq	%rax, %rcx
	call	_ZNSt15_Deque_iteratorISt4pairIiiERS1_PS1_EppEv
.L388:
	leaq	-48(%rbp), %rdx
	leaq	-80(%rbp), %rax
	movq	%rax, %rcx
	call	_ZStneRKSt15_Deque_iteratorISt4pairIiiERS1_PS1_ES6_
	testb	%al, %al
	jne	.L389
	movq	16(%rbp), %rax
	movb	$1, 2969(%rax)
	jmp	.L384
.L390:
	nop
.L384:
	addq	$112, %rsp
	popq	%rbp
	ret
	.seh_endproc
	.align 2
	.globl	_ZN5Snake12ChangeDirectEi
	.def	_ZN5Snake12ChangeDirectEi;	.scl	2;	.type	32;	.endef
	.seh_proc	_ZN5Snake12ChangeDirectEi
_ZN5Snake12ChangeDirectEi:
.LFB10897:
	pushq	%rbp
	.seh_pushreg	%rbp
	movq	%rsp, %rbp
	.seh_setframe	%rbp, 0
	.seh_endprologue
	movq	%rcx, 16(%rbp)
	movl	%edx, 24(%rbp)
	movq	16(%rbp), %rax
	movl	2912(%rax), %edx
	movq	16(%rbp), %rax
	movslq	%edx, %rdx
	addq	$364, %rdx
	movl	8(%rax,%rdx,8), %edx
	movq	16(%rbp), %rax
	movl	24(%rbp), %ecx
	movslq	%ecx, %rcx
	addq	$364, %rcx
	movl	8(%rax,%rcx,8), %eax
	negl	%eax
	cmpl	%eax, %edx
	jne	.L392
	movq	16(%rbp), %rax
	movl	2912(%rax), %edx
	movq	16(%rbp), %rax
	movslq	%edx, %rdx
	movl	2924(%rax,%rdx,8), %ecx
	movq	16(%rbp), %rax
	movl	24(%rbp), %edx
	movslq	%edx, %rdx
	movl	2924(%rax,%rdx,8), %eax
	negl	%eax
	cmpl	%eax, %ecx
	je	.L394
.L392:
	movq	16(%rbp), %rax
	movl	24(%rbp), %edx
	movl	%edx, 2912(%rax)
.L394:
	nop
	popq	%rbp
	ret
	.seh_endproc
	.align 2
	.globl	_ZN5Snake6IsDeadEv
	.def	_ZN5Snake6IsDeadEv;	.scl	2;	.type	32;	.endef
	.seh_proc	_ZN5Snake6IsDeadEv
_ZN5Snake6IsDeadEv:
.LFB10898:
	pushq	%rbp
	.seh_pushreg	%rbp
	movq	%rsp, %rbp
	.seh_setframe	%rbp, 0
	.seh_endprologue
	movq	%rcx, 16(%rbp)
	movq	16(%rbp), %rax
	movzbl	2968(%rax), %eax
	popq	%rbp
	ret
	.seh_endproc
	.align 2
	.globl	_ZN5Snake15UpdateTargetValEv
	.def	_ZN5Snake15UpdateTargetValEv;	.scl	2;	.type	32;	.endef
	.seh_proc	_ZN5Snake15UpdateTargetValEv
_ZN5Snake15UpdateTargetValEv:
.LFB10899:
	pushq	%rbp
	.seh_pushreg	%rbp
	pushq	%rbx
	.seh_pushreg	%rbx
	subq	$56, %rsp
	.seh_stackalloc	56
	leaq	32(%rsp), %rbp
	.seh_setframe	%rbp, 32
	movups	%xmm6, 0(%rbp)
	.seh_savexmm	%xmm6, 32
	.seh_endprologue
	movq	%rcx, 48(%rbp)
	movq	48(%rbp), %rax
	movl	2972(%rax), %ebx
	movq	48(%rbp), %rax
	addq	$2824, %rax
	movq	%rax, %rcx
	call	_ZNKSt5dequeISt4pairIiiESaIS1_EE4sizeEv
	addl	%ebx, %eax
	pxor	%xmm6, %xmm6
	cvtsi2sdl	%eax, %xmm6
	movq	48(%rbp), %rax
	movl	2976(%rax), %eax
	movl	%eax, %edx
	movl	$2, %ecx
	call	_ZSt3powIiiEN9__gnu_cxx11__promote_2IDTplcvNS1_IT_XsrSt12__is_integerIS2_E7__valueEE6__typeELi0EcvNS1_IT0_XsrS3_IS7_E7__valueEE6__typeELi0EEXsrS3_ISB_E7__valueEE6__typeES2_S7_
	addsd	%xmm6, %xmm0
	movq	48(%rbp), %rax
	movzbl	2968(%rax), %eax
	movzbl	%al, %eax
	negl	%eax
	andl	$50, %eax
	pxor	%xmm1, %xmm1
	cvtsi2sdl	%eax, %xmm1
	subsd	%xmm1, %xmm0
	cvttsd2sil	%xmm0, %edx
	movq	48(%rbp), %rax
	movl	%edx, 2980(%rax)
	nop
	movups	0(%rbp), %xmm6
	addq	$56, %rsp
	popq	%rbx
	popq	%rbp
	ret
	.seh_endproc
	.section	.text$_ZNSt12_Vector_baseISt5tupleIJiiiEESaIS1_EE12_Vector_implD1Ev,"x"
	.linkonce discard
	.align 2
	.globl	_ZNSt12_Vector_baseISt5tupleIJiiiEESaIS1_EE12_Vector_implD1Ev
	.def	_ZNSt12_Vector_baseISt5tupleIJiiiEESaIS1_EE12_Vector_implD1Ev;	.scl	2;	.type	32;	.endef
	.seh_proc	_ZNSt12_Vector_baseISt5tupleIJiiiEESaIS1_EE12_Vector_implD1Ev
_ZNSt12_Vector_baseISt5tupleIJiiiEESaIS1_EE12_Vector_implD1Ev:
.LFB10906:
	pushq	%rbp
	.seh_pushreg	%rbp
	movq	%rsp, %rbp
	.seh_setframe	%rbp, 0
	subq	$48, %rsp
	.seh_stackalloc	48
	.seh_endprologue
	movq	%rcx, 16(%rbp)
	movq	16(%rbp), %rax
	movq	%rax, -8(%rbp)
	movq	-8(%rbp), %rax
	movq	%rax, %rcx
	call	_ZNSt15__new_allocatorISt5tupleIJiiiEEED2Ev
	nop
	nop
	addq	$48, %rsp
	popq	%rbp
	ret
	.seh_endproc
	.section	.text$_ZNSt12_Vector_baseISt5tupleIJiiiEESaIS1_EEC2Ev,"x"
	.linkonce discard
	.align 2
	.globl	_ZNSt12_Vector_baseISt5tupleIJiiiEESaIS1_EEC2Ev
	.def	_ZNSt12_Vector_baseISt5tupleIJiiiEESaIS1_EEC2Ev;	.scl	2;	.type	32;	.endef
	.seh_proc	_ZNSt12_Vector_baseISt5tupleIJiiiEESaIS1_EEC2Ev
_ZNSt12_Vector_baseISt5tupleIJiiiEESaIS1_EEC2Ev:
.LFB10907:
	pushq	%rbp
	.seh_pushreg	%rbp
	movq	%rsp, %rbp
	.seh_setframe	%rbp, 0
	subq	$32, %rsp
	.seh_stackalloc	32
	.seh_endprologue
	movq	%rcx, 16(%rbp)
	movq	16(%rbp), %rax
	movq	%rax, %rcx
	call	_ZNSt12_Vector_baseISt5tupleIJiiiEESaIS1_EE12_Vector_implC1Ev
	nop
	addq	$32, %rsp
	popq	%rbp
	ret
	.seh_endproc
	.section	.text$_ZNSt6vectorISt5tupleIJiiiEESaIS1_EEC1Ev,"x"
	.linkonce discard
	.align 2
	.globl	_ZNSt6vectorISt5tupleIJiiiEESaIS1_EEC1Ev
	.def	_ZNSt6vectorISt5tupleIJiiiEESaIS1_EEC1Ev;	.scl	2;	.type	32;	.endef
	.seh_proc	_ZNSt6vectorISt5tupleIJiiiEESaIS1_EEC1Ev
_ZNSt6vectorISt5tupleIJiiiEESaIS1_EEC1Ev:
.LFB10910:
	pushq	%rbp
	.seh_pushreg	%rbp
	movq	%rsp, %rbp
	.seh_setframe	%rbp, 0
	subq	$32, %rsp
	.seh_stackalloc	32
	.seh_endprologue
	movq	%rcx, 16(%rbp)
	movq	16(%rbp), %rax
	movq	%rax, %rcx
	call	_ZNSt12_Vector_baseISt5tupleIJiiiEESaIS1_EEC2Ev
	nop
	addq	$32, %rsp
	popq	%rbp
	ret
	.seh_endproc
	.section	.text$_ZNSt12_Vector_baseI5SnakeSaIS0_EE12_Vector_implD1Ev,"x"
	.linkonce discard
	.align 2
	.globl	_ZNSt12_Vector_baseI5SnakeSaIS0_EE12_Vector_implD1Ev
	.def	_ZNSt12_Vector_baseI5SnakeSaIS0_EE12_Vector_implD1Ev;	.scl	2;	.type	32;	.endef
	.seh_proc	_ZNSt12_Vector_baseI5SnakeSaIS0_EE12_Vector_implD1Ev
_ZNSt12_Vector_baseI5SnakeSaIS0_EE12_Vector_implD1Ev:
.LFB10916:
	pushq	%rbp
	.seh_pushreg	%rbp
	movq	%rsp, %rbp
	.seh_setframe	%rbp, 0
	subq	$48, %rsp
	.seh_stackalloc	48
	.seh_endprologue
	movq	%rcx, 16(%rbp)
	movq	16(%rbp), %rax
	movq	%rax, -8(%rbp)
	movq	-8(%rbp), %rax
	movq	%rax, %rcx
	call	_ZNSt15__new_allocatorI5SnakeED2Ev
	nop
	nop
	addq	$48, %rsp
	popq	%rbp
	ret
	.seh_endproc
	.section	.text$_ZNSt12_Vector_baseI5SnakeSaIS0_EEC2Ev,"x"
	.linkonce discard
	.align 2
	.globl	_ZNSt12_Vector_baseI5SnakeSaIS0_EEC2Ev
	.def	_ZNSt12_Vector_baseI5SnakeSaIS0_EEC2Ev;	.scl	2;	.type	32;	.endef
	.seh_proc	_ZNSt12_Vector_baseI5SnakeSaIS0_EEC2Ev
_ZNSt12_Vector_baseI5SnakeSaIS0_EEC2Ev:
.LFB10917:
	pushq	%rbp
	.seh_pushreg	%rbp
	movq	%rsp, %rbp
	.seh_setframe	%rbp, 0
	subq	$32, %rsp
	.seh_stackalloc	32
	.seh_endprologue
	movq	%rcx, 16(%rbp)
	movq	16(%rbp), %rax
	movq	%rax, %rcx
	call	_ZNSt12_Vector_baseI5SnakeSaIS0_EE12_Vector_implC1Ev
	nop
	addq	$32, %rsp
	popq	%rbp
	ret
	.seh_endproc
	.section	.text$_ZNSt6vectorI5SnakeSaIS0_EEC1Ev,"x"
	.linkonce discard
	.align 2
	.globl	_ZNSt6vectorI5SnakeSaIS0_EEC1Ev
	.def	_ZNSt6vectorI5SnakeSaIS0_EEC1Ev;	.scl	2;	.type	32;	.endef
	.seh_proc	_ZNSt6vectorI5SnakeSaIS0_EEC1Ev
_ZNSt6vectorI5SnakeSaIS0_EEC1Ev:
.LFB10920:
	pushq	%rbp
	.seh_pushreg	%rbp
	movq	%rsp, %rbp
	.seh_setframe	%rbp, 0
	subq	$32, %rsp
	.seh_stackalloc	32
	.seh_endprologue
	movq	%rcx, 16(%rbp)
	movq	16(%rbp), %rax
	movq	%rax, %rcx
	call	_ZNSt12_Vector_baseI5SnakeSaIS0_EEC2Ev
	nop
	addq	$32, %rsp
	popq	%rbp
	ret
	.seh_endproc
	.text
	.align 2
	.globl	_ZN4GameC2Ei
	.def	_ZN4GameC2Ei;	.scl	2;	.type	32;	.endef
	.seh_proc	_ZN4GameC2Ei
_ZN4GameC2Ei:
.LFB10921:
	pushq	%rbp
	.seh_pushreg	%rbp
	pushq	%rbx
	.seh_pushreg	%rbx
	subq	$88, %rsp
	.seh_stackalloc	88
	leaq	80(%rsp), %rbp
	.seh_setframe	%rbp, 80
	.seh_endprologue
	movq	%rcx, 32(%rbp)
	movl	%edx, 40(%rbp)
	movq	32(%rbp), %rax
	addq	$8, %rax
	movq	%rax, %rcx
	call	_ZNSt6vectorIS_IiSaIiEESaIS1_EEC1Ev
	movq	32(%rbp), %rax
	addq	$32, %rax
	movq	%rax, %rcx
	call	_ZNSt6vectorISt5tupleIJiiiEESaIS1_EEC1Ev
	movq	32(%rbp), %rax
	movl	$10, 56(%rax)
	movq	32(%rbp), %rax
	addq	$64, %rax
	movq	%rax, %rcx
	call	_ZNSt6vectorI5SnakeSaIS0_EEC1Ev
	movq	32(%rbp), %rax
	movl	40(%rbp), %edx
	movl	%edx, (%rax)
	movq	32(%rbp), %rax
	leaq	8(%rax), %rbx
	leaq	-21(%rbp), %rax
	movq	%rax, -16(%rbp)
	nop
	nop
	movl	$0, -20(%rbp)
	movq	32(%rbp), %rax
	movl	(%rax), %eax
	addl	$2, %eax
	movslq	%eax, %rdx
	leaq	-21(%rbp), %r8
	leaq	-20(%rbp), %rcx
	leaq	-48(%rbp), %rax
	movq	%r8, %r9
	movq	%rcx, %r8
	movq	%rax, %rcx
.LEHB65:
	call	_ZNSt6vectorIiSaIiEEC1EyRKiRKS0_
.LEHE65:
	movq	32(%rbp), %rax
	movl	(%rax), %eax
	addl	$2, %eax
	cltq
	leaq	-48(%rbp), %rdx
	movq	%rdx, %r8
	movq	%rax, %rdx
	movq	%rbx, %rcx
.LEHB66:
	call	_ZNSt6vectorIS_IiSaIiEESaIS1_EE6resizeEyRKS1_
.LEHE66:
	leaq	-48(%rbp), %rax
	movq	%rax, %rcx
	call	_ZNSt6vectorIiSaIiEED1Ev
	leaq	-21(%rbp), %rax
	movq	%rax, %rcx
	call	_ZNSt15__new_allocatorIiED2Ev
	nop
	movl	$0, -4(%rbp)
	jmp	.L405
.L406:
	movq	32(%rbp), %rax
	addq	$8, %rax
	movl	$0, %edx
	movq	%rax, %rcx
	call	_ZNSt6vectorIS_IiSaIiEESaIS1_EEixEy
	movq	%rax, %rcx
	movl	-4(%rbp), %eax
	cltq
	movq	%rax, %rdx
	call	_ZNSt6vectorIiSaIiEEixEy
	movl	$-1, (%rax)
	movq	32(%rbp), %rax
	leaq	8(%rax), %rcx
	movq	32(%rbp), %rax
	movl	(%rax), %eax
	addl	$1, %eax
	cltq
	movq	%rax, %rdx
	call	_ZNSt6vectorIS_IiSaIiEESaIS1_EEixEy
	movq	%rax, %rcx
	movl	-4(%rbp), %eax
	cltq
	movq	%rax, %rdx
	call	_ZNSt6vectorIiSaIiEEixEy
	movl	$-1, (%rax)
	movq	32(%rbp), %rax
	leaq	8(%rax), %rcx
	movl	-4(%rbp), %eax
	cltq
	movq	%rax, %rdx
	call	_ZNSt6vectorIS_IiSaIiEESaIS1_EEixEy
	movl	$0, %edx
	movq	%rax, %rcx
	call	_ZNSt6vectorIiSaIiEEixEy
	movl	$-1, (%rax)
	movq	32(%rbp), %rax
	leaq	8(%rax), %rcx
	movl	-4(%rbp), %eax
	cltq
	movq	%rax, %rdx
	call	_ZNSt6vectorIS_IiSaIiEESaIS1_EEixEy
	movq	%rax, %rcx
	movq	32(%rbp), %rax
	movl	(%rax), %eax
	addl	$1, %eax
	cltq
	movq	%rax, %rdx
	call	_ZNSt6vectorIiSaIiEEixEy
	movl	$-1, (%rax)
	addl	$1, -4(%rbp)
.L405:
	movq	32(%rbp), %rax
	movl	(%rax), %eax
	addl	$1, %eax
	cmpl	%eax, -4(%rbp)
	jle	.L406
	jmp	.L411
.L410:
	movq	%rax, %rbx
	leaq	-48(%rbp), %rax
	movq	%rax, %rcx
	call	_ZNSt6vectorIiSaIiEED1Ev
	jmp	.L408
.L409:
	movq	%rax, %rbx
.L408:
	leaq	-21(%rbp), %rax
	movq	%rax, %rcx
	call	_ZNSt15__new_allocatorIiED2Ev
	nop
	movq	32(%rbp), %rax
	addq	$64, %rax
	movq	%rax, %rcx
	call	_ZNSt6vectorI5SnakeSaIS0_EED1Ev
	movq	32(%rbp), %rax
	addq	$32, %rax
	movq	%rax, %rcx
	call	_ZNSt6vectorISt5tupleIJiiiEESaIS1_EED1Ev
	movq	32(%rbp), %rax
	addq	$8, %rax
	movq	%rax, %rcx
	call	_ZNSt6vectorIS_IiSaIiEESaIS1_EED1Ev
	movq	%rbx, %rax
	movq	%rax, %rcx
.LEHB67:
	call	_Unwind_Resume
	nop
.LEHE67:
.L411:
	addq	$88, %rsp
	popq	%rbx
	popq	%rbp
	ret
	.seh_handler	__gxx_personality_seh0, @unwind, @except
	.seh_handlerdata
.LLSDA10921:
	.byte	0xff
	.byte	0xff
	.byte	0x1
	.uleb128 .LLSDACSE10921-.LLSDACSB10921
.LLSDACSB10921:
	.uleb128 .LEHB65-.LFB10921
	.uleb128 .LEHE65-.LEHB65
	.uleb128 .L409-.LFB10921
	.uleb128 0
	.uleb128 .LEHB66-.LFB10921
	.uleb128 .LEHE66-.LEHB66
	.uleb128 .L410-.LFB10921
	.uleb128 0
	.uleb128 .LEHB67-.LFB10921
	.uleb128 .LEHE67-.LEHB67
	.uleb128 0
	.uleb128 0
.LLSDACSE10921:
	.text
	.seh_endproc
	.globl	_ZN4GameC1Ei
	.def	_ZN4GameC1Ei;	.scl	2;	.type	32;	.endef
	.set	_ZN4GameC1Ei,_ZN4GameC2Ei
	.align 2
	.globl	_ZN4Game6UpdateEv
	.def	_ZN4Game6UpdateEv;	.scl	2;	.type	32;	.endef
	.seh_proc	_ZN4Game6UpdateEv
_ZN4Game6UpdateEv:
.LFB10923:
	pushq	%rbp
	.seh_pushreg	%rbp
	movq	%rsp, %rbp
	.seh_setframe	%rbp, 0
	subq	$176, %rsp
	.seh_stackalloc	176
	.seh_endprologue
	movq	%rcx, 16(%rbp)
	movq	16(%rbp), %rax
	addq	$64, %rax
	movq	%rax, -8(%rbp)
	movq	-8(%rbp), %rax
	movq	%rax, %rcx
	call	_ZNSt6vectorI5SnakeSaIS0_EE5beginEv
	movq	%rax, -104(%rbp)
	movq	-8(%rbp), %rax
	movq	%rax, %rcx
	call	_ZNSt6vectorI5SnakeSaIS0_EE3endEv
	movq	%rax, -112(%rbp)
	jmp	.L413
.L419:
	movq	-104(%rbp), %rax
	movq	%rax, -48(%rbp)
	movq	-48(%rbp), %rax
	movq	%rax, %rcx
	call	_ZN5Snake6UpdateEv
	movq	-104(%rbp), %rax
	addq	$2984, %rax
	movq	%rax, -104(%rbp)
	nop
.L413:
	leaq	-104(%rbp), %rax
	movq	%rax, -56(%rbp)
	movq	-56(%rbp), %rax
	movq	(%rax), %rdx
	leaq	-112(%rbp), %rax
	movq	%rax, -64(%rbp)
	movq	-64(%rbp), %rax
	movq	(%rax), %rax
	cmpq	%rax, %rdx
	setne	%al
	testb	%al, %al
	jne	.L419
	movq	16(%rbp), %rax
	addq	$64, %rax
	movq	%rax, -16(%rbp)
	movq	-16(%rbp), %rax
	movq	%rax, %rcx
	call	_ZNSt6vectorI5SnakeSaIS0_EE5beginEv
	movq	%rax, -120(%rbp)
	movq	-16(%rbp), %rax
	movq	%rax, %rcx
	call	_ZNSt6vectorI5SnakeSaIS0_EE3endEv
	movq	%rax, -128(%rbp)
	jmp	.L420
.L426:
	movq	-120(%rbp), %rax
	movq	%rax, -40(%rbp)
	movq	-40(%rbp), %rax
	movq	%rax, %rcx
	call	_ZN5Snake5CheckEv
	movq	-120(%rbp), %rax
	addq	$2984, %rax
	movq	%rax, -120(%rbp)
	nop
.L420:
	leaq	-120(%rbp), %rax
	movq	%rax, -72(%rbp)
	movq	-72(%rbp), %rax
	movq	(%rax), %rdx
	leaq	-128(%rbp), %rax
	movq	%rax, -80(%rbp)
	movq	-80(%rbp), %rax
	movq	(%rax), %rax
	cmpq	%rax, %rdx
	setne	%al
	testb	%al, %al
	jne	.L426
	movq	16(%rbp), %rax
	addq	$64, %rax
	movq	%rax, -24(%rbp)
	movq	-24(%rbp), %rax
	movq	%rax, %rcx
	call	_ZNSt6vectorI5SnakeSaIS0_EE5beginEv
	movq	%rax, -136(%rbp)
	movq	-24(%rbp), %rax
	movq	%rax, %rcx
	call	_ZNSt6vectorI5SnakeSaIS0_EE3endEv
	movq	%rax, -144(%rbp)
	jmp	.L427
.L433:
	movq	-136(%rbp), %rax
	movq	%rax, -32(%rbp)
	movq	-32(%rbp), %rax
	movq	%rax, %rcx
	call	_ZN5Snake4CookEv
	movq	-136(%rbp), %rax
	addq	$2984, %rax
	movq	%rax, -136(%rbp)
	nop
.L427:
	leaq	-136(%rbp), %rax
	movq	%rax, -88(%rbp)
	movq	-88(%rbp), %rax
	movq	(%rax), %rdx
	leaq	-144(%rbp), %rax
	movq	%rax, -96(%rbp)
	movq	-96(%rbp), %rax
	movq	(%rax), %rax
	cmpq	%rax, %rdx
	setne	%al
	testb	%al, %al
	jne	.L433
	nop
	nop
	addq	$176, %rsp
	popq	%rbp
	ret
	.seh_endproc
	.align 2
	.globl	_ZN4Game4ShowEv
	.def	_ZN4Game4ShowEv;	.scl	2;	.type	32;	.endef
	.seh_proc	_ZN4Game4ShowEv
_ZN4Game4ShowEv:
.LFB10927:
	pushq	%rbp
	.seh_pushreg	%rbp
	movq	%rsp, %rbp
	.seh_setframe	%rbp, 0
	.seh_endprologue
	movq	%rcx, 16(%rbp)
	nop
	popq	%rbp
	ret
	.seh_endproc
	.section	.text$_ZN5SnakeD1Ev,"x"
	.linkonce discard
	.align 2
	.globl	_ZN5SnakeD1Ev
	.def	_ZN5SnakeD1Ev;	.scl	2;	.type	32;	.endef
	.seh_proc	_ZN5SnakeD1Ev
_ZN5SnakeD1Ev:
.LFB10931:
	pushq	%rbp
	.seh_pushreg	%rbp
	movq	%rsp, %rbp
	.seh_setframe	%rbp, 0
	subq	$32, %rsp
	.seh_stackalloc	32
	.seh_endprologue
	movq	%rcx, 16(%rbp)
	movq	16(%rbp), %rax
	addq	$2824, %rax
	movq	%rax, %rcx
	call	_ZNSt5dequeISt4pairIiiESaIS1_EED1Ev
	movq	16(%rbp), %rax
	addq	$2608, %rax
	movq	%rax, %rcx
	call	_ZN7FeatureD1Ev
	movq	16(%rbp), %rax
	addq	$24, %rax
	movq	%rax, %rcx
	call	_ZN13NeuralNetworkD1Ev
	movq	16(%rbp), %rax
	movq	%rax, %rcx
	call	_ZNSt6vectorIySaIyEED1Ev
	nop
	addq	$32, %rsp
	popq	%rbp
	ret
	.seh_endproc
	.text
	.align 2
	.globl	_ZN4Game11CreateSnakeEv
	.def	_ZN4Game11CreateSnakeEv;	.scl	2;	.type	32;	.endef
	.seh_proc	_ZN4Game11CreateSnakeEv
_ZN4Game11CreateSnakeEv:
.LFB10928:
	pushq	%rbp
	.seh_pushreg	%rbp
	pushq	%rbx
	.seh_pushreg	%rbx
	subq	$3112, %rsp
	.seh_stackalloc	3112
	leaq	128(%rsp), %rbp
	.seh_setframe	%rbp, 128
	.seh_endprologue
	movq	%rcx, 3008(%rbp)
	movl	$4, 2968(%rbp)
	movb	$0, 2975(%rbp)
	jmp	.L437
.L448:
	movb	$1, 2975(%rbp)
	leaq	rng(%rip), %rax
	movq	%rax, %rcx
.LEHB68:
	call	_ZNSt23mersenne_twister_engineIjLy32ELy624ELy397ELy31ELj2567483615ELy11ELj4294967295ELy7ELj2636928640ELy15ELj4022730752ELy18ELj1812433253EEclEv
	movq	3008(%rbp), %rdx
	movl	(%rdx), %edx
	movl	%edx, %ecx
	movl	$0, %edx
	divl	%ecx
	movl	%edx, %eax
	movl	%eax, 2932(%rbp)
	leaq	rng(%rip), %rax
	movq	%rax, %rcx
	call	_ZNSt23mersenne_twister_engineIjLy32ELy624ELy397ELy31ELj2567483615ELy11ELj4294967295ELy7ELj2636928640ELy15ELj4022730752ELy18ELj1812433253EEclEv
	movq	3008(%rbp), %rdx
	movl	(%rdx), %edx
	movl	%edx, %ecx
	movl	$0, %edx
	divl	%ecx
	movl	%edx, %eax
	movl	%eax, 2928(%rbp)
	movl	2932(%rbp), %eax
	subl	2968(%rbp), %eax
	movl	%eax, 2936(%rbp)
	movl	$0, 2940(%rbp)
	leaq	2936(%rbp), %rdx
	leaq	2940(%rbp), %rax
	movq	%rax, %rcx
	call	_ZSt3maxIiERKT_S2_S2_
	movl	(%rax), %eax
	movl	%eax, -68(%rbp)
	jmp	.L438
.L447:
	movl	2928(%rbp), %eax
	subl	2968(%rbp), %eax
	movl	%eax, 2944(%rbp)
	movl	$0, 2948(%rbp)
	leaq	2944(%rbp), %rdx
	leaq	2948(%rbp), %rax
	movq	%rax, %rcx
	call	_ZSt3maxIiERKT_S2_S2_
	movl	(%rax), %eax
	movl	%eax, -72(%rbp)
	jmp	.L439
.L445:
	leaq	-72(%rbp), %rdx
	leaq	-68(%rbp), %rax
	movq	%rax, %rcx
	call	_ZSt9make_pairIRiS0_ESt4pairINSt25__strip_reference_wrapperINSt5decayIT_E4typeEE6__typeENS2_INS3_IT0_E4typeEE6__typeEEOS4_OS9_
	movq	%rax, %rdx
	movq	3008(%rbp), %rax
	movq	%rax, %rcx
	call	_ZN4Game6GetStaESt4pairIiiE
	cmpl	$-1, %eax
	je	.L440
	leaq	-72(%rbp), %rdx
	leaq	-68(%rbp), %rax
	movq	%rax, %rcx
	call	_ZSt9make_pairIRiS0_ESt4pairINSt25__strip_reference_wrapperINSt5decayIT_E4typeEE6__typeENS2_INS3_IT0_E4typeEE6__typeEEOS4_OS9_
	movq	%rax, %rdx
	movq	3008(%rbp), %rax
	movq	%rax, %rcx
	call	_ZN4Game6GetStaESt4pairIiiE
	testl	%eax, %eax
	jg	.L440
	leaq	-72(%rbp), %rdx
	leaq	-68(%rbp), %rax
	movq	%rax, %rcx
	call	_ZSt9make_pairIRiS0_ESt4pairINSt25__strip_reference_wrapperINSt5decayIT_E4typeEE6__typeENS2_INS3_IT0_E4typeEE6__typeEEOS4_OS9_
	movq	%rax, %rdx
	movq	3008(%rbp), %rax
	movq	%rax, %rcx
	call	_ZN4Game6GetStaESt4pairIiiE
	cmpl	$-9, %eax
	jge	.L441
.L440:
	movl	$1, %eax
	jmp	.L442
.L441:
	movl	$0, %eax
.L442:
	testb	%al, %al
	je	.L443
	movb	$0, 2975(%rbp)
.L443:
	movl	-72(%rbp), %eax
	addl	$1, %eax
	movl	%eax, -72(%rbp)
.L439:
	movq	3008(%rbp), %rax
	movl	(%rax), %edx
	movl	-72(%rbp), %eax
	cmpl	%eax, %edx
	jle	.L444
	movl	2928(%rbp), %edx
	movl	2968(%rbp), %eax
	addl	%eax, %edx
	movl	-72(%rbp), %eax
	cmpl	%eax, %edx
	jg	.L445
.L444:
	movl	-68(%rbp), %eax
	addl	$1, %eax
	movl	%eax, -68(%rbp)
.L438:
	movq	3008(%rbp), %rax
	movl	(%rax), %edx
	movl	-68(%rbp), %eax
	cmpl	%eax, %edx
	jle	.L437
	movl	2932(%rbp), %edx
	movl	2968(%rbp), %eax
	addl	%eax, %edx
	movl	-68(%rbp), %eax
	cmpl	%eax, %edx
	jge	.L447
.L437:
	movzbl	2975(%rbp), %eax
	xorl	$1, %eax
	testb	%al, %al
	jne	.L448
	movq	3008(%rbp), %rax
	movl	56(%rax), %eax
	leal	1(%rax), %ecx
	movq	3008(%rbp), %rdx
	movl	%ecx, 56(%rdx)
	movl	%eax, 2964(%rbp)
	leaq	2928(%rbp), %rdx
	leaq	2932(%rbp), %rax
	movq	%rax, %rcx
	call	_ZSt9make_pairIRiS0_ESt4pairINSt25__strip_reference_wrapperINSt5decayIT_E4typeEE6__typeENS2_INS3_IT0_E4typeEE6__typeEEOS4_OS9_
	movq	%rax, %rcx
	movl	2964(%rbp), %r8d
	movq	3008(%rbp), %rdx
	leaq	-64(%rbp), %rax
	movl	$2, 32(%rsp)
	movq	%rcx, %r9
	movq	%rax, %rcx
	call	_ZN5SnakeC1EP4GameiSt4pairIiiEi
.LEHE68:
	movq	3008(%rbp), %rax
	leaq	64(%rax), %rcx
	leaq	-64(%rbp), %rax
	movq	%rax, %rdx
.LEHB69:
	call	_ZNSt6vectorI5SnakeSaIS0_EE9push_backERKS0_
	movl	2964(%rbp), %eax
	negl	%eax
	movl	%eax, %ebx
	movl	2928(%rbp), %eax
	subl	$2, %eax
	movl	%eax, 2952(%rbp)
	leaq	2952(%rbp), %rdx
	leaq	2932(%rbp), %rax
	movq	%rax, %rcx
	call	_ZSt9make_pairIRiiESt4pairINSt25__strip_reference_wrapperINSt5decayIT_E4typeEE6__typeENS2_INS3_IT0_E4typeEE6__typeEEOS4_OS9_
	movq	%rax, %rdx
	movq	3008(%rbp), %rax
	movl	%ebx, %r8d
	movq	%rax, %rcx
	call	_ZN4Game9ChangeStaESt4pairIiiEi
	movl	2964(%rbp), %eax
	negl	%eax
	movl	%eax, %ebx
	movl	2928(%rbp), %eax
	subl	$1, %eax
	movl	%eax, 2956(%rbp)
	leaq	2956(%rbp), %rdx
	leaq	2932(%rbp), %rax
	movq	%rax, %rcx
	call	_ZSt9make_pairIRiiESt4pairINSt25__strip_reference_wrapperINSt5decayIT_E4typeEE6__typeENS2_INS3_IT0_E4typeEE6__typeEEOS4_OS9_
	movq	%rax, %rdx
	movq	3008(%rbp), %rax
	movl	%ebx, %r8d
	movq	%rax, %rcx
	call	_ZN4Game9ChangeStaESt4pairIiiEi
	movl	2964(%rbp), %eax
	negl	%eax
	movl	%eax, %ebx
	leaq	2928(%rbp), %rdx
	leaq	2932(%rbp), %rax
	movq	%rax, %rcx
	call	_ZSt9make_pairIRiS0_ESt4pairINSt25__strip_reference_wrapperINSt5decayIT_E4typeEE6__typeENS2_INS3_IT0_E4typeEE6__typeEEOS4_OS9_
	movq	%rax, %rdx
	movq	3008(%rbp), %rax
	movl	%ebx, %r8d
	movq	%rax, %rcx
	call	_ZN4Game9ChangeStaESt4pairIiiEi
	movl	2928(%rbp), %eax
	addl	$1, %eax
	movl	%eax, 2960(%rbp)
	leaq	2960(%rbp), %rdx
	leaq	2932(%rbp), %rax
	movq	%rax, %rcx
	call	_ZSt9make_pairIRiiESt4pairINSt25__strip_reference_wrapperINSt5decayIT_E4typeEE6__typeENS2_INS3_IT0_E4typeEE6__typeEEOS4_OS9_
.LEHE69:
	movq	%rax, %rdx
	movl	2964(%rbp), %ecx
	movq	3008(%rbp), %rax
	movl	%ecx, %r8d
	movq	%rax, %rcx
	call	_ZN4Game9ChangeStaESt4pairIiiEi
	leaq	-64(%rbp), %rax
	movq	%rax, %rcx
	call	_ZN5SnakeD1Ev
	jmp	.L451
.L450:
	movq	%rax, %rbx
	leaq	-64(%rbp), %rax
	movq	%rax, %rcx
	call	_ZN5SnakeD1Ev
	movq	%rbx, %rax
	movq	%rax, %rcx
.LEHB70:
	call	_Unwind_Resume
	nop
.LEHE70:
.L451:
	addq	$3112, %rsp
	popq	%rbx
	popq	%rbp
	ret
	.seh_handler	__gxx_personality_seh0, @unwind, @except
	.seh_handlerdata
.LLSDA10928:
	.byte	0xff
	.byte	0xff
	.byte	0x1
	.uleb128 .LLSDACSE10928-.LLSDACSB10928
.LLSDACSB10928:
	.uleb128 .LEHB68-.LFB10928
	.uleb128 .LEHE68-.LEHB68
	.uleb128 0
	.uleb128 0
	.uleb128 .LEHB69-.LFB10928
	.uleb128 .LEHE69-.LEHB69
	.uleb128 .L450-.LFB10928
	.uleb128 0
	.uleb128 .LEHB70-.LFB10928
	.uleb128 .LEHE70-.LEHB70
	.uleb128 0
	.uleb128 0
.LLSDACSE10928:
	.text
	.seh_endproc
	.section	.text$_ZN13NeuralNetworkaSERKS_,"x"
	.linkonce discard
	.align 2
	.globl	_ZN13NeuralNetworkaSERKS_
	.def	_ZN13NeuralNetworkaSERKS_;	.scl	2;	.type	32;	.endef
	.seh_proc	_ZN13NeuralNetworkaSERKS_
_ZN13NeuralNetworkaSERKS_:
.LFB10933:
	pushq	%rbp
	.seh_pushreg	%rbp
	pushq	%rdi
	.seh_pushreg	%rdi
	pushq	%rsi
	.seh_pushreg	%rsi
	subq	$32, %rsp
	.seh_stackalloc	32
	leaq	32(%rsp), %rbp
	.seh_setframe	%rbp, 32
	.seh_endprologue
	movq	%rcx, 32(%rbp)
	movq	%rdx, 40(%rbp)
	movq	40(%rbp), %rdx
	movq	32(%rbp), %rax
	movq	%rax, %rcx
	call	_ZNSt6vectorIySaIyEEaSERKS1_
	movq	40(%rbp), %rax
	movl	24(%rax), %edx
	movq	32(%rbp), %rax
	movl	%edx, 24(%rax)
	movq	40(%rbp), %rax
	leaq	32(%rax), %rdx
	movq	32(%rbp), %rax
	addq	$32, %rax
	movq	%rax, %rcx
	call	_ZNSt6vectorIS_IS_IfSaIfEESaIS1_EESaIS3_EEaSERKS5_
	movq	40(%rbp), %rax
	leaq	56(%rax), %rdx
	movq	32(%rbp), %rax
	addq	$56, %rax
	movq	%rax, %rcx
	call	_ZNSt6vectorIS_IfSaIfEESaIS1_EEaSERKS3_
	movq	32(%rbp), %rax
	movq	40(%rbp), %rdx
	addq	$80, %rax
	addq	$80, %rdx
	movl	$313, %ecx
	movq	%rax, %rdi
	movq	%rdx, %rsi
	rep movsq
	movq	32(%rbp), %rax
	addq	$32, %rsp
	popq	%rsi
	popq	%rdi
	popq	%rbp
	ret
	.seh_endproc
	.text
	.align 2
	.globl	_ZN4Game18CreateSnakeWithNetERK13NeuralNetwork
	.def	_ZN4Game18CreateSnakeWithNetERK13NeuralNetwork;	.scl	2;	.type	32;	.endef
	.seh_proc	_ZN4Game18CreateSnakeWithNetERK13NeuralNetwork
_ZN4Game18CreateSnakeWithNetERK13NeuralNetwork:
.LFB10932:
	pushq	%rbp
	.seh_pushreg	%rbp
	pushq	%rbx
	.seh_pushreg	%rbx
	subq	$3112, %rsp
	.seh_stackalloc	3112
	leaq	128(%rsp), %rbp
	.seh_setframe	%rbp, 128
	.seh_endprologue
	movq	%rcx, 3008(%rbp)
	movq	%rdx, 3016(%rbp)
	movl	$3, 2968(%rbp)
	movb	$0, 2975(%rbp)
	jmp	.L455
.L466:
	movb	$1, 2975(%rbp)
	leaq	rng(%rip), %rax
	movq	%rax, %rcx
.LEHB71:
	call	_ZNSt23mersenne_twister_engineIjLy32ELy624ELy397ELy31ELj2567483615ELy11ELj4294967295ELy7ELj2636928640ELy15ELj4022730752ELy18ELj1812433253EEclEv
	movq	3008(%rbp), %rdx
	movl	(%rdx), %edx
	movl	%edx, %ecx
	movl	$0, %edx
	divl	%ecx
	movl	%edx, %eax
	movl	%eax, 2936(%rbp)
	leaq	rng(%rip), %rax
	movq	%rax, %rcx
	call	_ZNSt23mersenne_twister_engineIjLy32ELy624ELy397ELy31ELj2567483615ELy11ELj4294967295ELy7ELj2636928640ELy15ELj4022730752ELy18ELj1812433253EEclEv
	movq	3008(%rbp), %rdx
	movl	(%rdx), %edx
	movl	%edx, %ecx
	movl	$0, %edx
	divl	%ecx
	movl	%edx, %eax
	movl	%eax, 2932(%rbp)
	movl	2936(%rbp), %eax
	subl	2968(%rbp), %eax
	movl	%eax, 2940(%rbp)
	movl	$0, 2944(%rbp)
	leaq	2940(%rbp), %rdx
	leaq	2944(%rbp), %rax
	movq	%rax, %rcx
	call	_ZSt3maxIiERKT_S2_S2_
	movl	(%rax), %eax
	movl	%eax, -68(%rbp)
	jmp	.L456
.L465:
	movl	2932(%rbp), %eax
	subl	2968(%rbp), %eax
	movl	%eax, 2948(%rbp)
	movl	$0, 2952(%rbp)
	leaq	2948(%rbp), %rdx
	leaq	2952(%rbp), %rax
	movq	%rax, %rcx
	call	_ZSt3maxIiERKT_S2_S2_
	movl	(%rax), %eax
	movl	%eax, -72(%rbp)
	jmp	.L457
.L463:
	leaq	-72(%rbp), %rdx
	leaq	-68(%rbp), %rax
	movq	%rax, %rcx
	call	_ZSt9make_pairIRiS0_ESt4pairINSt25__strip_reference_wrapperINSt5decayIT_E4typeEE6__typeENS2_INS3_IT0_E4typeEE6__typeEEOS4_OS9_
	movq	%rax, %rdx
	movq	3008(%rbp), %rax
	movq	%rax, %rcx
	call	_ZN4Game6GetStaESt4pairIiiE
	cmpl	$-1, %eax
	je	.L458
	leaq	-72(%rbp), %rdx
	leaq	-68(%rbp), %rax
	movq	%rax, %rcx
	call	_ZSt9make_pairIRiS0_ESt4pairINSt25__strip_reference_wrapperINSt5decayIT_E4typeEE6__typeENS2_INS3_IT0_E4typeEE6__typeEEOS4_OS9_
	movq	%rax, %rdx
	movq	3008(%rbp), %rax
	movq	%rax, %rcx
	call	_ZN4Game6GetStaESt4pairIiiE
	testl	%eax, %eax
	jg	.L458
	leaq	-72(%rbp), %rdx
	leaq	-68(%rbp), %rax
	movq	%rax, %rcx
	call	_ZSt9make_pairIRiS0_ESt4pairINSt25__strip_reference_wrapperINSt5decayIT_E4typeEE6__typeENS2_INS3_IT0_E4typeEE6__typeEEOS4_OS9_
	movq	%rax, %rdx
	movq	3008(%rbp), %rax
	movq	%rax, %rcx
	call	_ZN4Game6GetStaESt4pairIiiE
	cmpl	$-9, %eax
	jge	.L459
.L458:
	movl	$1, %eax
	jmp	.L460
.L459:
	movl	$0, %eax
.L460:
	testb	%al, %al
	je	.L461
	movb	$0, 2975(%rbp)
.L461:
	movl	-72(%rbp), %eax
	addl	$1, %eax
	movl	%eax, -72(%rbp)
.L457:
	movq	3008(%rbp), %rax
	movl	(%rax), %edx
	movl	-72(%rbp), %eax
	cmpl	%eax, %edx
	jle	.L462
	movl	2932(%rbp), %edx
	movl	2968(%rbp), %eax
	addl	%eax, %edx
	movl	-72(%rbp), %eax
	cmpl	%eax, %edx
	jg	.L463
.L462:
	movl	-68(%rbp), %eax
	addl	$1, %eax
	movl	%eax, -68(%rbp)
.L456:
	movq	3008(%rbp), %rax
	movl	(%rax), %edx
	movl	-68(%rbp), %eax
	cmpl	%eax, %edx
	jle	.L455
	movl	2936(%rbp), %edx
	movl	2968(%rbp), %eax
	addl	%eax, %edx
	movl	-68(%rbp), %eax
	cmpl	%eax, %edx
	jge	.L465
.L455:
	movzbl	2975(%rbp), %eax
	xorl	$1, %eax
	testb	%al, %al
	jne	.L466
	movq	3008(%rbp), %rax
	movl	56(%rax), %eax
	leal	1(%rax), %ecx
	movq	3008(%rbp), %rdx
	movl	%ecx, 56(%rdx)
	movl	%eax, 2964(%rbp)
	leaq	2932(%rbp), %rdx
	leaq	2936(%rbp), %rax
	movq	%rax, %rcx
	call	_ZSt9make_pairIRiS0_ESt4pairINSt25__strip_reference_wrapperINSt5decayIT_E4typeEE6__typeENS2_INS3_IT0_E4typeEE6__typeEEOS4_OS9_
	movq	%rax, %rcx
	movl	2964(%rbp), %r8d
	movq	3008(%rbp), %rdx
	leaq	-64(%rbp), %rax
	movl	$2, 32(%rsp)
	movq	%rcx, %r9
	movq	%rax, %rcx
	call	_ZN5SnakeC1EP4GameiSt4pairIiiEi
.LEHE71:
	movq	3016(%rbp), %rax
	leaq	-64(%rbp), %rdx
	leaq	24(%rdx), %rcx
	movq	%rax, %rdx
.LEHB72:
	call	_ZN13NeuralNetworkaSERKS_
	movq	3016(%rbp), %rax
	movq	%rax, %rcx
	call	_ZNK13NeuralNetwork6layersEv
	movq	%rax, %rdx
	leaq	-64(%rbp), %rax
	movq	%rax, %rcx
	call	_ZNSt6vectorIySaIyEEaSERKS1_
	movq	3008(%rbp), %rax
	leaq	64(%rax), %rcx
	leaq	-64(%rbp), %rax
	movq	%rax, %rdx
	call	_ZNSt6vectorI5SnakeSaIS0_EE9push_backERKS0_
	movl	2964(%rbp), %eax
	negl	%eax
	movl	%eax, %ebx
	movl	2932(%rbp), %eax
	subl	$1, %eax
	movl	%eax, 2956(%rbp)
	leaq	2956(%rbp), %rdx
	leaq	2936(%rbp), %rax
	movq	%rax, %rcx
	call	_ZSt9make_pairIRiiESt4pairINSt25__strip_reference_wrapperINSt5decayIT_E4typeEE6__typeENS2_INS3_IT0_E4typeEE6__typeEEOS4_OS9_
	movq	%rax, %rdx
	movq	3008(%rbp), %rax
	movl	%ebx, %r8d
	movq	%rax, %rcx
	call	_ZN4Game9ChangeStaESt4pairIiiEi
	movl	2964(%rbp), %eax
	negl	%eax
	movl	%eax, %ebx
	leaq	2932(%rbp), %rdx
	leaq	2936(%rbp), %rax
	movq	%rax, %rcx
	call	_ZSt9make_pairIRiS0_ESt4pairINSt25__strip_reference_wrapperINSt5decayIT_E4typeEE6__typeENS2_INS3_IT0_E4typeEE6__typeEEOS4_OS9_
	movq	%rax, %rdx
	movq	3008(%rbp), %rax
	movl	%ebx, %r8d
	movq	%rax, %rcx
	call	_ZN4Game9ChangeStaESt4pairIiiEi
	movl	2932(%rbp), %eax
	addl	$1, %eax
	movl	%eax, 2960(%rbp)
	leaq	2960(%rbp), %rdx
	leaq	2936(%rbp), %rax
	movq	%rax, %rcx
	call	_ZSt9make_pairIRiiESt4pairINSt25__strip_reference_wrapperINSt5decayIT_E4typeEE6__typeENS2_INS3_IT0_E4typeEE6__typeEEOS4_OS9_
.LEHE72:
	movq	%rax, %rdx
	movl	2964(%rbp), %ecx
	movq	3008(%rbp), %rax
	movl	%ecx, %r8d
	movq	%rax, %rcx
	call	_ZN4Game9ChangeStaESt4pairIiiEi
	leaq	-64(%rbp), %rax
	movq	%rax, %rcx
	call	_ZN5SnakeD1Ev
	jmp	.L469
.L468:
	movq	%rax, %rbx
	leaq	-64(%rbp), %rax
	movq	%rax, %rcx
	call	_ZN5SnakeD1Ev
	movq	%rbx, %rax
	movq	%rax, %rcx
.LEHB73:
	call	_Unwind_Resume
	nop
.LEHE73:
.L469:
	addq	$3112, %rsp
	popq	%rbx
	popq	%rbp
	ret
	.seh_handler	__gxx_personality_seh0, @unwind, @except
	.seh_handlerdata
.LLSDA10932:
	.byte	0xff
	.byte	0xff
	.byte	0x1
	.uleb128 .LLSDACSE10932-.LLSDACSB10932
.LLSDACSB10932:
	.uleb128 .LEHB71-.LFB10932
	.uleb128 .LEHE71-.LEHB71
	.uleb128 0
	.uleb128 0
	.uleb128 .LEHB72-.LFB10932
	.uleb128 .LEHE72-.LEHB72
	.uleb128 .L468-.LFB10932
	.uleb128 0
	.uleb128 .LEHB73-.LFB10932
	.uleb128 .LEHE73-.LEHB73
	.uleb128 0
	.uleb128 0
.LLSDACSE10932:
	.text
	.seh_endproc
	.align 2
	.globl	_ZN4Game11CreateAppleEv
	.def	_ZN4Game11CreateAppleEv;	.scl	2;	.type	32;	.endef
	.seh_proc	_ZN4Game11CreateAppleEv
_ZN4Game11CreateAppleEv:
.LFB10934:
	pushq	%rbp
	.seh_pushreg	%rbp
	movq	%rsp, %rbp
	.seh_setframe	%rbp, 0
	subq	$64, %rsp
	.seh_stackalloc	64
	.seh_endprologue
	movq	%rcx, 16(%rbp)
	leaq	rng(%rip), %rax
	movq	%rax, %rcx
	call	_ZNSt23mersenne_twister_engineIjLy32ELy624ELy397ELy31ELj2567483615ELy11ELj4294967295ELy7ELj2636928640ELy15ELj4022730752ELy18ELj1812433253EEclEv
	movq	16(%rbp), %rdx
	movl	(%rdx), %edx
	movl	%edx, %ecx
	movl	$0, %edx
	divl	%ecx
	movl	%edx, %eax
	movl	%eax, -20(%rbp)
	leaq	rng(%rip), %rax
	movq	%rax, %rcx
	call	_ZNSt23mersenne_twister_engineIjLy32ELy624ELy397ELy31ELj2567483615ELy11ELj4294967295ELy7ELj2636928640ELy15ELj4022730752ELy18ELj1812433253EEclEv
	movq	16(%rbp), %rdx
	movl	(%rdx), %edx
	movl	%edx, %ecx
	movl	$0, %edx
	divl	%ecx
	movl	%edx, %eax
	movl	%eax, -24(%rbp)
	jmp	.L471
.L472:
	leaq	rng(%rip), %rax
	movq	%rax, %rcx
	call	_ZNSt23mersenne_twister_engineIjLy32ELy624ELy397ELy31ELj2567483615ELy11ELj4294967295ELy7ELj2636928640ELy15ELj4022730752ELy18ELj1812433253EEclEv
	movq	16(%rbp), %rdx
	movl	(%rdx), %edx
	movl	%edx, %ecx
	movl	$0, %edx
	divl	%ecx
	movl	%edx, %eax
	movl	%eax, -20(%rbp)
	leaq	rng(%rip), %rax
	movq	%rax, %rcx
	call	_ZNSt23mersenne_twister_engineIjLy32ELy624ELy397ELy31ELj2567483615ELy11ELj4294967295ELy7ELj2636928640ELy15ELj4022730752ELy18ELj1812433253EEclEv
	movq	16(%rbp), %rdx
	movl	(%rdx), %edx
	movl	%edx, %ecx
	movl	$0, %edx
	divl	%ecx
	movl	%edx, %eax
	movl	%eax, -24(%rbp)
.L471:
	leaq	-24(%rbp), %rcx
	leaq	-20(%rbp), %rdx
	leaq	-16(%rbp), %rax
	movq	%rcx, %r8
	movq	%rax, %rcx
	call	_ZNSt4pairIiiEC1IRiS2_Lb1EEEOT_OT0_
	movq	-16(%rbp), %rdx
	movq	16(%rbp), %rax
	movq	%rax, %rcx
	call	_ZN4Game6GetStaESt4pairIiiE
	testl	%eax, %eax
	setne	%al
	testb	%al, %al
	jne	.L472
	leaq	-24(%rbp), %rcx
	leaq	-20(%rbp), %rdx
	leaq	-8(%rbp), %rax
	movq	%rcx, %r8
	movq	%rax, %rcx
	call	_ZNSt4pairIiiEC1IRiS2_Lb1EEEOT_OT0_
	movq	-8(%rbp), %rdx
	movq	16(%rbp), %rax
	movl	$-2, %r8d
	movq	%rax, %rcx
	call	_ZN4Game9ChangeStaESt4pairIiiEi
	nop
	addq	$64, %rsp
	popq	%rbp
	ret
	.seh_endproc
	.section	.text$_ZN4Game6GetStaESt4pairIiiE,"x"
	.linkonce discard
	.align 2
	.globl	_ZN4Game6GetStaESt4pairIiiE
	.def	_ZN4Game6GetStaESt4pairIiiE;	.scl	2;	.type	32;	.endef
	.seh_proc	_ZN4Game6GetStaESt4pairIiiE
_ZN4Game6GetStaESt4pairIiiE:
.LFB10935:
	pushq	%rbp
	.seh_pushreg	%rbp
	movq	%rsp, %rbp
	.seh_setframe	%rbp, 0
	subq	$32, %rsp
	.seh_stackalloc	32
	.seh_endprologue
	movq	%rcx, 16(%rbp)
	movq	%rdx, 24(%rbp)
	movq	16(%rbp), %rax
	leaq	8(%rax), %rcx
	movl	24(%rbp), %eax
	cltq
	movq	%rax, %rdx
	call	_ZNSt6vectorIS_IiSaIiEESaIS1_EEixEy
	movq	%rax, %rcx
	movl	28(%rbp), %eax
	cltq
	movq	%rax, %rdx
	call	_ZNSt6vectorIiSaIiEEixEy
	movl	(%rax), %eax
	addq	$32, %rsp
	popq	%rbp
	ret
	.seh_endproc
	.text
	.align 2
	.globl	_ZN4Game9ChangeStaESt4pairIiiEi
	.def	_ZN4Game9ChangeStaESt4pairIiiEi;	.scl	2;	.type	32;	.endef
	.seh_proc	_ZN4Game9ChangeStaESt4pairIiiEi
_ZN4Game9ChangeStaESt4pairIiiEi:
.LFB10936:
	pushq	%rbp
	.seh_pushreg	%rbp
	pushq	%rbx
	.seh_pushreg	%rbx
	subq	$40, %rsp
	.seh_stackalloc	40
	leaq	32(%rsp), %rbp
	.seh_setframe	%rbp, 32
	.seh_endprologue
	movq	%rcx, 32(%rbp)
	movq	%rdx, 40(%rbp)
	movl	%r8d, 48(%rbp)
	movl	48(%rbp), %ebx
	movq	32(%rbp), %rax
	leaq	8(%rax), %rcx
	movl	40(%rbp), %eax
	cltq
	movq	%rax, %rdx
	call	_ZNSt6vectorIS_IiSaIiEESaIS1_EEixEy
	movq	%rax, %rcx
	movl	44(%rbp), %eax
	cltq
	movq	%rax, %rdx
	call	_ZNSt6vectorIiSaIiEEixEy
	movl	%ebx, (%rax)
	nop
	addq	$40, %rsp
	popq	%rbx
	popq	%rbp
	ret
	.seh_endproc
	.align 2
	.globl	_ZN4Game9KillSnakeEi
	.def	_ZN4Game9KillSnakeEi;	.scl	2;	.type	32;	.endef
	.seh_proc	_ZN4Game9KillSnakeEi
_ZN4Game9KillSnakeEi:
.LFB10937:
	pushq	%rbp
	.seh_pushreg	%rbp
	pushq	%rbx
	.seh_pushreg	%rbx
	subq	$40, %rsp
	.seh_stackalloc	40
	leaq	32(%rsp), %rbp
	.seh_setframe	%rbp, 32
	.seh_endprologue
	movq	%rcx, 32(%rbp)
	movl	%edx, 40(%rbp)
	cmpl	$9, 40(%rbp)
	jle	.L477
	movl	40(%rbp), %eax
	leal	-9(%rax), %ebx
	movq	32(%rbp), %rax
	addq	$64, %rax
	movq	%rax, %rcx
	call	_ZNKSt6vectorI5SnakeSaIS0_EE4sizeEv
	cmpl	%eax, %ebx
	jg	.L477
	movl	$1, %eax
	jmp	.L478
.L477:
	movl	$0, %eax
.L478:
	testb	%al, %al
	je	.L480
	movq	32(%rbp), %rax
	leaq	64(%rax), %rcx
	movl	40(%rbp), %eax
	subl	$10, %eax
	cltq
	movq	%rax, %rdx
	call	_ZNSt6vectorI5SnakeSaIS0_EEixEy
	movq	%rax, %rcx
	call	_ZN5Snake6KilledEv
.L480:
	nop
	addq	$40, %rsp
	popq	%rbx
	popq	%rbp
	ret
	.seh_endproc
	.align 2
	.globl	_ZN4Game12ChangeDirectEii
	.def	_ZN4Game12ChangeDirectEii;	.scl	2;	.type	32;	.endef
	.seh_proc	_ZN4Game12ChangeDirectEii
_ZN4Game12ChangeDirectEii:
.LFB10938:
	pushq	%rbp
	.seh_pushreg	%rbp
	pushq	%rbx
	.seh_pushreg	%rbx
	subq	$40, %rsp
	.seh_stackalloc	40
	leaq	32(%rsp), %rbp
	.seh_setframe	%rbp, 32
	.seh_endprologue
	movq	%rcx, 32(%rbp)
	movl	%edx, 40(%rbp)
	movl	%r8d, 48(%rbp)
	cmpl	$9, 40(%rbp)
	jle	.L482
	movl	40(%rbp), %eax
	leal	-9(%rax), %ebx
	movq	32(%rbp), %rax
	addq	$64, %rax
	movq	%rax, %rcx
	call	_ZNKSt6vectorI5SnakeSaIS0_EE4sizeEv
	cmpl	%eax, %ebx
	jg	.L482
	movl	$1, %eax
	jmp	.L483
.L482:
	movl	$0, %eax
.L483:
	testb	%al, %al
	je	.L485
	movq	32(%rbp), %rax
	leaq	64(%rax), %rcx
	movl	40(%rbp), %eax
	subl	$10, %eax
	cltq
	movq	%rax, %rdx
	call	_ZNSt6vectorI5SnakeSaIS0_EEixEy
	movq	%rax, %rcx
	movl	48(%rbp), %eax
	movl	%eax, %edx
	call	_ZN5Snake12ChangeDirectEi
.L485:
	nop
	addq	$40, %rsp
	popq	%rbx
	popq	%rbp
	ret
	.seh_endproc
	.align 2
	.globl	_ZN4Game19UpdateAllSnakeTurnsEi
	.def	_ZN4Game19UpdateAllSnakeTurnsEi;	.scl	2;	.type	32;	.endef
	.seh_proc	_ZN4Game19UpdateAllSnakeTurnsEi
_ZN4Game19UpdateAllSnakeTurnsEi:
.LFB10939:
	pushq	%rbp
	.seh_pushreg	%rbp
	movq	%rsp, %rbp
	.seh_setframe	%rbp, 0
	subq	$112, %rsp
	.seh_stackalloc	112
	.seh_endprologue
	movq	%rcx, 16(%rbp)
	movl	%edx, 24(%rbp)
	movq	16(%rbp), %rax
	addq	$64, %rax
	movq	%rax, %rcx
	call	_ZNKSt6vectorI5SnakeSaIS0_EE4sizeEv
	movl	%eax, -56(%rbp)
	movl	$1, -52(%rbp)
	leaq	-56(%rbp), %rdx
	leaq	-52(%rbp), %rax
	movq	%rax, %rcx
	call	_ZSt3maxIiERKT_S2_S2_
	movl	(%rax), %eax
	movl	%eax, -4(%rbp)
	movq	16(%rbp), %rax
	movl	(%rax), %edx
	movq	16(%rbp), %rax
	movl	(%rax), %eax
	imull	%edx, %eax
	movl	%eax, -48(%rbp)
	movl	$1, -44(%rbp)
	leaq	-48(%rbp), %rdx
	leaq	-44(%rbp), %rax
	movq	%rax, %rcx
	call	_ZSt3maxIiERKT_S2_S2_
	movl	(%rax), %eax
	movl	%eax, -8(%rbp)
	movq	16(%rbp), %rax
	addq	$64, %rax
	movq	%rax, -16(%rbp)
	movq	-16(%rbp), %rax
	movq	%rax, %rcx
	call	_ZNSt6vectorI5SnakeSaIS0_EE5beginEv
	movq	%rax, -64(%rbp)
	movq	-16(%rbp), %rax
	movq	%rax, %rcx
	call	_ZNSt6vectorI5SnakeSaIS0_EE3endEv
	movq	%rax, -72(%rbp)
	jmp	.L487
.L493:
	movq	-64(%rbp), %rax
	movq	%rax, -24(%rbp)
	movl	24(%rbp), %r8d
	movl	-8(%rbp), %ecx
	movl	-4(%rbp), %edx
	movq	-24(%rbp), %rax
	movl	%r8d, %r9d
	movl	%ecx, %r8d
	movq	%rax, %rcx
	call	_ZN5Snake13RunNetAndTurnEiii
	movq	-64(%rbp), %rax
	addq	$2984, %rax
	movq	%rax, -64(%rbp)
	nop
.L487:
	leaq	-64(%rbp), %rax
	movq	%rax, -32(%rbp)
	movq	-32(%rbp), %rax
	movq	(%rax), %rdx
	leaq	-72(%rbp), %rax
	movq	%rax, -40(%rbp)
	movq	-40(%rbp), %rax
	movq	(%rax), %rax
	cmpq	%rax, %rdx
	setne	%al
	testb	%al, %al
	jne	.L493
	nop
	nop
	addq	$112, %rsp
	popq	%rbp
	ret
	.seh_endproc
	.section .rdata,"dr"
.LC17:
	.ascii "[\0"
.LC18:
	.ascii "] \0"
.LC19:
	.ascii "x\0"
.LC20:
	.ascii "\12\0"
	.text
	.align 2
	.def	_ZZN4Game20PrintFeatureForSnakeEiENKUlRKSt6vectorIS0_IfSaIfEESaIS2_EERKNSt7__cxx1112basic_stringIcSt11char_traitsIcESaIcEEEE_clES6_SE_;	.scl	3;	.type	32;	.endef
	.seh_proc	_ZZN4Game20PrintFeatureForSnakeEiENKUlRKSt6vectorIS0_IfSaIfEESaIS2_EERKNSt7__cxx1112basic_stringIcSt11char_traitsIcESaIcEEEE_clES6_SE_
_ZZN4Game20PrintFeatureForSnakeEiENKUlRKSt6vectorIS0_IfSaIfEESaIS2_EERKNSt7__cxx1112basic_stringIcSt11char_traitsIcESaIcEEEE_clES6_SE_:
.LFB10941:
	pushq	%rbp
	.seh_pushreg	%rbp
	pushq	%rbx
	.seh_pushreg	%rbx
	subq	$136, %rsp
	.seh_stackalloc	136
	leaq	128(%rsp), %rbp
	.seh_setframe	%rbp, 128
	.seh_endprologue
	movq	%rcx, 32(%rbp)
	movq	%rdx, 40(%rbp)
	movq	%r8, 48(%rbp)
	leaq	.LC17(%rip), %rdx
	movq	.refptr._ZSt4cout(%rip), %rax
	movq	%rax, %rcx
	call	_ZStlsISt11char_traitsIcEERSt13basic_ostreamIcT_ES5_PKc
	movq	%rax, %rcx
	movq	48(%rbp), %rax
	movq	%rax, %rdx
	call	_ZStlsIcSt11char_traitsIcESaIcEERSt13basic_ostreamIT_T0_ES7_RKNSt7__cxx1112basic_stringIS4_S5_T1_EE
	movq	%rax, %rcx
	leaq	.LC18(%rip), %rax
	movq	%rax, %rdx
	call	_ZStlsISt11char_traitsIcEERSt13basic_ostreamIcT_ES5_PKc
	movq	%rax, %rbx
	movq	40(%rbp), %rax
	movq	%rax, %rcx
	call	_ZNKSt6vectorIS_IfSaIfEESaIS1_EE4sizeEv
	movq	%rax, %rdx
	movq	%rbx, %rcx
	call	_ZNSolsEy
	movq	%rax, %rcx
	leaq	.LC19(%rip), %rax
	movq	%rax, %rdx
	call	_ZStlsISt11char_traitsIcEERSt13basic_ostreamIcT_ES5_PKc
	movq	%rax, %rbx
	movq	40(%rbp), %rax
	movq	%rax, %rcx
	call	_ZNKSt6vectorIS_IfSaIfEESaIS1_EE5emptyEv
	testb	%al, %al
	je	.L495
	movl	$0, %eax
	jmp	.L496
.L495:
	movq	40(%rbp), %rax
	movl	$0, %edx
	movq	%rax, %rcx
	call	_ZNKSt6vectorIS_IfSaIfEESaIS1_EEixEy
	movq	%rax, %rcx
	call	_ZNKSt6vectorIfSaIfEE4sizeEv
.L496:
	movq	%rax, %rdx
	movq	%rbx, %rcx
	call	_ZNSolsEy
	movq	%rax, %rcx
	leaq	.LC20(%rip), %rax
	movq	%rax, %rdx
	call	_ZStlsISt11char_traitsIcEERSt13basic_ostreamIcT_ES5_PKc
	movq	40(%rbp), %rax
	movq	%rax, -8(%rbp)
	movq	-8(%rbp), %rax
	movq	%rax, %rcx
	call	_ZNKSt6vectorIS_IfSaIfEESaIS1_EE5beginEv
	movq	%rax, -72(%rbp)
	movq	-8(%rbp), %rax
	movq	%rax, %rcx
	call	_ZNKSt6vectorIS_IfSaIfEESaIS1_EE3endEv
	movq	%rax, -80(%rbp)
	jmp	.L497
.L510:
	movq	-72(%rbp), %rax
	movq	%rax, -16(%rbp)
	movq	-16(%rbp), %rax
	movq	%rax, -24(%rbp)
	movq	-24(%rbp), %rax
	movq	%rax, %rcx
	call	_ZNKSt6vectorIfSaIfEE5beginEv
	movq	%rax, -88(%rbp)
	movq	-24(%rbp), %rax
	movq	%rax, %rcx
	call	_ZNKSt6vectorIfSaIfEE3endEv
	movq	%rax, -96(%rbp)
	jmp	.L499
.L505:
	movq	-88(%rbp), %rax
	movss	(%rax), %xmm0
	movss	%xmm0, -28(%rbp)
	movl	$4, %ecx
	call	_ZSt4setwi
	movl	%eax, %edx
	movq	.refptr._ZSt4cout(%rip), %rax
	movq	%rax, %rcx
	call	_ZStlsIcSt11char_traitsIcEERSt13basic_ostreamIT_T0_ES6_St5_Setw
	leaq	_ZSt5fixedRSt8ios_base(%rip), %rdx
	movq	%rax, %rcx
	call	_ZNSolsEPFRSt8ios_baseS0_E
	movq	%rax, %rbx
	movl	$1, %ecx
	call	_ZSt12setprecisioni
	movl	%eax, %edx
	movq	%rbx, %rcx
	call	_ZStlsIcSt11char_traitsIcEERSt13basic_ostreamIT_T0_ES6_St13_Setprecision
	movss	-28(%rbp), %xmm0
	movaps	%xmm0, %xmm1
	movq	%rax, %rcx
	call	_ZNSolsEf
	movq	-88(%rbp), %rax
	addq	$4, %rax
	movq	%rax, -88(%rbp)
	nop
.L499:
	leaq	-88(%rbp), %rax
	movq	%rax, -40(%rbp)
	movq	-40(%rbp), %rax
	movq	(%rax), %rdx
	leaq	-96(%rbp), %rax
	movq	%rax, -48(%rbp)
	movq	-48(%rbp), %rax
	movq	(%rax), %rax
	cmpq	%rax, %rdx
	setne	%al
	testb	%al, %al
	jne	.L505
	leaq	.LC20(%rip), %rdx
	movq	.refptr._ZSt4cout(%rip), %rax
	movq	%rax, %rcx
	call	_ZStlsISt11char_traitsIcEERSt13basic_ostreamIcT_ES5_PKc
	movq	-72(%rbp), %rax
	addq	$24, %rax
	movq	%rax, -72(%rbp)
	nop
.L497:
	leaq	-72(%rbp), %rax
	movq	%rax, -56(%rbp)
	movq	-56(%rbp), %rax
	movq	(%rax), %rdx
	leaq	-80(%rbp), %rax
	movq	%rax, -64(%rbp)
	movq	-64(%rbp), %rax
	movq	(%rax), %rax
	cmpq	%rax, %rdx
	setne	%al
	testb	%al, %al
	jne	.L510
	nop
	nop
	addq	$136, %rsp
	popq	%rbx
	popq	%rbp
	ret
	.seh_endproc
	.section .rdata,"dr"
.LC21:
	.ascii "snake id out of range\12\0"
.LC22:
	.ascii "wall\0"
.LC23:
	.ascii "apple\0"
.LC24:
	.ascii "self_body\0"
.LC25:
	.ascii "self_head\0"
.LC26:
	.ascii "other_body\0"
.LC27:
	.ascii "other_head\0"
.LC28:
	.ascii "[len_norm] \0"
.LC29:
	.ascii "[head_x_norm] \0"
.LC30:
	.ascii "[head_y_norm] \0"
.LC31:
	.ascii "[dir one-hot] \0"
	.text
	.align 2
	.globl	_ZN4Game20PrintFeatureForSnakeEi
	.def	_ZN4Game20PrintFeatureForSnakeEi;	.scl	2;	.type	32;	.endef
	.seh_proc	_ZN4Game20PrintFeatureForSnakeEi
_ZN4Game20PrintFeatureForSnakeEi:
.LFB10940:
	pushq	%rbp
	.seh_pushreg	%rbp
	pushq	%r12
	.seh_pushreg	%r12
	pushq	%rdi
	.seh_pushreg	%rdi
	pushq	%rsi
	.seh_pushreg	%rsi
	pushq	%rbx
	.seh_pushreg	%rbx
	subq	$480, %rsp
	.seh_stackalloc	480
	leaq	128(%rsp), %rbp
	.seh_setframe	%rbp, 128
	.seh_endprologue
	movq	%rcx, 400(%rbp)
	movl	%edx, 408(%rbp)
	cmpl	$9, 408(%rbp)
	jle	.L512
	movl	408(%rbp), %eax
	leal	-9(%rax), %ebx
	movq	400(%rbp), %rax
	addq	$64, %rax
	movq	%rax, %rcx
	call	_ZNKSt6vectorI5SnakeSaIS0_EE4sizeEv
	cmpl	%eax, %ebx
	jle	.L513
.L512:
	movl	$1, %eax
	jmp	.L514
.L513:
	movl	$0, %eax
.L514:
	testb	%al, %al
	je	.L515
	leaq	.LC21(%rip), %rdx
	movq	.refptr._ZSt4cout(%rip), %rax
	movq	%rax, %rcx
.LEHB74:
	call	_ZStlsISt11char_traitsIcEERSt13basic_ostreamIcT_ES5_PKc
	jmp	.L511
.L515:
	movl	408(%rbp), %eax
	subl	$10, %eax
	movl	%eax, 348(%rbp)
	movq	400(%rbp), %rax
	addq	$64, %rax
	movq	%rax, %rcx
	call	_ZNKSt6vectorI5SnakeSaIS0_EE4sizeEv
	movl	%eax, -32(%rbp)
	movl	$1, -28(%rbp)
	leaq	-32(%rbp), %rdx
	leaq	-28(%rbp), %rax
	movq	%rax, %rcx
	call	_ZSt3maxIiERKT_S2_S2_
	movl	(%rax), %eax
	movl	%eax, 344(%rbp)
	movq	400(%rbp), %rax
	movl	(%rax), %edx
	movq	400(%rbp), %rax
	movl	(%rax), %eax
	imull	%edx, %eax
	movl	%eax, -24(%rbp)
	movl	$1, -20(%rbp)
	leaq	-24(%rbp), %rdx
	leaq	-20(%rbp), %rax
	movq	%rax, %rcx
	call	_ZSt3maxIiERKT_S2_S2_
	movl	(%rax), %eax
	movl	%eax, 340(%rbp)
	movq	400(%rbp), %rax
	leaq	64(%rax), %rcx
	movl	348(%rbp), %eax
	cltq
	movq	%rax, %rdx
	call	_ZNSt6vectorI5SnakeSaIS0_EEixEy
	movq	%rax, %r12
	movq	400(%rbp), %rax
	movl	(%rax), %edi
	movq	400(%rbp), %rax
	leaq	64(%rax), %rcx
	movl	348(%rbp), %eax
	cltq
	movq	%rax, %rdx
	call	_ZNSt6vectorI5SnakeSaIS0_EEixEy
	movl	2908(%rax), %esi
	movq	400(%rbp), %rax
	leaq	64(%rax), %rcx
	movl	348(%rbp), %eax
	cltq
	movq	%rax, %rdx
	call	_ZNSt6vectorI5SnakeSaIS0_EEixEy
	movl	2904(%rax), %ebx
	movq	400(%rbp), %rax
	leaq	64(%rax), %rcx
	movl	348(%rbp), %eax
	cltq
	movq	%rax, %rdx
	call	_ZNSt6vectorI5SnakeSaIS0_EEixEy
	movl	2912(%rax), %ecx
	movl	340(%rbp), %edx
	movl	344(%rbp), %eax
	movl	$10, 56(%rsp)
	movl	%edi, 48(%rsp)
	movl	%esi, 40(%rsp)
	movl	%ebx, 32(%rsp)
	movl	%ecx, %r9d
	movl	%edx, %r8d
	movl	%eax, %edx
	movq	%r12, %rcx
	call	_ZN5Snake10GetFeatureEiiiiiii
.LEHE74:
	movq	%rax, 328(%rbp)
	leaq	31(%rbp), %rax
	movq	%rax, 312(%rbp)
	nop
	nop
	leaq	31(%rbp), %rcx
	leaq	.LC22(%rip), %rdx
	leaq	-16(%rbp), %rax
	movq	%rcx, %r8
	movq	%rax, %rcx
.LEHB75:
	call	_ZNSt7__cxx1112basic_stringIcSt11char_traitsIcESaIcEEC1IS3_EEPKcRKS3_
.LEHE75:
	movq	328(%rbp), %rax
	movq	%rax, %rcx
	call	_ZNK7Feature4wallEv
	movq	%rax, %rdx
	leaq	-16(%rbp), %rcx
	leaq	-33(%rbp), %rax
	movq	%rcx, %r8
	movq	%rax, %rcx
.LEHB76:
	call	_ZZN4Game20PrintFeatureForSnakeEiENKUlRKSt6vectorIS0_IfSaIfEESaIS2_EERKNSt7__cxx1112basic_stringIcSt11char_traitsIcESaIcEEEE_clES6_SE_
.LEHE76:
	leaq	-16(%rbp), %rax
	movq	%rax, %rcx
	call	_ZNSt7__cxx1112basic_stringIcSt11char_traitsIcESaIcEED1Ev
	leaq	31(%rbp), %rax
	movq	%rax, %rcx
	call	_ZNSt15__new_allocatorIcED2Ev
	nop
	leaq	79(%rbp), %rax
	movq	%rax, 304(%rbp)
	nop
	nop
	leaq	79(%rbp), %rcx
	leaq	.LC23(%rip), %rdx
	leaq	32(%rbp), %rax
	movq	%rcx, %r8
	movq	%rax, %rcx
.LEHB77:
	call	_ZNSt7__cxx1112basic_stringIcSt11char_traitsIcESaIcEEC1IS3_EEPKcRKS3_
.LEHE77:
	movq	328(%rbp), %rax
	movq	%rax, %rcx
	call	_ZNK7Feature5appleEv
	movq	%rax, %rdx
	leaq	32(%rbp), %rcx
	leaq	-33(%rbp), %rax
	movq	%rcx, %r8
	movq	%rax, %rcx
.LEHB78:
	call	_ZZN4Game20PrintFeatureForSnakeEiENKUlRKSt6vectorIS0_IfSaIfEESaIS2_EERKNSt7__cxx1112basic_stringIcSt11char_traitsIcESaIcEEEE_clES6_SE_
.LEHE78:
	leaq	32(%rbp), %rax
	movq	%rax, %rcx
	call	_ZNSt7__cxx1112basic_stringIcSt11char_traitsIcESaIcEED1Ev
	leaq	79(%rbp), %rax
	movq	%rax, %rcx
	call	_ZNSt15__new_allocatorIcED2Ev
	nop
	leaq	127(%rbp), %rax
	movq	%rax, 296(%rbp)
	nop
	nop
	leaq	127(%rbp), %rcx
	leaq	.LC24(%rip), %rdx
	leaq	80(%rbp), %rax
	movq	%rcx, %r8
	movq	%rax, %rcx
.LEHB79:
	call	_ZNSt7__cxx1112basic_stringIcSt11char_traitsIcESaIcEEC1IS3_EEPKcRKS3_
.LEHE79:
	movq	328(%rbp), %rax
	movq	%rax, %rcx
	call	_ZNK7Feature9self_bodyEv
	movq	%rax, %rdx
	leaq	80(%rbp), %rcx
	leaq	-33(%rbp), %rax
	movq	%rcx, %r8
	movq	%rax, %rcx
.LEHB80:
	call	_ZZN4Game20PrintFeatureForSnakeEiENKUlRKSt6vectorIS0_IfSaIfEESaIS2_EERKNSt7__cxx1112basic_stringIcSt11char_traitsIcESaIcEEEE_clES6_SE_
.LEHE80:
	leaq	80(%rbp), %rax
	movq	%rax, %rcx
	call	_ZNSt7__cxx1112basic_stringIcSt11char_traitsIcESaIcEED1Ev
	leaq	127(%rbp), %rax
	movq	%rax, %rcx
	call	_ZNSt15__new_allocatorIcED2Ev
	nop
	leaq	175(%rbp), %rax
	movq	%rax, 288(%rbp)
	nop
	nop
	leaq	175(%rbp), %rcx
	leaq	.LC25(%rip), %rdx
	leaq	128(%rbp), %rax
	movq	%rcx, %r8
	movq	%rax, %rcx
.LEHB81:
	call	_ZNSt7__cxx1112basic_stringIcSt11char_traitsIcESaIcEEC1IS3_EEPKcRKS3_
.LEHE81:
	movq	328(%rbp), %rax
	movq	%rax, %rcx
	call	_ZNK7Feature9self_headEv
	movq	%rax, %rdx
	leaq	128(%rbp), %rcx
	leaq	-33(%rbp), %rax
	movq	%rcx, %r8
	movq	%rax, %rcx
.LEHB82:
	call	_ZZN4Game20PrintFeatureForSnakeEiENKUlRKSt6vectorIS0_IfSaIfEESaIS2_EERKNSt7__cxx1112basic_stringIcSt11char_traitsIcESaIcEEEE_clES6_SE_
.LEHE82:
	leaq	128(%rbp), %rax
	movq	%rax, %rcx
	call	_ZNSt7__cxx1112basic_stringIcSt11char_traitsIcESaIcEED1Ev
	leaq	175(%rbp), %rax
	movq	%rax, %rcx
	call	_ZNSt15__new_allocatorIcED2Ev
	nop
	leaq	223(%rbp), %rax
	movq	%rax, 280(%rbp)
	nop
	nop
	leaq	223(%rbp), %rcx
	leaq	.LC26(%rip), %rdx
	leaq	176(%rbp), %rax
	movq	%rcx, %r8
	movq	%rax, %rcx
.LEHB83:
	call	_ZNSt7__cxx1112basic_stringIcSt11char_traitsIcESaIcEEC1IS3_EEPKcRKS3_
.LEHE83:
	movq	328(%rbp), %rax
	movq	%rax, %rcx
	call	_ZNK7Feature10other_bodyEv
	movq	%rax, %rdx
	leaq	176(%rbp), %rcx
	leaq	-33(%rbp), %rax
	movq	%rcx, %r8
	movq	%rax, %rcx
.LEHB84:
	call	_ZZN4Game20PrintFeatureForSnakeEiENKUlRKSt6vectorIS0_IfSaIfEESaIS2_EERKNSt7__cxx1112basic_stringIcSt11char_traitsIcESaIcEEEE_clES6_SE_
.LEHE84:
	leaq	176(%rbp), %rax
	movq	%rax, %rcx
	call	_ZNSt7__cxx1112basic_stringIcSt11char_traitsIcESaIcEED1Ev
	leaq	223(%rbp), %rax
	movq	%rax, %rcx
	call	_ZNSt15__new_allocatorIcED2Ev
	nop
	leaq	271(%rbp), %rax
	movq	%rax, 272(%rbp)
	nop
	nop
	leaq	271(%rbp), %rcx
	leaq	.LC27(%rip), %rdx
	leaq	224(%rbp), %rax
	movq	%rcx, %r8
	movq	%rax, %rcx
.LEHB85:
	call	_ZNSt7__cxx1112basic_stringIcSt11char_traitsIcESaIcEEC1IS3_EEPKcRKS3_
.LEHE85:
	movq	328(%rbp), %rax
	movq	%rax, %rcx
	call	_ZNK7Feature10other_headEv
	movq	%rax, %rdx
	leaq	224(%rbp), %rcx
	leaq	-33(%rbp), %rax
	movq	%rcx, %r8
	movq	%rax, %rcx
.LEHB86:
	call	_ZZN4Game20PrintFeatureForSnakeEiENKUlRKSt6vectorIS0_IfSaIfEESaIS2_EERKNSt7__cxx1112basic_stringIcSt11char_traitsIcESaIcEEEE_clES6_SE_
.LEHE86:
	leaq	224(%rbp), %rax
	movq	%rax, %rcx
	call	_ZNSt7__cxx1112basic_stringIcSt11char_traitsIcESaIcEED1Ev
	leaq	271(%rbp), %rax
	movq	%rax, %rcx
	call	_ZNSt15__new_allocatorIcED2Ev
	nop
	leaq	-64(%rbp), %rax
	movq	328(%rbp), %rdx
	movq	%rax, %rcx
.LEHB87:
	call	_ZNK7Feature12ToModelInputEv
.LEHE87:
	leaq	-64(%rbp), %rax
	movq	%rax, %rcx
	call	_ZNKSt6vectorIfSaIfEE4sizeEv
	movq	%rax, 320(%rbp)
	cmpq	$6, 320(%rbp)
	jbe	.L517
	leaq	.LC28(%rip), %rdx
	movq	.refptr._ZSt4cout(%rip), %rax
	movq	%rax, %rcx
.LEHB88:
	call	_ZStlsISt11char_traitsIcEERSt13basic_ostreamIcT_ES5_PKc
	leaq	_ZSt5fixedRSt8ios_base(%rip), %rdx
	movq	%rax, %rcx
	call	_ZNSolsEPFRSt8ios_baseS0_E
	movq	%rax, %rbx
	movl	$3, %ecx
	call	_ZSt12setprecisioni
	movl	%eax, %edx
	movq	%rbx, %rcx
	call	_ZStlsIcSt11char_traitsIcEERSt13basic_ostreamIT_T0_ES6_St13_Setprecision
	movq	%rax, %rbx
	movq	320(%rbp), %rax
	leaq	-7(%rax), %rdx
	leaq	-64(%rbp), %rax
	movq	%rax, %rcx
	call	_ZNSt6vectorIfSaIfEEixEy
	movss	(%rax), %xmm0
	movaps	%xmm0, %xmm1
	movq	%rbx, %rcx
	call	_ZNSolsEf
	movq	%rax, %rcx
	leaq	.LC20(%rip), %rax
	movq	%rax, %rdx
	call	_ZStlsISt11char_traitsIcEERSt13basic_ostreamIcT_ES5_PKc
	leaq	.LC29(%rip), %rdx
	movq	.refptr._ZSt4cout(%rip), %rax
	movq	%rax, %rcx
	call	_ZStlsISt11char_traitsIcEERSt13basic_ostreamIcT_ES5_PKc
	leaq	_ZSt5fixedRSt8ios_base(%rip), %rdx
	movq	%rax, %rcx
	call	_ZNSolsEPFRSt8ios_baseS0_E
	movq	%rax, %rbx
	movl	$3, %ecx
	call	_ZSt12setprecisioni
	movl	%eax, %edx
	movq	%rbx, %rcx
	call	_ZStlsIcSt11char_traitsIcEERSt13basic_ostreamIT_T0_ES6_St13_Setprecision
	movq	%rax, %rbx
	movq	320(%rbp), %rax
	leaq	-6(%rax), %rdx
	leaq	-64(%rbp), %rax
	movq	%rax, %rcx
	call	_ZNSt6vectorIfSaIfEEixEy
	movss	(%rax), %xmm0
	movaps	%xmm0, %xmm1
	movq	%rbx, %rcx
	call	_ZNSolsEf
	movq	%rax, %rcx
	leaq	.LC20(%rip), %rax
	movq	%rax, %rdx
	call	_ZStlsISt11char_traitsIcEERSt13basic_ostreamIcT_ES5_PKc
	leaq	.LC30(%rip), %rdx
	movq	.refptr._ZSt4cout(%rip), %rax
	movq	%rax, %rcx
	call	_ZStlsISt11char_traitsIcEERSt13basic_ostreamIcT_ES5_PKc
	leaq	_ZSt5fixedRSt8ios_base(%rip), %rdx
	movq	%rax, %rcx
	call	_ZNSolsEPFRSt8ios_baseS0_E
	movq	%rax, %rbx
	movl	$3, %ecx
	call	_ZSt12setprecisioni
	movl	%eax, %edx
	movq	%rbx, %rcx
	call	_ZStlsIcSt11char_traitsIcEERSt13basic_ostreamIT_T0_ES6_St13_Setprecision
	movq	%rax, %rbx
	movq	320(%rbp), %rax
	leaq	-5(%rax), %rdx
	leaq	-64(%rbp), %rax
	movq	%rax, %rcx
	call	_ZNSt6vectorIfSaIfEEixEy
	movss	(%rax), %xmm0
	movaps	%xmm0, %xmm1
	movq	%rbx, %rcx
	call	_ZNSolsEf
	movq	%rax, %rcx
	leaq	.LC20(%rip), %rax
	movq	%rax, %rdx
	call	_ZStlsISt11char_traitsIcEERSt13basic_ostreamIcT_ES5_PKc
	leaq	.LC31(%rip), %rdx
	movq	.refptr._ZSt4cout(%rip), %rax
	movq	%rax, %rcx
	call	_ZStlsISt11char_traitsIcEERSt13basic_ostreamIcT_ES5_PKc
	movq	%rax, %rbx
	movq	320(%rbp), %rax
	leaq	-4(%rax), %rdx
	leaq	-64(%rbp), %rax
	movq	%rax, %rcx
	call	_ZNSt6vectorIfSaIfEEixEy
	movss	(%rax), %xmm0
	movaps	%xmm0, %xmm1
	movq	%rbx, %rcx
	call	_ZNSolsEf
	movl	$32, %edx
	movq	%rax, %rcx
	call	_ZStlsISt11char_traitsIcEERSt13basic_ostreamIcT_ES5_c
	movq	%rax, %rbx
	movq	320(%rbp), %rax
	leaq	-3(%rax), %rdx
	leaq	-64(%rbp), %rax
	movq	%rax, %rcx
	call	_ZNSt6vectorIfSaIfEEixEy
	movss	(%rax), %xmm0
	movaps	%xmm0, %xmm1
	movq	%rbx, %rcx
	call	_ZNSolsEf
	movl	$32, %edx
	movq	%rax, %rcx
	call	_ZStlsISt11char_traitsIcEERSt13basic_ostreamIcT_ES5_c
	movq	%rax, %rbx
	movq	320(%rbp), %rax
	leaq	-2(%rax), %rdx
	leaq	-64(%rbp), %rax
	movq	%rax, %rcx
	call	_ZNSt6vectorIfSaIfEEixEy
	movss	(%rax), %xmm0
	movaps	%xmm0, %xmm1
	movq	%rbx, %rcx
	call	_ZNSolsEf
	movl	$32, %edx
	movq	%rax, %rcx
	call	_ZStlsISt11char_traitsIcEERSt13basic_ostreamIcT_ES5_c
	movq	%rax, %rbx
	movq	320(%rbp), %rax
	leaq	-1(%rax), %rdx
	leaq	-64(%rbp), %rax
	movq	%rax, %rcx
	call	_ZNSt6vectorIfSaIfEEixEy
	movss	(%rax), %xmm0
	movaps	%xmm0, %xmm1
	movq	%rbx, %rcx
	call	_ZNSolsEf
	movq	%rax, %rcx
	leaq	.LC20(%rip), %rax
	movq	%rax, %rdx
	call	_ZStlsISt11char_traitsIcEERSt13basic_ostreamIcT_ES5_PKc
.LEHE88:
.L517:
	leaq	-64(%rbp), %rax
	movq	%rax, %rcx
	call	_ZNSt6vectorIfSaIfEED1Ev
	jmp	.L511
.L532:
	movq	%rax, %rbx
	leaq	-16(%rbp), %rax
	movq	%rax, %rcx
	call	_ZNSt7__cxx1112basic_stringIcSt11char_traitsIcESaIcEED1Ev
	jmp	.L519
.L531:
	movq	%rax, %rbx
.L519:
	leaq	31(%rbp), %rax
	movq	%rax, %rcx
	call	_ZNSt15__new_allocatorIcED2Ev
	nop
	movq	%rbx, %rax
	movq	%rax, %rcx
.LEHB89:
	call	_Unwind_Resume
.L534:
	movq	%rax, %rbx
	leaq	32(%rbp), %rax
	movq	%rax, %rcx
	call	_ZNSt7__cxx1112basic_stringIcSt11char_traitsIcESaIcEED1Ev
	jmp	.L521
.L533:
	movq	%rax, %rbx
.L521:
	leaq	79(%rbp), %rax
	movq	%rax, %rcx
	call	_ZNSt15__new_allocatorIcED2Ev
	nop
	movq	%rbx, %rax
	movq	%rax, %rcx
	call	_Unwind_Resume
.L536:
	movq	%rax, %rbx
	leaq	80(%rbp), %rax
	movq	%rax, %rcx
	call	_ZNSt7__cxx1112basic_stringIcSt11char_traitsIcESaIcEED1Ev
	jmp	.L523
.L535:
	movq	%rax, %rbx
.L523:
	leaq	127(%rbp), %rax
	movq	%rax, %rcx
	call	_ZNSt15__new_allocatorIcED2Ev
	nop
	movq	%rbx, %rax
	movq	%rax, %rcx
	call	_Unwind_Resume
.L538:
	movq	%rax, %rbx
	leaq	128(%rbp), %rax
	movq	%rax, %rcx
	call	_ZNSt7__cxx1112basic_stringIcSt11char_traitsIcESaIcEED1Ev
	jmp	.L525
.L537:
	movq	%rax, %rbx
.L525:
	leaq	175(%rbp), %rax
	movq	%rax, %rcx
	call	_ZNSt15__new_allocatorIcED2Ev
	nop
	movq	%rbx, %rax
	movq	%rax, %rcx
	call	_Unwind_Resume
.L540:
	movq	%rax, %rbx
	leaq	176(%rbp), %rax
	movq	%rax, %rcx
	call	_ZNSt7__cxx1112basic_stringIcSt11char_traitsIcESaIcEED1Ev
	jmp	.L527
.L539:
	movq	%rax, %rbx
.L527:
	leaq	223(%rbp), %rax
	movq	%rax, %rcx
	call	_ZNSt15__new_allocatorIcED2Ev
	nop
	movq	%rbx, %rax
	movq	%rax, %rcx
	call	_Unwind_Resume
.L542:
	movq	%rax, %rbx
	leaq	224(%rbp), %rax
	movq	%rax, %rcx
	call	_ZNSt7__cxx1112basic_stringIcSt11char_traitsIcESaIcEED1Ev
	jmp	.L529
.L541:
	movq	%rax, %rbx
.L529:
	leaq	271(%rbp), %rax
	movq	%rax, %rcx
	call	_ZNSt15__new_allocatorIcED2Ev
	nop
	movq	%rbx, %rax
	movq	%rax, %rcx
	call	_Unwind_Resume
.L543:
	movq	%rax, %rbx
	leaq	-64(%rbp), %rax
	movq	%rax, %rcx
	call	_ZNSt6vectorIfSaIfEED1Ev
	movq	%rbx, %rax
	movq	%rax, %rcx
	call	_Unwind_Resume
	nop
.LEHE89:
.L511:
	addq	$480, %rsp
	popq	%rbx
	popq	%rsi
	popq	%rdi
	popq	%r12
	popq	%rbp
	ret
	.seh_handler	__gxx_personality_seh0, @unwind, @except
	.seh_handlerdata
.LLSDA10940:
	.byte	0xff
	.byte	0xff
	.byte	0x1
	.uleb128 .LLSDACSE10940-.LLSDACSB10940
.LLSDACSB10940:
	.uleb128 .LEHB74-.LFB10940
	.uleb128 .LEHE74-.LEHB74
	.uleb128 0
	.uleb128 0
	.uleb128 .LEHB75-.LFB10940
	.uleb128 .LEHE75-.LEHB75
	.uleb128 .L531-.LFB10940
	.uleb128 0
	.uleb128 .LEHB76-.LFB10940
	.uleb128 .LEHE76-.LEHB76
	.uleb128 .L532-.LFB10940
	.uleb128 0
	.uleb128 .LEHB77-.LFB10940
	.uleb128 .LEHE77-.LEHB77
	.uleb128 .L533-.LFB10940
	.uleb128 0
	.uleb128 .LEHB78-.LFB10940
	.uleb128 .LEHE78-.LEHB78
	.uleb128 .L534-.LFB10940
	.uleb128 0
	.uleb128 .LEHB79-.LFB10940
	.uleb128 .LEHE79-.LEHB79
	.uleb128 .L535-.LFB10940
	.uleb128 0
	.uleb128 .LEHB80-.LFB10940
	.uleb128 .LEHE80-.LEHB80
	.uleb128 .L536-.LFB10940
	.uleb128 0
	.uleb128 .LEHB81-.LFB10940
	.uleb128 .LEHE81-.LEHB81
	.uleb128 .L537-.LFB10940
	.uleb128 0
	.uleb128 .LEHB82-.LFB10940
	.uleb128 .LEHE82-.LEHB82
	.uleb128 .L538-.LFB10940
	.uleb128 0
	.uleb128 .LEHB83-.LFB10940
	.uleb128 .LEHE83-.LEHB83
	.uleb128 .L539-.LFB10940
	.uleb128 0
	.uleb128 .LEHB84-.LFB10940
	.uleb128 .LEHE84-.LEHB84
	.uleb128 .L540-.LFB10940
	.uleb128 0
	.uleb128 .LEHB85-.LFB10940
	.uleb128 .LEHE85-.LEHB85
	.uleb128 .L541-.LFB10940
	.uleb128 0
	.uleb128 .LEHB86-.LFB10940
	.uleb128 .LEHE86-.LEHB86
	.uleb128 .L542-.LFB10940
	.uleb128 0
	.uleb128 .LEHB87-.LFB10940
	.uleb128 .LEHE87-.LEHB87
	.uleb128 0
	.uleb128 0
	.uleb128 .LEHB88-.LFB10940
	.uleb128 .LEHE88-.LEHB88
	.uleb128 .L543-.LFB10940
	.uleb128 0
	.uleb128 .LEHB89-.LFB10940
	.uleb128 .LEHE89-.LEHB89
	.uleb128 0
	.uleb128 0
.LLSDACSE10940:
	.text
	.seh_endproc
	.align 2
	.globl	_ZNK4Game11IsTerminateEv
	.def	_ZNK4Game11IsTerminateEv;	.scl	2;	.type	32;	.endef
	.seh_proc	_ZNK4Game11IsTerminateEv
_ZNK4Game11IsTerminateEv:
.LFB10944:
	pushq	%rbp
	.seh_pushreg	%rbp
	movq	%rsp, %rbp
	.seh_setframe	%rbp, 0
	subq	$96, %rsp
	.seh_stackalloc	96
	.seh_endprologue
	movq	%rcx, 16(%rbp)
	movl	$0, -4(%rbp)
	movq	16(%rbp), %rax
	addq	$64, %rax
	movq	%rax, -16(%rbp)
	movq	-16(%rbp), %rax
	movq	%rax, %rcx
	call	_ZNKSt6vectorI5SnakeSaIS0_EE5beginEv
	movq	%rax, -48(%rbp)
	movq	-16(%rbp), %rax
	movq	%rax, %rcx
	call	_ZNKSt6vectorI5SnakeSaIS0_EE3endEv
	movq	%rax, -56(%rbp)
	jmp	.L545
.L552:
	movq	-48(%rbp), %rax
	movq	%rax, -24(%rbp)
	movq	-24(%rbp), %rax
	movzbl	2968(%rax), %eax
	xorl	$1, %eax
	testb	%al, %al
	je	.L547
	movq	-24(%rbp), %rax
	movzbl	2969(%rax), %eax
	xorl	$1, %eax
	testb	%al, %al
	je	.L547
	addl	$1, -4(%rbp)
.L547:
	movq	-48(%rbp), %rax
	addq	$2984, %rax
	movq	%rax, -48(%rbp)
	nop
.L545:
	leaq	-48(%rbp), %rax
	movq	%rax, -32(%rbp)
	movq	-32(%rbp), %rax
	movq	(%rax), %rdx
	leaq	-56(%rbp), %rax
	movq	%rax, -40(%rbp)
	movq	-40(%rbp), %rax
	movq	(%rax), %rax
	cmpq	%rax, %rdx
	setne	%al
	testb	%al, %al
	jne	.L552
	movl	-4(%rbp), %eax
	addq	$96, %rsp
	popq	%rbp
	ret
	.seh_endproc
	.section .rdata,"dr"
	.align 4
_ZL7screamX:
	.long	1000
	.align 4
_ZL7screamY:
	.long	1000
	.align 4
_ZL6gridsz:
	.long	30
	.align 4
_ZL5map_H:
	.long	50
	.align 4
_ZL5map_W:
	.long	50
	.align 4
_ZL16max_num_of_snake:
	.long	1000
	.align 4
_ZL4seed:
	.long	2343
.LC32:
	.ascii "!(__hi < __lo)\0"
	.align 8
.LC33:
	.ascii "constexpr const _Tp& std::clamp(const _Tp&, const _Tp&, const _Tp&) [with _Tp = float]\0"
	.align 8
.LC34:
	.ascii "C:/msys64/ucrt64/include/c++/15.2.0/bits/stl_algo.h\0"
	.section	.text$_ZSt5clampIfERKT_S2_S2_S2_,"x"
	.linkonce discard
	.globl	_ZSt5clampIfERKT_S2_S2_S2_
	.def	_ZSt5clampIfERKT_S2_S2_S2_;	.scl	2;	.type	32;	.endef
	.seh_proc	_ZSt5clampIfERKT_S2_S2_S2_
_ZSt5clampIfERKT_S2_S2_S2_:
.LFB10997:
	pushq	%rbp
	.seh_pushreg	%rbp
	movq	%rsp, %rbp
	.seh_setframe	%rbp, 0
	subq	$32, %rsp
	.seh_stackalloc	32
	.seh_endprologue
	movq	%rcx, 16(%rbp)
	movq	%rdx, 24(%rbp)
	movq	%r8, 32(%rbp)
	movq	32(%rbp), %rax
	movss	(%rax), %xmm1
	movq	24(%rbp), %rax
	movss	(%rax), %xmm0
	comiss	%xmm1, %xmm0
	seta	%al
	movzbl	%al, %eax
	testl	%eax, %eax
	je	.L555
	leaq	.LC32(%rip), %rcx
	leaq	.LC33(%rip), %rdx
	leaq	.LC34(%rip), %rax
	movq	%rcx, %r9
	movq	%rdx, %r8
	movl	$3638, %edx
	movq	%rax, %rcx
	call	_ZSt21__glibcxx_assert_failPKciS0_S0_
.L555:
	movq	24(%rbp), %rdx
	movq	16(%rbp), %rax
	movq	%rax, %rcx
	call	_ZSt3maxIfERKT_S2_S2_
	movq	%rax, %rcx
	movq	32(%rbp), %rax
	movq	%rax, %rdx
	call	_ZSt3minIfERKT_S2_S2_
	addq	$32, %rsp
	popq	%rbp
	ret
	.seh_endproc
	.section	.text$_ZSt3maxIfERKT_S2_S2_,"x"
	.linkonce discard
	.globl	_ZSt3maxIfERKT_S2_S2_
	.def	_ZSt3maxIfERKT_S2_S2_;	.scl	2;	.type	32;	.endef
	.seh_proc	_ZSt3maxIfERKT_S2_S2_
_ZSt3maxIfERKT_S2_S2_:
.LFB10998:
	pushq	%rbp
	.seh_pushreg	%rbp
	movq	%rsp, %rbp
	.seh_setframe	%rbp, 0
	.seh_endprologue
	movq	%rcx, 16(%rbp)
	movq	%rdx, 24(%rbp)
	movq	16(%rbp), %rax
	movss	(%rax), %xmm1
	movq	24(%rbp), %rax
	movss	(%rax), %xmm0
	comiss	%xmm1, %xmm0
	jbe	.L562
	movq	24(%rbp), %rax
	jmp	.L560
.L562:
	movq	16(%rbp), %rax
.L560:
	popq	%rbp
	ret
	.seh_endproc
	.globl	NumRound
	.data
	.align 4
NumRound:
	.long	2000
	.globl	SelectNum
	.align 4
SelectNum:
	.long	5
	.globl	StepLimit
	.align 4
StepLimit:
	.long	500
	.globl	NumApple
	.align 4
NumApple:
	.long	40
	.globl	NetLayers
	.bss
	.align 16
NetLayers:
	.space 24
	.section	.text$_ZNSt12_Vector_baseI13NeuralNetworkSaIS0_EE12_Vector_implD1Ev,"x"
	.linkonce discard
	.align 2
	.globl	_ZNSt12_Vector_baseI13NeuralNetworkSaIS0_EE12_Vector_implD1Ev
	.def	_ZNSt12_Vector_baseI13NeuralNetworkSaIS0_EE12_Vector_implD1Ev;	.scl	2;	.type	32;	.endef
	.seh_proc	_ZNSt12_Vector_baseI13NeuralNetworkSaIS0_EE12_Vector_implD1Ev
_ZNSt12_Vector_baseI13NeuralNetworkSaIS0_EE12_Vector_implD1Ev:
.LFB11006:
	pushq	%rbp
	.seh_pushreg	%rbp
	movq	%rsp, %rbp
	.seh_setframe	%rbp, 0
	subq	$48, %rsp
	.seh_stackalloc	48
	.seh_endprologue
	movq	%rcx, 16(%rbp)
	movq	16(%rbp), %rax
	movq	%rax, -8(%rbp)
	movq	-8(%rbp), %rax
	movq	%rax, %rcx
	call	_ZNSt15__new_allocatorI13NeuralNetworkED2Ev
	nop
	nop
	addq	$48, %rsp
	popq	%rbp
	ret
	.seh_endproc
	.section	.text$_ZNSt12_Vector_baseI13NeuralNetworkSaIS0_EEC2Ev,"x"
	.linkonce discard
	.align 2
	.globl	_ZNSt12_Vector_baseI13NeuralNetworkSaIS0_EEC2Ev
	.def	_ZNSt12_Vector_baseI13NeuralNetworkSaIS0_EEC2Ev;	.scl	2;	.type	32;	.endef
	.seh_proc	_ZNSt12_Vector_baseI13NeuralNetworkSaIS0_EEC2Ev
_ZNSt12_Vector_baseI13NeuralNetworkSaIS0_EEC2Ev:
.LFB11007:
	pushq	%rbp
	.seh_pushreg	%rbp
	movq	%rsp, %rbp
	.seh_setframe	%rbp, 0
	subq	$32, %rsp
	.seh_stackalloc	32
	.seh_endprologue
	movq	%rcx, 16(%rbp)
	movq	16(%rbp), %rax
	movq	%rax, %rcx
	call	_ZNSt12_Vector_baseI13NeuralNetworkSaIS0_EE12_Vector_implC1Ev
	nop
	addq	$32, %rsp
	popq	%rbp
	ret
	.seh_endproc
	.section	.text$_ZNSt6vectorI13NeuralNetworkSaIS0_EEC1Ev,"x"
	.linkonce discard
	.align 2
	.globl	_ZNSt6vectorI13NeuralNetworkSaIS0_EEC1Ev
	.def	_ZNSt6vectorI13NeuralNetworkSaIS0_EEC1Ev;	.scl	2;	.type	32;	.endef
	.seh_proc	_ZNSt6vectorI13NeuralNetworkSaIS0_EEC1Ev
_ZNSt6vectorI13NeuralNetworkSaIS0_EEC1Ev:
.LFB11010:
	pushq	%rbp
	.seh_pushreg	%rbp
	movq	%rsp, %rbp
	.seh_setframe	%rbp, 0
	subq	$32, %rsp
	.seh_stackalloc	32
	.seh_endprologue
	movq	%rcx, 16(%rbp)
	movq	16(%rbp), %rax
	movq	%rax, %rcx
	call	_ZNSt12_Vector_baseI13NeuralNetworkSaIS0_EEC2Ev
	nop
	addq	$32, %rsp
	popq	%rbp
	ret
	.seh_endproc
	.section	.text$_ZN4GameD1Ev,"x"
	.linkonce discard
	.align 2
	.globl	_ZN4GameD1Ev
	.def	_ZN4GameD1Ev;	.scl	2;	.type	32;	.endef
	.seh_proc	_ZN4GameD1Ev
_ZN4GameD1Ev:
.LFB11013:
	pushq	%rbp
	.seh_pushreg	%rbp
	movq	%rsp, %rbp
	.seh_setframe	%rbp, 0
	subq	$32, %rsp
	.seh_stackalloc	32
	.seh_endprologue
	movq	%rcx, 16(%rbp)
	movq	16(%rbp), %rax
	addq	$64, %rax
	movq	%rax, %rcx
	call	_ZNSt6vectorI5SnakeSaIS0_EED1Ev
	movq	16(%rbp), %rax
	addq	$32, %rax
	movq	%rax, %rcx
	call	_ZNSt6vectorISt5tupleIJiiiEESaIS1_EED1Ev
	movq	16(%rbp), %rax
	addq	$8, %rax
	movq	%rax, %rcx
	call	_ZNSt6vectorIS_IiSaIiEESaIS1_EED1Ev
	nop
	addq	$32, %rsp
	popq	%rbp
	ret
	.seh_endproc
	.section	.text$_ZNSt12_Vector_baseISt4pairIiiESaIS1_EE12_Vector_implD1Ev,"x"
	.linkonce discard
	.align 2
	.globl	_ZNSt12_Vector_baseISt4pairIiiESaIS1_EE12_Vector_implD1Ev
	.def	_ZNSt12_Vector_baseISt4pairIiiESaIS1_EE12_Vector_implD1Ev;	.scl	2;	.type	32;	.endef
	.seh_proc	_ZNSt12_Vector_baseISt4pairIiiESaIS1_EE12_Vector_implD1Ev
_ZNSt12_Vector_baseISt4pairIiiESaIS1_EE12_Vector_implD1Ev:
.LFB11019:
	pushq	%rbp
	.seh_pushreg	%rbp
	movq	%rsp, %rbp
	.seh_setframe	%rbp, 0
	subq	$48, %rsp
	.seh_stackalloc	48
	.seh_endprologue
	movq	%rcx, 16(%rbp)
	movq	16(%rbp), %rax
	movq	%rax, -8(%rbp)
	movq	-8(%rbp), %rax
	movq	%rax, %rcx
	call	_ZNSt15__new_allocatorISt4pairIiiEED2Ev
	nop
	nop
	addq	$48, %rsp
	popq	%rbp
	ret
	.seh_endproc
	.section	.text$_ZNSt12_Vector_baseISt4pairIiiESaIS1_EEC2Ev,"x"
	.linkonce discard
	.align 2
	.globl	_ZNSt12_Vector_baseISt4pairIiiESaIS1_EEC2Ev
	.def	_ZNSt12_Vector_baseISt4pairIiiESaIS1_EEC2Ev;	.scl	2;	.type	32;	.endef
	.seh_proc	_ZNSt12_Vector_baseISt4pairIiiESaIS1_EEC2Ev
_ZNSt12_Vector_baseISt4pairIiiESaIS1_EEC2Ev:
.LFB11020:
	pushq	%rbp
	.seh_pushreg	%rbp
	movq	%rsp, %rbp
	.seh_setframe	%rbp, 0
	subq	$32, %rsp
	.seh_stackalloc	32
	.seh_endprologue
	movq	%rcx, 16(%rbp)
	movq	16(%rbp), %rax
	movq	%rax, %rcx
	call	_ZNSt12_Vector_baseISt4pairIiiESaIS1_EE12_Vector_implC1Ev
	nop
	addq	$32, %rsp
	popq	%rbp
	ret
	.seh_endproc
	.section	.text$_ZNSt6vectorISt4pairIiiESaIS1_EEC1Ev,"x"
	.linkonce discard
	.align 2
	.globl	_ZNSt6vectorISt4pairIiiESaIS1_EEC1Ev
	.def	_ZNSt6vectorISt4pairIiiESaIS1_EEC1Ev;	.scl	2;	.type	32;	.endef
	.seh_proc	_ZNSt6vectorISt4pairIiiESaIS1_EEC1Ev
_ZNSt6vectorISt4pairIiiESaIS1_EEC1Ev:
.LFB11023:
	pushq	%rbp
	.seh_pushreg	%rbp
	movq	%rsp, %rbp
	.seh_setframe	%rbp, 0
	subq	$32, %rsp
	.seh_stackalloc	32
	.seh_endprologue
	movq	%rcx, 16(%rbp)
	movq	16(%rbp), %rax
	movq	%rax, %rcx
	call	_ZNSt12_Vector_baseISt4pairIiiESaIS1_EEC2Ev
	nop
	addq	$32, %rsp
	popq	%rbp
	ret
	.seh_endproc
	.section .rdata,"dr"
.LC35:
	.ascii "running in round \0"
.LC37:
	.ascii "NetWorkSave\0"
.LC38:
	.ascii "saving \0"
	.text
	.globl	main
	.def	main;	.scl	2;	.type	32;	.endef
	.seh_proc	main
main:
.LFB11000:
	pushq	%rbp
	.seh_pushreg	%rbp
	pushq	%rsi
	.seh_pushreg	%rsi
	pushq	%rbx
	.seh_pushreg	%rbx
	movl	$8048, %eax
	call	___chkstk_ms
	subq	%rax, %rsp
	.seh_stackalloc	8048
	leaq	128(%rsp), %rbp
	.seh_setframe	%rbp, 128
	.seh_endprologue
	call	__main
	leaq	2624(%rbp), %rax
	movq	%rax, %rcx
	call	_ZNSt6vectorI13NeuralNetworkSaIS0_EEC1Ev
	movl	$1, 7916(%rbp)
	jmp	.L571
.L572:
	leaq	NetLayers(%rip), %rdx
	leaq	2656(%rbp), %rax
	movl	$0, %r8d
	movq	%rax, %rcx
.LEHB90:
	call	_ZN13NeuralNetworkC1ERKSt6vectorIySaIyEE10Activation
.LEHE90:
	leaq	2656(%rbp), %rdx
	leaq	2624(%rbp), %rax
	movq	%rax, %rcx
.LEHB91:
	call	_ZNSt6vectorI13NeuralNetworkSaIS0_EE9push_backEOS0_
.LEHE91:
	leaq	2656(%rbp), %rax
	movq	%rax, %rcx
	call	_ZN13NeuralNetworkD1Ev
	addl	$1, 7916(%rbp)
.L571:
	cmpl	$40, 7916(%rbp)
	jle	.L572
	movl	$1, 7912(%rbp)
	jmp	.L573
.L591:
	movl	7912(%rbp), %edx
	movslq	%edx, %rax
	imulq	$1374389535, %rax, %rax
	shrq	$32, %rax
	sarl	$5, %eax
	movl	%edx, %ecx
	sarl	$31, %ecx
	subl	%ecx, %eax
	imull	$100, %eax, %ecx
	movl	%edx, %eax
	subl	%ecx, %eax
	testl	%eax, %eax
	jne	.L574
	leaq	.LC35(%rip), %rdx
	movq	.refptr._ZSt4cout(%rip), %rax
	movq	%rax, %rcx
.LEHB92:
	call	_ZStlsISt11char_traitsIcEERSt13basic_ostreamIcT_ES5_PKc
	movq	%rax, %rcx
	movl	7912(%rbp), %eax
	movl	%eax, %edx
	call	_ZNSolsEi
	movq	%rax, %rcx
	movq	.refptr._ZSt4endlIcSt11char_traitsIcEERSt13basic_ostreamIT_T0_ES6_(%rip), %rax
	movq	%rax, %rdx
	call	_ZNSolsEPFRSoS_E
.L574:
	leaq	-96(%rbp), %rax
	movl	$50, %edx
	movq	%rax, %rcx
	call	_ZN4GameC1Ei
.LEHE92:
	movl	$0, 7908(%rbp)
	jmp	.L575
.L576:
	movl	7908(%rbp), %eax
	movslq	%eax, %rdx
	leaq	2624(%rbp), %rax
	movq	%rax, %rcx
	call	_ZNSt6vectorI13NeuralNetworkSaIS0_EEixEy
	movq	%rax, %rdx
	leaq	-96(%rbp), %rax
	movq	%rax, %rcx
.LEHB93:
	call	_ZN4Game18CreateSnakeWithNetERK13NeuralNetwork
	addl	$1, 7908(%rbp)
.L575:
	leaq	2624(%rbp), %rax
	movq	%rax, %rcx
	call	_ZNKSt6vectorI13NeuralNetworkSaIS0_EE4sizeEv
	cmpl	%eax, 7908(%rbp)
	setl	%al
	testb	%al, %al
	jne	.L576
	leaq	2624(%rbp), %rax
	movq	%rax, %rcx
	call	_ZNKSt6vectorI13NeuralNetworkSaIS0_EE4sizeEv
	movl	%eax, 7904(%rbp)
	jmp	.L577
.L580:
	leaq	rng(%rip), %rax
	movq	%rax, %rcx
	call	_ZNSt23mersenne_twister_engineIjLy32ELy624ELy397ELy31ELj2567483615ELy11ELj4294967295ELy7ELj2636928640ELy15ELj4022730752ELy18ELj1812433253EEclEv
	andl	$3, %eax
	testl	%eax, %eax
	sete	%al
	testb	%al, %al
	je	.L578
	leaq	-96(%rbp), %rax
	movq	%rax, %rcx
	call	_ZN4Game11CreateSnakeEv
	jmp	.L579
.L578:
	leaq	rng(%rip), %rax
	movq	%rax, %rcx
	call	_ZNSt23mersenne_twister_engineIjLy32ELy624ELy397ELy31ELj2567483615ELy11ELj4294967295ELy7ELj2636928640ELy15ELj4022730752ELy18ELj1812433253EEclEv
	movl	SelectNum(%rip), %edx
	movl	%edx, %ecx
	movl	$0, %edx
	divl	%ecx
	movl	%edx, %eax
	movl	%eax, %edx
	leaq	2624(%rbp), %rax
	movq	%rax, %rcx
	call	_ZNSt6vectorI13NeuralNetworkSaIS0_EEixEy
	movq	%rax, %rdx
	movq	%rbp, %rax
	movq	%rax, %rcx
	call	_ZN13NeuralNetworkC1ERKS_
.LEHE93:
	movq	%rbp, %rax
	movl	$0, %r8d
	movss	.LC36(%rip), %xmm1
	movq	%rax, %rcx
.LEHB94:
	call	_ZN13NeuralNetwork18add_gaussian_noiseEfPSt23mersenne_twister_engineIjLy32ELy624ELy397ELy31ELj2567483615ELy11ELj4294967295ELy7ELj2636928640ELy15ELj4022730752ELy18ELj1812433253EE
	movq	%rbp, %rdx
	leaq	-96(%rbp), %rax
	movq	%rax, %rcx
	call	_ZN4Game18CreateSnakeWithNetERK13NeuralNetwork
.LEHE94:
	movq	%rbp, %rax
	movq	%rax, %rcx
	call	_ZN13NeuralNetworkD1Ev
.L579:
	addl	$1, 7904(%rbp)
.L577:
	cmpl	$39, 7904(%rbp)
	jle	.L580
	movl	$0, 7900(%rbp)
	jmp	.L581
.L582:
	leaq	-96(%rbp), %rax
	movq	%rax, %rcx
.LEHB95:
	call	_ZN4Game11CreateAppleEv
	addl	$1, 7900(%rbp)
.L581:
	movl	NumApple(%rip), %eax
	cmpl	%eax, 7900(%rbp)
	jl	.L582
	movl	$0, 7896(%rbp)
	jmp	.L583
.L586:
	leaq	-96(%rbp), %rax
	movl	$10, %edx
	movq	%rax, %rcx
	call	_ZN4Game19UpdateAllSnakeTurnsEi
	leaq	-96(%rbp), %rax
	movq	%rax, %rcx
	call	_ZN4Game6UpdateEv
.LEHE95:
	addl	$1, 7896(%rbp)
.L583:
	movl	StepLimit(%rip), %eax
	cmpl	%eax, 7896(%rbp)
	jge	.L584
	leaq	-96(%rbp), %rax
	movq	%rax, %rcx
	call	_ZNK4Game11IsTerminateEv
	testl	%eax, %eax
	jne	.L584
	movl	$1, %eax
	jmp	.L585
.L584:
	movl	$0, %eax
.L585:
	testb	%al, %al
	jne	.L586
	leaq	2592(%rbp), %rax
	movq	%rax, %rcx
	call	_ZNSt6vectorISt4pairIiiESaIS1_EEC1Ev
	movl	$0, 2588(%rbp)
	jmp	.L587
.L588:
	movl	2588(%rbp), %eax
	cltq
	leaq	-96(%rbp), %rdx
	leaq	64(%rdx), %rcx
	movq	%rax, %rdx
	call	_ZNSt6vectorI5SnakeSaIS0_EEixEy
	movq	%rax, %rcx
	call	_ZN5Snake15UpdateTargetValEv
	movl	2588(%rbp), %eax
	cltq
	leaq	-96(%rbp), %rdx
	leaq	64(%rdx), %rcx
	movq	%rax, %rdx
	call	_ZNSt6vectorI5SnakeSaIS0_EEixEy
	movq	%rax, %rcx
	call	_ZNK5Snake12GetTargetValEv
	movl	%eax, 5260(%rbp)
	leaq	2588(%rbp), %rcx
	leaq	5260(%rbp), %rdx
	leaq	5252(%rbp), %rax
	movq	%rcx, %r8
	movq	%rax, %rcx
	call	_ZNSt4pairIiiEC1IiRiLb1EEEOT_OT0_
	leaq	5252(%rbp), %rdx
	leaq	2592(%rbp), %rax
	movq	%rax, %rcx
.LEHB96:
	call	_ZNSt6vectorISt4pairIiiESaIS1_EE9push_backEOS1_
	movl	2588(%rbp), %eax
	addl	$1, %eax
	movl	%eax, 2588(%rbp)
.L587:
	movl	2588(%rbp), %eax
	cmpl	$39, %eax
	jle	.L588
	leaq	2592(%rbp), %rax
	movq	%rax, %rcx
	call	_ZNSt6vectorISt4pairIiiESaIS1_EE3endEv
	movq	%rax, %rbx
	leaq	2592(%rbp), %rax
	movq	%rax, %rcx
	call	_ZNSt6vectorISt4pairIiiESaIS1_EE5beginEv
	movl	%esi, %r8d
	movq	%rbx, %rdx
	movq	%rax, %rcx
	call	_ZSt4sortIN9__gnu_cxx17__normal_iteratorIPSt4pairIiiESt6vectorIS3_SaIS3_EEEESt7greaterIS3_EEvT_SB_T0_
	leaq	2624(%rbp), %rax
	movq	%rax, %rcx
	call	_ZNSt6vectorI13NeuralNetworkSaIS0_EE5clearEv
	movl	$0, 7892(%rbp)
	jmp	.L589
.L590:
	movl	7892(%rbp), %eax
	movslq	%eax, %rdx
	leaq	2592(%rbp), %rax
	movq	%rax, %rcx
	call	_ZNSt6vectorISt4pairIiiESaIS1_EEixEy
	movl	4(%rax), %eax
	cltq
	leaq	-96(%rbp), %rdx
	leaq	64(%rdx), %rcx
	movq	%rax, %rdx
	call	_ZNSt6vectorI5SnakeSaIS0_EEixEy
	movq	%rax, %rdx
	leaq	5264(%rbp), %rax
	movq	%rax, %rcx
	call	_ZNK5Snake6GetNetEv
.LEHE96:
	leaq	5264(%rbp), %rdx
	leaq	2624(%rbp), %rax
	movq	%rax, %rcx
.LEHB97:
	call	_ZNSt6vectorI13NeuralNetworkSaIS0_EE9push_backEOS0_
.LEHE97:
	leaq	5264(%rbp), %rax
	movq	%rax, %rcx
	call	_ZN13NeuralNetworkD1Ev
	addl	$1, 7892(%rbp)
.L589:
	movl	SelectNum(%rip), %eax
	cmpl	%eax, 7892(%rbp)
	jl	.L590
	leaq	2592(%rbp), %rax
	movq	%rax, %rcx
	call	_ZNSt6vectorISt4pairIiiESaIS1_EED1Ev
	leaq	-96(%rbp), %rax
	movq	%rax, %rcx
	call	_ZN4GameD1Ev
	addl	$1, 7912(%rbp)
.L573:
	movl	NumRound(%rip), %eax
	cmpl	%eax, 7912(%rbp)
	jle	.L591
	movl	$0, 7888(%rbp)
	jmp	.L592
.L593:
	leaq	7856(%rbp), %rax
	movl	7888(%rbp), %edx
	movq	%rax, %rcx
	call	_ZNSt7__cxx119to_stringEi
	movq	%rbp, %rax
	leaq	7856(%rbp), %rcx
	leaq	.LC37(%rip), %rdx
	movq	%rcx, %r8
	movq	%rax, %rcx
.LEHB98:
	call	_ZStplIcSt11char_traitsIcESaIcEENSt7__cxx1112basic_stringIT_T0_T1_EEPKS5_OS8_
.LEHE98:
	leaq	7856(%rbp), %rax
	movq	%rax, %rcx
	call	_ZNSt7__cxx1112basic_stringIcSt11char_traitsIcESaIcEED1Ev
	leaq	.LC38(%rip), %rdx
	movq	.refptr._ZSt4cout(%rip), %rax
	movq	%rax, %rcx
.LEHB99:
	call	_ZStlsISt11char_traitsIcEERSt13basic_ostreamIcT_ES5_PKc
	movq	%rax, %rcx
	movq	%rbp, %rax
	movq	%rax, %rdx
	call	_ZStlsIcSt11char_traitsIcESaIcEERSt13basic_ostreamIT_T0_ES7_RKNSt7__cxx1112basic_stringIS4_S5_T1_EE
	movq	%rax, %rcx
	movq	.refptr._ZSt4endlIcSt11char_traitsIcEERSt13basic_ostreamIT_T0_ES6_(%rip), %rax
	movq	%rax, %rdx
	call	_ZNSolsEPFRSoS_E
	movl	7888(%rbp), %eax
	movslq	%eax, %rdx
	leaq	2624(%rbp), %rax
	movq	%rax, %rcx
	call	_ZNSt6vectorI13NeuralNetworkSaIS0_EEixEy
	movq	%rax, %rcx
	movq	%rbp, %rax
	movq	%rax, %rdx
	call	_ZNK13NeuralNetwork12save_to_fileERKNSt7__cxx1112basic_stringIcSt11char_traitsIcESaIcEEE
.LEHE99:
	movq	%rbp, %rax
	movq	%rax, %rcx
	call	_ZNSt7__cxx1112basic_stringIcSt11char_traitsIcESaIcEED1Ev
	addl	$1, 7888(%rbp)
.L592:
	movl	SelectNum(%rip), %eax
	cmpl	%eax, 7888(%rbp)
	jl	.L593
	movl	$0, %ebx
	leaq	2624(%rbp), %rax
	movq	%rax, %rcx
	call	_ZNSt6vectorI13NeuralNetworkSaIS0_EED1Ev
	movl	%ebx, %eax
	jmp	.L611
.L603:
	movq	%rax, %rbx
	leaq	2656(%rbp), %rax
	movq	%rax, %rcx
	call	_ZN13NeuralNetworkD1Ev
	jmp	.L596
.L606:
	movq	%rax, %rbx
	movq	%rbp, %rax
	movq	%rax, %rcx
	call	_ZN13NeuralNetworkD1Ev
	jmp	.L598
.L608:
	movq	%rax, %rbx
	leaq	5264(%rbp), %rax
	movq	%rax, %rcx
	call	_ZN13NeuralNetworkD1Ev
	jmp	.L600
.L607:
	movq	%rax, %rbx
.L600:
	leaq	2592(%rbp), %rax
	movq	%rax, %rcx
	call	_ZNSt6vectorISt4pairIiiESaIS1_EED1Ev
	jmp	.L598
.L605:
	movq	%rax, %rbx
.L598:
	leaq	-96(%rbp), %rax
	movq	%rax, %rcx
	call	_ZN4GameD1Ev
	jmp	.L596
.L609:
	movq	%rax, %rbx
	leaq	7856(%rbp), %rax
	movq	%rax, %rcx
	call	_ZNSt7__cxx1112basic_stringIcSt11char_traitsIcESaIcEED1Ev
	jmp	.L596
.L610:
	movq	%rax, %rbx
	movq	%rbp, %rax
	movq	%rax, %rcx
	call	_ZNSt7__cxx1112basic_stringIcSt11char_traitsIcESaIcEED1Ev
	jmp	.L596
.L604:
	movq	%rax, %rbx
.L596:
	leaq	2624(%rbp), %rax
	movq	%rax, %rcx
	call	_ZNSt6vectorI13NeuralNetworkSaIS0_EED1Ev
	movq	%rbx, %rax
	movq	%rax, %rcx
.LEHB100:
	call	_Unwind_Resume
.LEHE100:
.L611:
	addq	$8048, %rsp
	popq	%rbx
	popq	%rsi
	popq	%rbp
	ret
	.seh_handler	__gxx_personality_seh0, @unwind, @except
	.seh_handlerdata
.LLSDA11000:
	.byte	0xff
	.byte	0xff
	.byte	0x1
	.uleb128 .LLSDACSE11000-.LLSDACSB11000
.LLSDACSB11000:
	.uleb128 .LEHB90-.LFB11000
	.uleb128 .LEHE90-.LEHB90
	.uleb128 .L604-.LFB11000
	.uleb128 0
	.uleb128 .LEHB91-.LFB11000
	.uleb128 .LEHE91-.LEHB91
	.uleb128 .L603-.LFB11000
	.uleb128 0
	.uleb128 .LEHB92-.LFB11000
	.uleb128 .LEHE92-.LEHB92
	.uleb128 .L604-.LFB11000
	.uleb128 0
	.uleb128 .LEHB93-.LFB11000
	.uleb128 .LEHE93-.LEHB93
	.uleb128 .L605-.LFB11000
	.uleb128 0
	.uleb128 .LEHB94-.LFB11000
	.uleb128 .LEHE94-.LEHB94
	.uleb128 .L606-.LFB11000
	.uleb128 0
	.uleb128 .LEHB95-.LFB11000
	.uleb128 .LEHE95-.LEHB95
	.uleb128 .L605-.LFB11000
	.uleb128 0
	.uleb128 .LEHB96-.LFB11000
	.uleb128 .LEHE96-.LEHB96
	.uleb128 .L607-.LFB11000
	.uleb128 0
	.uleb128 .LEHB97-.LFB11000
	.uleb128 .LEHE97-.LEHB97
	.uleb128 .L608-.LFB11000
	.uleb128 0
	.uleb128 .LEHB98-.LFB11000
	.uleb128 .LEHE98-.LEHB98
	.uleb128 .L609-.LFB11000
	.uleb128 0
	.uleb128 .LEHB99-.LFB11000
	.uleb128 .LEHE99-.LEHB99
	.uleb128 .L610-.LFB11000
	.uleb128 0
	.uleb128 .LEHB100-.LFB11000
	.uleb128 .LEHE100-.LEHB100
	.uleb128 0
	.uleb128 0
.LLSDACSE11000:
	.text
	.seh_endproc
	.section	.text$_ZN9__gnu_cxx11char_traitsIcE6lengthEPKc,"x"
	.linkonce discard
	.align 2
	.globl	_ZN9__gnu_cxx11char_traitsIcE6lengthEPKc
	.def	_ZN9__gnu_cxx11char_traitsIcE6lengthEPKc;	.scl	2;	.type	32;	.endef
	.seh_proc	_ZN9__gnu_cxx11char_traitsIcE6lengthEPKc
_ZN9__gnu_cxx11char_traitsIcE6lengthEPKc:
.LFB11026:
	pushq	%rbp
	.seh_pushreg	%rbp
	movq	%rsp, %rbp
	.seh_setframe	%rbp, 0
	subq	$48, %rsp
	.seh_stackalloc	48
	.seh_endprologue
	movq	%rcx, 16(%rbp)
	movq	$0, -8(%rbp)
	jmp	.L613
.L614:
	addq	$1, -8(%rbp)
.L613:
	movb	$0, -9(%rbp)
	movq	16(%rbp), %rdx
	movq	-8(%rbp), %rax
	leaq	(%rdx,%rax), %rcx
	leaq	-9(%rbp), %rax
	movq	%rax, %rdx
	call	_ZN9__gnu_cxx11char_traitsIcE2eqERKcS3_
	xorl	$1, %eax
	testb	%al, %al
	jne	.L614
	movq	-8(%rbp), %rax
	addq	$48, %rsp
	popq	%rbp
	ret
	.seh_endproc
	.section	.text$_ZNSt7__cxx1112basic_stringIcSt11char_traitsIcESaIcEE12_Alloc_hiderD1Ev,"x"
	.linkonce discard
	.align 2
	.globl	_ZNSt7__cxx1112basic_stringIcSt11char_traitsIcESaIcEE12_Alloc_hiderD1Ev
	.def	_ZNSt7__cxx1112basic_stringIcSt11char_traitsIcESaIcEE12_Alloc_hiderD1Ev;	.scl	2;	.type	32;	.endef
	.seh_proc	_ZNSt7__cxx1112basic_stringIcSt11char_traitsIcESaIcEE12_Alloc_hiderD1Ev
_ZNSt7__cxx1112basic_stringIcSt11char_traitsIcESaIcEE12_Alloc_hiderD1Ev:
.LFB11128:
	pushq	%rbp
	.seh_pushreg	%rbp
	movq	%rsp, %rbp
	.seh_setframe	%rbp, 0
	subq	$48, %rsp
	.seh_stackalloc	48
	.seh_endprologue
	movq	%rcx, 16(%rbp)
	movq	16(%rbp), %rax
	movq	%rax, -8(%rbp)
	movq	-8(%rbp), %rax
	movq	%rax, %rcx
	call	_ZNSt15__new_allocatorIcED2Ev
	nop
	nop
	addq	$48, %rsp
	popq	%rbp
	ret
	.seh_endproc
	.section	.text$_ZNSt7__cxx1112basic_stringIcSt11char_traitsIcESaIcEEC1Ev,"x"
	.linkonce discard
	.align 2
	.globl	_ZNSt7__cxx1112basic_stringIcSt11char_traitsIcESaIcEEC1Ev
	.def	_ZNSt7__cxx1112basic_stringIcSt11char_traitsIcESaIcEEC1Ev;	.scl	2;	.type	32;	.endef
	.seh_proc	_ZNSt7__cxx1112basic_stringIcSt11char_traitsIcESaIcEEC1Ev
_ZNSt7__cxx1112basic_stringIcSt11char_traitsIcESaIcEEC1Ev:
.LFB11130:
	pushq	%rbp
	.seh_pushreg	%rbp
	pushq	%rbx
	.seh_pushreg	%rbx
	subq	$72, %rsp
	.seh_stackalloc	72
	leaq	64(%rsp), %rbp
	.seh_setframe	%rbp, 64
	.seh_endprologue
	movq	%rcx, 32(%rbp)
	movq	32(%rbp), %rbx
	leaq	-17(%rbp), %rax
	movq	%rax, -16(%rbp)
	nop
	nop
	movq	32(%rbp), %rax
	movq	%rax, %rcx
	call	_ZNSt7__cxx1112basic_stringIcSt11char_traitsIcESaIcEE13_M_local_dataEv
	leaq	-17(%rbp), %rdx
	movq	%rdx, %r8
	movq	%rax, %rdx
	movq	%rbx, %rcx
	call	_ZNSt7__cxx1112basic_stringIcSt11char_traitsIcESaIcEE12_Alloc_hiderC1EPcOS3_
	leaq	-17(%rbp), %rax
	movq	%rax, %rcx
	call	_ZNSt15__new_allocatorIcED2Ev
	nop
	movq	32(%rbp), %rax
	movq	%rax, -8(%rbp)
	nop
	movq	32(%rbp), %rax
	movl	$0, %edx
	movq	%rax, %rcx
	call	_ZNSt7__cxx1112basic_stringIcSt11char_traitsIcESaIcEE13_M_set_lengthEy
	nop
	addq	$72, %rsp
	popq	%rbx
	popq	%rbp
	ret
	.seh_handler	__gxx_personality_seh0, @unwind, @except
	.seh_handlerdata
.LLSDA11130:
	.byte	0xff
	.byte	0xff
	.byte	0x1
	.uleb128 .LLSDACSE11130-.LLSDACSB11130
.LLSDACSB11130:
.LLSDACSE11130:
	.section	.text$_ZNSt7__cxx1112basic_stringIcSt11char_traitsIcESaIcEEC1Ev,"x"
	.linkonce discard
	.seh_endproc
	.section	.text$_ZNSt7__cxx1112basic_stringIcSt11char_traitsIcESaIcEED1Ev,"x"
	.linkonce discard
	.align 2
	.globl	_ZNSt7__cxx1112basic_stringIcSt11char_traitsIcESaIcEED1Ev
	.def	_ZNSt7__cxx1112basic_stringIcSt11char_traitsIcESaIcEED1Ev;	.scl	2;	.type	32;	.endef
	.seh_proc	_ZNSt7__cxx1112basic_stringIcSt11char_traitsIcESaIcEED1Ev
_ZNSt7__cxx1112basic_stringIcSt11char_traitsIcESaIcEED1Ev:
.LFB11133:
	pushq	%rbp
	.seh_pushreg	%rbp
	movq	%rsp, %rbp
	.seh_setframe	%rbp, 0
	subq	$32, %rsp
	.seh_stackalloc	32
	.seh_endprologue
	movq	%rcx, 16(%rbp)
	movq	16(%rbp), %rax
	movq	%rax, %rcx
	call	_ZNSt7__cxx1112basic_stringIcSt11char_traitsIcESaIcEE10_M_disposeEv
	movq	16(%rbp), %rax
	movq	%rax, %rcx
	call	_ZNSt7__cxx1112basic_stringIcSt11char_traitsIcESaIcEE12_Alloc_hiderD1Ev
	nop
	addq	$32, %rsp
	popq	%rbp
	ret
	.seh_handler	__gxx_personality_seh0, @unwind, @except
	.seh_handlerdata
.LLSDA11133:
	.byte	0xff
	.byte	0xff
	.byte	0x1
	.uleb128 .LLSDACSE11133-.LLSDACSB11133
.LLSDACSB11133:
.LLSDACSE11133:
	.section	.text$_ZNSt7__cxx1112basic_stringIcSt11char_traitsIcESaIcEED1Ev,"x"
	.linkonce discard
	.seh_endproc
	.section	.text$_ZNSt8__detail18__to_chars_10_implIjEEvPcjT_,"x"
	.linkonce discard
	.globl	_ZNSt8__detail18__to_chars_10_implIjEEvPcjT_
	.def	_ZNSt8__detail18__to_chars_10_implIjEEvPcjT_;	.scl	2;	.type	32;	.endef
	.seh_proc	_ZNSt8__detail18__to_chars_10_implIjEEvPcjT_
_ZNSt8__detail18__to_chars_10_implIjEEvPcjT_:
.LFB11134:
	pushq	%rbp
	.seh_pushreg	%rbp
	movq	%rsp, %rbp
	.seh_setframe	%rbp, 0
	subq	$224, %rsp
	.seh_stackalloc	224
	.seh_endprologue
	movq	%rcx, 16(%rbp)
	movl	%edx, 24(%rbp)
	movl	%r8d, 32(%rbp)
	movabsq	$3688503277381496880, %rax
	movabsq	$3976738051646829616, %rdx
	movq	%rax, -224(%rbp)
	movq	%rdx, -216(%rbp)
	movabsq	$3544667369688283184, %rax
	movabsq	$3832902143785906737, %rdx
	movq	%rax, -208(%rbp)
	movq	%rdx, -200(%rbp)
	movabsq	$4121136918051239473, %rax
	movabsq	$3689066235924983858, %rdx
	movq	%rax, -192(%rbp)
	movq	%rdx, -184(%rbp)
	movabsq	$3977301010190316594, %rax
	movabsq	$3545230328231770162, %rdx
	movq	%rax, -176(%rbp)
	movq	%rdx, -168(%rbp)
	movabsq	$3833465102329393715, %rax
	movabsq	$4121699876594726451, %rdx
	movq	%rax, -160(%rbp)
	movq	%rdx, -152(%rbp)
	movabsq	$3689629194468470836, %rax
	movabsq	$3977863968733803572, %rdx
	movq	%rax, -144(%rbp)
	movq	%rdx, -136(%rbp)
	movabsq	$3545793286775257140, %rax
	movabsq	$3834028060872880693, %rdx
	movq	%rax, -128(%rbp)
	movq	%rdx, -120(%rbp)
	movabsq	$4122262835138213429, %rax
	movabsq	$3690192153011957814, %rdx
	movq	%rax, -112(%rbp)
	movq	%rdx, -104(%rbp)
	movabsq	$3978426927277290550, %rax
	movabsq	$3546356245318744118, %rdx
	movq	%rax, -96(%rbp)
	movq	%rdx, -88(%rbp)
	movabsq	$3834591019416367671, %rax
	movabsq	$4122825793681700407, %rdx
	movq	%rax, -80(%rbp)
	movq	%rdx, -72(%rbp)
	movabsq	$3690755111555444792, %rax
	movabsq	$3978989885820777528, %rdx
	movq	%rax, -64(%rbp)
	movq	%rdx, -56(%rbp)
	movabsq	$3546919203862231096, %rax
	movabsq	$3835153977959854649, %rdx
	movq	%rax, -48(%rbp)
	movq	%rdx, -40(%rbp)
	movabsq	$4122263930388298034, %rax
	movabsq	$16106987313379638, %rdx
	movq	%rax, -39(%rbp)
	movq	%rdx, -31(%rbp)
	movl	24(%rbp), %eax
	subl	$1, %eax
	movl	%eax, -4(%rbp)
	jmp	.L620
.L621:
	movl	32(%rbp), %ecx
	movl	%ecx, %eax
	imulq	$1374389535, %rax, %rax
	shrq	$32, %rax
	shrl	$5, %eax
	imull	$100, %eax, %edx
	movl	%ecx, %eax
	subl	%edx, %eax
	addl	%eax, %eax
	movl	%eax, -12(%rbp)
	movl	32(%rbp), %eax
	movl	%eax, %eax
	imulq	$1374389535, %rax, %rax
	shrq	$32, %rax
	shrl	$5, %eax
	movl	%eax, 32(%rbp)
	movl	-12(%rbp), %eax
	leal	1(%rax), %ecx
	movl	-4(%rbp), %edx
	movq	16(%rbp), %rax
	addq	%rax, %rdx
	movl	%ecx, %eax
	movzbl	-224(%rbp,%rax), %eax
	movb	%al, (%rdx)
	movl	-4(%rbp), %eax
	subl	$1, %eax
	movl	%eax, %edx
	movq	16(%rbp), %rax
	addq	%rax, %rdx
	movl	-12(%rbp), %eax
	movzbl	-224(%rbp,%rax), %eax
	movb	%al, (%rdx)
	subl	$2, -4(%rbp)
.L620:
	cmpl	$99, 32(%rbp)
	ja	.L621
	cmpl	$9, 32(%rbp)
	jbe	.L622
	movl	32(%rbp), %eax
	addl	%eax, %eax
	movl	%eax, -8(%rbp)
	movl	-8(%rbp), %eax
	leal	1(%rax), %ecx
	movq	16(%rbp), %rax
	leaq	1(%rax), %rdx
	movl	%ecx, %eax
	movzbl	-224(%rbp,%rax), %eax
	movb	%al, (%rdx)
	movl	-8(%rbp), %eax
	movzbl	-224(%rbp,%rax), %edx
	movq	16(%rbp), %rax
	movb	%dl, (%rax)
	jmp	.L624
.L622:
	movl	32(%rbp), %eax
	addl	$48, %eax
	movl	%eax, %edx
	movq	16(%rbp), %rax
	movb	%dl, (%rax)
.L624:
	nop
	addq	$224, %rsp
	popq	%rbp
	ret
	.seh_endproc
	.section	.text$_ZZNSt7__cxx1112basic_stringIcSt11char_traitsIcESaIcEE22__resize_and_overwriteIZNS_9to_stringEiEUlPcyE_EEvyT_EN11_TerminatorD1Ev,"x"
	.linkonce discard
	.align 2
	.globl	_ZZNSt7__cxx1112basic_stringIcSt11char_traitsIcESaIcEE22__resize_and_overwriteIZNS_9to_stringEiEUlPcyE_EEvyT_EN11_TerminatorD1Ev
	.def	_ZZNSt7__cxx1112basic_stringIcSt11char_traitsIcESaIcEE22__resize_and_overwriteIZNS_9to_stringEiEUlPcyE_EEvyT_EN11_TerminatorD1Ev;	.scl	2;	.type	32;	.endef
	.seh_proc	_ZZNSt7__cxx1112basic_stringIcSt11char_traitsIcESaIcEE22__resize_and_overwriteIZNS_9to_stringEiEUlPcyE_EEvyT_EN11_TerminatorD1Ev
_ZZNSt7__cxx1112basic_stringIcSt11char_traitsIcESaIcEE22__resize_and_overwriteIZNS_9to_stringEiEUlPcyE_EEvyT_EN11_TerminatorD1Ev:
.LFB11138:
	pushq	%rbp
	.seh_pushreg	%rbp
	movq	%rsp, %rbp
	.seh_setframe	%rbp, 0
	subq	$32, %rsp
	.seh_stackalloc	32
	.seh_endprologue
	movq	%rcx, 16(%rbp)
	movq	16(%rbp), %rax
	movq	(%rax), %rax
	movq	16(%rbp), %rdx
	movq	8(%rdx), %rdx
	movq	%rax, %rcx
	call	_ZNSt7__cxx1112basic_stringIcSt11char_traitsIcESaIcEE13_M_set_lengthEy
	nop
	addq	$32, %rsp
	popq	%rbp
	ret
	.seh_handler	__gxx_personality_seh0, @unwind, @except
	.seh_handlerdata
.LLSDA11138:
	.byte	0xff
	.byte	0xff
	.byte	0x1
	.uleb128 .LLSDACSE11138-.LLSDACSB11138
.LLSDACSB11138:
.LLSDACSE11138:
	.section	.text$_ZZNSt7__cxx1112basic_stringIcSt11char_traitsIcESaIcEE22__resize_and_overwriteIZNS_9to_stringEiEUlPcyE_EEvyT_EN11_TerminatorD1Ev,"x"
	.linkonce discard
	.seh_endproc
	.section	.text$_ZNSt7__cxx1112basic_stringIcSt11char_traitsIcESaIcEE22__resize_and_overwriteIZNS_9to_stringEiEUlPcyE_EEvyT_,"x"
	.linkonce discard
	.align 2
	.globl	_ZNSt7__cxx1112basic_stringIcSt11char_traitsIcESaIcEE22__resize_and_overwriteIZNS_9to_stringEiEUlPcyE_EEvyT_
	.def	_ZNSt7__cxx1112basic_stringIcSt11char_traitsIcESaIcEE22__resize_and_overwriteIZNS_9to_stringEiEUlPcyE_EEvyT_;	.scl	2;	.type	32;	.endef
	.seh_proc	_ZNSt7__cxx1112basic_stringIcSt11char_traitsIcESaIcEE22__resize_and_overwriteIZNS_9to_stringEiEUlPcyE_EEvyT_
_ZNSt7__cxx1112basic_stringIcSt11char_traitsIcESaIcEE22__resize_and_overwriteIZNS_9to_stringEiEUlPcyE_EEvyT_:
.LFB11135:
	pushq	%rbp
	.seh_pushreg	%rbp
	pushq	%rbx
	.seh_pushreg	%rbx
	subq	$72, %rsp
	.seh_stackalloc	72
	leaq	64(%rsp), %rbp
	.seh_setframe	%rbp, 64
	.seh_endprologue
	movq	%rcx, 32(%rbp)
	movq	%rdx, 40(%rbp)
	movq	%r8, %rbx
	movq	40(%rbp), %rdx
	movq	32(%rbp), %rax
	movq	%rax, %rcx
	call	_ZNSt7__cxx1112basic_stringIcSt11char_traitsIcESaIcEE7reserveEy
	movq	32(%rbp), %rax
	movq	%rax, %rcx
	call	_ZNKSt7__cxx1112basic_stringIcSt11char_traitsIcESaIcEE7_M_dataEv
	movq	%rax, -8(%rbp)
	pxor	%xmm0, %xmm0
	movups	%xmm0, -32(%rbp)
	movq	32(%rbp), %rax
	movq	%rax, -32(%rbp)
	movq	%rbx, %rcx
	movq	40(%rbp), %rdx
	movq	-8(%rbp), %rax
	movq	%rdx, %r8
	movq	%rax, %rdx
	call	_ZZNSt7__cxx119to_stringEiENKUlPcyE_clES0_y
	movq	%rax, -16(%rbp)
	movq	-16(%rbp), %rax
	movq	%rax, -24(%rbp)
	movq	-24(%rbp), %rax
	cmpq	%rax, 40(%rbp)
	leaq	-32(%rbp), %rax
	movq	%rax, %rcx
	call	_ZZNSt7__cxx1112basic_stringIcSt11char_traitsIcESaIcEE22__resize_and_overwriteIZNS_9to_stringEiEUlPcyE_EEvyT_EN11_TerminatorD1Ev
	nop
	addq	$72, %rsp
	popq	%rbx
	popq	%rbp
	ret
	.seh_endproc
	.section	.text$_ZNSt7__cxx1112basic_stringIcSt11char_traitsIcESaIcEEC1EOS4_,"x"
	.linkonce discard
	.align 2
	.globl	_ZNSt7__cxx1112basic_stringIcSt11char_traitsIcESaIcEEC1EOS4_
	.def	_ZNSt7__cxx1112basic_stringIcSt11char_traitsIcESaIcEEC1EOS4_;	.scl	2;	.type	32;	.endef
	.seh_proc	_ZNSt7__cxx1112basic_stringIcSt11char_traitsIcESaIcEEC1EOS4_
_ZNSt7__cxx1112basic_stringIcSt11char_traitsIcESaIcEEC1EOS4_:
.LFB11141:
	pushq	%rbp
	.seh_pushreg	%rbp
	pushq	%rsi
	.seh_pushreg	%rsi
	pushq	%rbx
	.seh_pushreg	%rbx
	subq	$64, %rsp
	.seh_stackalloc	64
	leaq	64(%rsp), %rbp
	.seh_setframe	%rbp, 64
	.seh_endprologue
	movq	%rcx, 32(%rbp)
	movq	%rdx, 40(%rbp)
	movq	32(%rbp), %rbx
	movq	40(%rbp), %rax
	movq	%rax, %rcx
	call	_ZNSt7__cxx1112basic_stringIcSt11char_traitsIcESaIcEE16_M_get_allocatorEv
	movq	%rax, -8(%rbp)
	movq	-8(%rbp), %rsi
	movq	32(%rbp), %rax
	movq	%rax, %rcx
	call	_ZNSt7__cxx1112basic_stringIcSt11char_traitsIcESaIcEE13_M_local_dataEv
	movq	%rsi, %r8
	movq	%rax, %rdx
	movq	%rbx, %rcx
	call	_ZNSt7__cxx1112basic_stringIcSt11char_traitsIcESaIcEE12_Alloc_hiderC1EPcOS3_
	movq	40(%rbp), %rax
	movq	%rax, %rcx
	call	_ZNKSt7__cxx1112basic_stringIcSt11char_traitsIcESaIcEE11_M_is_localEv
	testb	%al, %al
	je	.L631
	movq	32(%rbp), %rax
	movq	%rax, -16(%rbp)
	nop
	movq	40(%rbp), %rax
	movq	%rax, %rcx
	call	_ZNKSt7__cxx1112basic_stringIcSt11char_traitsIcESaIcEE6lengthEv
	leaq	1(%rax), %rcx
	movq	40(%rbp), %rax
	leaq	16(%rax), %rdx
	movq	32(%rbp), %rax
	addq	$16, %rax
	movq	%rcx, %r8
	movq	%rax, %rcx
	call	_ZNSt11char_traitsIcE4copyEPcPKcy
	jmp	.L632
.L631:
	movq	40(%rbp), %rax
	movq	%rax, %rcx
	call	_ZNKSt7__cxx1112basic_stringIcSt11char_traitsIcESaIcEE7_M_dataEv
	movq	%rax, %rdx
	movq	32(%rbp), %rax
	movq	%rax, %rcx
	call	_ZNSt7__cxx1112basic_stringIcSt11char_traitsIcESaIcEE7_M_dataEPc
	movq	40(%rbp), %rax
	movq	16(%rax), %rdx
	movq	32(%rbp), %rax
	movq	%rax, %rcx
	call	_ZNSt7__cxx1112basic_stringIcSt11char_traitsIcESaIcEE11_M_capacityEy
.L632:
	movq	40(%rbp), %rax
	movq	%rax, %rcx
	call	_ZNKSt7__cxx1112basic_stringIcSt11char_traitsIcESaIcEE6lengthEv
	movq	%rax, %rdx
	movq	32(%rbp), %rax
	movq	%rax, %rcx
	call	_ZNSt7__cxx1112basic_stringIcSt11char_traitsIcESaIcEE9_M_lengthEy
	movq	40(%rbp), %rax
	movq	%rax, -24(%rbp)
	movq	-24(%rbp), %rax
	movq	%rax, %rcx
	call	_ZNSt7__cxx1112basic_stringIcSt11char_traitsIcESaIcEE13_M_local_dataEv
	movq	%rax, %rdx
	nop
	movq	40(%rbp), %rax
	movq	%rax, %rcx
	call	_ZNSt7__cxx1112basic_stringIcSt11char_traitsIcESaIcEE7_M_dataEPc
	movq	40(%rbp), %rax
	movl	$0, %edx
	movq	%rax, %rcx
	call	_ZNSt7__cxx1112basic_stringIcSt11char_traitsIcESaIcEE13_M_set_lengthEy
	nop
	addq	$64, %rsp
	popq	%rbx
	popq	%rsi
	popq	%rbp
	ret
	.seh_handler	__gxx_personality_seh0, @unwind, @except
	.seh_handlerdata
.LLSDA11141:
	.byte	0xff
	.byte	0xff
	.byte	0x1
	.uleb128 .LLSDACSE11141-.LLSDACSB11141
.LLSDACSB11141:
.LLSDACSE11141:
	.section	.text$_ZNSt7__cxx1112basic_stringIcSt11char_traitsIcESaIcEEC1EOS4_,"x"
	.linkonce discard
	.seh_endproc
	.section	.text$_ZSt3maxIyERKT_S2_S2_,"x"
	.linkonce discard
	.globl	_ZSt3maxIyERKT_S2_S2_
	.def	_ZSt3maxIyERKT_S2_S2_;	.scl	2;	.type	32;	.endef
	.seh_proc	_ZSt3maxIyERKT_S2_S2_
_ZSt3maxIyERKT_S2_S2_:
.LFB11297:
	pushq	%rbp
	.seh_pushreg	%rbp
	movq	%rsp, %rbp
	.seh_setframe	%rbp, 0
	.seh_endprologue
	movq	%rcx, 16(%rbp)
	movq	%rdx, 24(%rbp)
	movq	16(%rbp), %rax
	movq	(%rax), %rdx
	movq	24(%rbp), %rax
	movq	(%rax), %rax
	cmpq	%rax, %rdx
	jnb	.L635
	movq	24(%rbp), %rax
	jmp	.L636
.L635:
	movq	16(%rbp), %rax
.L636:
	popq	%rbp
	ret
	.seh_endproc
	.section	.text$_ZStplIcSt11char_traitsIcESaIcEENSt7__cxx1112basic_stringIT_T0_T1_EEPKS5_OS8_,"x"
	.linkonce discard
	.globl	_ZStplIcSt11char_traitsIcESaIcEENSt7__cxx1112basic_stringIT_T0_T1_EEPKS5_OS8_
	.def	_ZStplIcSt11char_traitsIcESaIcEENSt7__cxx1112basic_stringIT_T0_T1_EEPKS5_OS8_;	.scl	2;	.type	32;	.endef
	.seh_proc	_ZStplIcSt11char_traitsIcESaIcEENSt7__cxx1112basic_stringIT_T0_T1_EEPKS5_OS8_
_ZStplIcSt11char_traitsIcESaIcEENSt7__cxx1112basic_stringIT_T0_T1_EEPKS5_OS8_:
.LFB11305:
	pushq	%rbp
	.seh_pushreg	%rbp
	movq	%rsp, %rbp
	.seh_setframe	%rbp, 0
	subq	$48, %rsp
	.seh_stackalloc	48
	.seh_endprologue
	movq	%rcx, 16(%rbp)
	movq	%rdx, 24(%rbp)
	movq	%r8, 32(%rbp)
	movq	24(%rbp), %rdx
	movq	32(%rbp), %rax
	movq	%rdx, %r8
	movl	$0, %edx
	movq	%rax, %rcx
	call	_ZNSt7__cxx1112basic_stringIcSt11char_traitsIcESaIcEE6insertEyPKc
	movq	%rax, -8(%rbp)
	movq	-8(%rbp), %rdx
	movq	16(%rbp), %rax
	movq	%rax, %rcx
	call	_ZNSt7__cxx1112basic_stringIcSt11char_traitsIcESaIcEEC1EOS4_
	movq	16(%rbp), %rax
	addq	$48, %rsp
	popq	%rbp
	ret
	.seh_endproc
	.section .rdata,"dr"
	.align 8
.LC39:
	.ascii "basic_string: construction from null is not valid\0"
	.section	.text$_ZNSt7__cxx1112basic_stringIcSt11char_traitsIcESaIcEEC1IS3_EEPKcRKS3_,"x"
	.linkonce discard
	.align 2
	.globl	_ZNSt7__cxx1112basic_stringIcSt11char_traitsIcESaIcEEC1IS3_EEPKcRKS3_
	.def	_ZNSt7__cxx1112basic_stringIcSt11char_traitsIcESaIcEEC1IS3_EEPKcRKS3_;	.scl	2;	.type	32;	.endef
	.seh_proc	_ZNSt7__cxx1112basic_stringIcSt11char_traitsIcESaIcEEC1IS3_EEPKcRKS3_
_ZNSt7__cxx1112basic_stringIcSt11char_traitsIcESaIcEEC1IS3_EEPKcRKS3_:
.LFB11631:
	pushq	%rbp
	.seh_pushreg	%rbp
	pushq	%rsi
	.seh_pushreg	%rsi
	pushq	%rbx
	.seh_pushreg	%rbx
	subq	$48, %rsp
	.seh_stackalloc	48
	leaq	48(%rsp), %rbp
	.seh_setframe	%rbp, 48
	.seh_endprologue
	movq	%rcx, 32(%rbp)
	movq	%rdx, 40(%rbp)
	movq	%r8, 48(%rbp)
	movq	32(%rbp), %rbx
	movq	32(%rbp), %rax
	movq	%rax, %rcx
	call	_ZNSt7__cxx1112basic_stringIcSt11char_traitsIcESaIcEE13_M_local_dataEv
	movq	48(%rbp), %rdx
	movq	%rdx, %r8
	movq	%rax, %rdx
	movq	%rbx, %rcx
	call	_ZNSt7__cxx1112basic_stringIcSt11char_traitsIcESaIcEE12_Alloc_hiderC1EPcRKS3_
	cmpq	$0, 40(%rbp)
	jne	.L641
	leaq	.LC39(%rip), %rax
	movq	%rax, %rcx
.LEHB101:
	call	_ZSt19__throw_logic_errorPKc
.L641:
	movq	40(%rbp), %rax
	movq	%rax, %rcx
	call	_ZNSt11char_traitsIcE6lengthEPKc
	movq	40(%rbp), %rdx
	addq	%rdx, %rax
	movq	%rax, -8(%rbp)
	movq	-8(%rbp), %rcx
	movq	40(%rbp), %rdx
	movq	32(%rbp), %rax
	movl	%esi, %r9d
	movq	%rcx, %r8
	movq	%rax, %rcx
	call	_ZNSt7__cxx1112basic_stringIcSt11char_traitsIcESaIcEE12_M_constructIPKcEEvT_S8_St20forward_iterator_tag
.LEHE101:
	jmp	.L644
.L643:
	movq	%rax, %rbx
	movq	32(%rbp), %rax
	movq	%rax, %rcx
	call	_ZNSt7__cxx1112basic_stringIcSt11char_traitsIcESaIcEE12_Alloc_hiderD1Ev
	movq	%rbx, %rax
	movq	%rax, %rcx
.LEHB102:
	call	_Unwind_Resume
	nop
.LEHE102:
.L644:
	addq	$48, %rsp
	popq	%rbx
	popq	%rsi
	popq	%rbp
	ret
	.seh_handler	__gxx_personality_seh0, @unwind, @except
	.seh_handlerdata
.LLSDA11631:
	.byte	0xff
	.byte	0xff
	.byte	0x1
	.uleb128 .LLSDACSE11631-.LLSDACSB11631
.LLSDACSB11631:
	.uleb128 .LEHB101-.LFB11631
	.uleb128 .LEHE101-.LEHB101
	.uleb128 .L643-.LFB11631
	.uleb128 0
	.uleb128 .LEHB102-.LFB11631
	.uleb128 .LEHE102-.LEHB102
	.uleb128 0
	.uleb128 0
.LLSDACSE11631:
	.section	.text$_ZNSt7__cxx1112basic_stringIcSt11char_traitsIcESaIcEEC1IS3_EEPKcRKS3_,"x"
	.linkonce discard
	.seh_endproc
	.section	.text$_ZNSt12_Vector_baseIySaIyEED2Ev,"x"
	.linkonce discard
	.align 2
	.globl	_ZNSt12_Vector_baseIySaIyEED2Ev
	.def	_ZNSt12_Vector_baseIySaIyEED2Ev;	.scl	2;	.type	32;	.endef
	.seh_proc	_ZNSt12_Vector_baseIySaIyEED2Ev
_ZNSt12_Vector_baseIySaIyEED2Ev:
.LFB11652:
	pushq	%rbp
	.seh_pushreg	%rbp
	movq	%rsp, %rbp
	.seh_setframe	%rbp, 0
	subq	$32, %rsp
	.seh_stackalloc	32
	.seh_endprologue
	movq	%rcx, 16(%rbp)
	movq	16(%rbp), %rax
	movq	16(%rax), %rdx
	movq	16(%rbp), %rax
	movq	(%rax), %rax
	subq	%rax, %rdx
	movq	%rdx, %rax
	sarq	$3, %rax
	movq	%rax, %rcx
	movq	16(%rbp), %rax
	movq	(%rax), %rdx
	movq	16(%rbp), %rax
	movq	%rcx, %r8
	movq	%rax, %rcx
	call	_ZNSt12_Vector_baseIySaIyEE13_M_deallocateEPyy
	movq	16(%rbp), %rax
	movq	%rax, %rcx
	call	_ZNSt12_Vector_baseIySaIyEE12_Vector_implD1Ev
	nop
	addq	$32, %rsp
	popq	%rbp
	ret
	.seh_handler	__gxx_personality_seh0, @unwind, @except
	.seh_handlerdata
.LLSDA11652:
	.byte	0xff
	.byte	0xff
	.byte	0x1
	.uleb128 .LLSDACSE11652-.LLSDACSB11652
.LLSDACSB11652:
.LLSDACSE11652:
	.section	.text$_ZNSt12_Vector_baseIySaIyEED2Ev,"x"
	.linkonce discard
	.seh_endproc
	.section	.text$_ZNSt6vectorIySaIyEED1Ev,"x"
	.linkonce discard
	.align 2
	.globl	_ZNSt6vectorIySaIyEED1Ev
	.def	_ZNSt6vectorIySaIyEED1Ev;	.scl	2;	.type	32;	.endef
	.seh_proc	_ZNSt6vectorIySaIyEED1Ev
_ZNSt6vectorIySaIyEED1Ev:
.LFB11656:
	pushq	%rbp
	.seh_pushreg	%rbp
	movq	%rsp, %rbp
	.seh_setframe	%rbp, 0
	subq	$64, %rsp
	.seh_stackalloc	64
	.seh_endprologue
	movq	%rcx, 16(%rbp)
	movq	16(%rbp), %rax
	movq	%rax, %rcx
	call	_ZNSt12_Vector_baseIySaIyEE19_M_get_Tp_allocatorEv
	movq	16(%rbp), %rdx
	movq	8(%rdx), %rdx
	movq	16(%rbp), %rcx
	movq	(%rcx), %rcx
	movq	%rcx, -8(%rbp)
	movq	%rdx, -16(%rbp)
	movq	%rax, -24(%rbp)
	movq	-16(%rbp), %rdx
	movq	-8(%rbp), %rax
	movq	%rax, %rcx
	call	_ZSt8_DestroyIPyEvT_S1_
	nop
	movq	16(%rbp), %rax
	movq	%rax, %rcx
	call	_ZNSt12_Vector_baseIySaIyEED2Ev
	nop
	addq	$64, %rsp
	popq	%rbp
	ret
	.seh_endproc
	.section	.text$_ZNSt6vectorIySaIyEEC1ESt16initializer_listIyERKS0_,"x"
	.linkonce discard
	.align 2
	.globl	_ZNSt6vectorIySaIyEEC1ESt16initializer_listIyERKS0_
	.def	_ZNSt6vectorIySaIyEEC1ESt16initializer_listIyERKS0_;	.scl	2;	.type	32;	.endef
	.seh_proc	_ZNSt6vectorIySaIyEEC1ESt16initializer_listIyERKS0_
_ZNSt6vectorIySaIyEEC1ESt16initializer_listIyERKS0_:
.LFB11745:
	pushq	%rbp
	.seh_pushreg	%rbp
	pushq	%rsi
	.seh_pushreg	%rsi
	pushq	%rbx
	.seh_pushreg	%rbx
	subq	$48, %rsp
	.seh_stackalloc	48
	leaq	48(%rsp), %rbp
	.seh_setframe	%rbp, 48
	.seh_endprologue
	movq	%rcx, 32(%rbp)
	movq	%rdx, %rbx
	movq	(%rbx), %rax
	movq	8(%rbx), %rdx
	movq	%rax, -16(%rbp)
	movq	%rdx, -8(%rbp)
	movq	%r8, 48(%rbp)
	movq	32(%rbp), %rax
	movq	48(%rbp), %rdx
	movq	%rax, %rcx
	call	_ZNSt12_Vector_baseIySaIyEEC2ERKS0_
	leaq	-16(%rbp), %rax
	movq	%rax, %rcx
	call	_ZNKSt16initializer_listIyE4sizeEv
	movq	%rax, %rsi
	leaq	-16(%rbp), %rax
	movq	%rax, %rcx
	call	_ZNKSt16initializer_listIyE3endEv
	movq	%rax, %rbx
	leaq	-16(%rbp), %rax
	movq	%rax, %rcx
	call	_ZNKSt16initializer_listIyE5beginEv
	movq	%rax, %rdx
	movq	32(%rbp), %rax
	movq	%rsi, %r9
	movq	%rbx, %r8
	movq	%rax, %rcx
.LEHB103:
	call	_ZNSt6vectorIySaIyEE21_M_range_initialize_nIPKyS4_EEvT_T0_y
.LEHE103:
	jmp	.L650
.L649:
	movq	%rax, %rbx
	movq	32(%rbp), %rax
	movq	%rax, %rcx
	call	_ZNSt12_Vector_baseIySaIyEED2Ev
	movq	%rbx, %rax
	movq	%rax, %rcx
.LEHB104:
	call	_Unwind_Resume
	nop
.LEHE104:
.L650:
	addq	$48, %rsp
	popq	%rbx
	popq	%rsi
	popq	%rbp
	ret
	.seh_handler	__gxx_personality_seh0, @unwind, @except
	.seh_handlerdata
.LLSDA11745:
	.byte	0xff
	.byte	0xff
	.byte	0x1
	.uleb128 .LLSDACSE11745-.LLSDACSB11745
.LLSDACSB11745:
	.uleb128 .LEHB103-.LFB11745
	.uleb128 .LEHE103-.LEHB103
	.uleb128 .L649-.LFB11745
	.uleb128 0
	.uleb128 .LEHB104-.LFB11745
	.uleb128 .LEHE104-.LEHB104
	.uleb128 0
	.uleb128 0
.LLSDACSE11745:
	.section	.text$_ZNSt6vectorIySaIyEEC1ESt16initializer_listIyERKS0_,"x"
	.linkonce discard
	.seh_endproc
	.section	.text$_ZNSt6vectorIS_IS_IfSaIfEESaIS1_EESaIS3_EED1Ev,"x"
	.linkonce discard
	.align 2
	.globl	_ZNSt6vectorIS_IS_IfSaIfEESaIS1_EESaIS3_EED1Ev
	.def	_ZNSt6vectorIS_IS_IfSaIfEESaIS1_EESaIS3_EED1Ev;	.scl	2;	.type	32;	.endef
	.seh_proc	_ZNSt6vectorIS_IS_IfSaIfEESaIS1_EESaIS3_EED1Ev
_ZNSt6vectorIS_IS_IfSaIfEESaIS1_EESaIS3_EED1Ev:
.LFB11748:
	pushq	%rbp
	.seh_pushreg	%rbp
	movq	%rsp, %rbp
	.seh_setframe	%rbp, 0
	subq	$64, %rsp
	.seh_stackalloc	64
	.seh_endprologue
	movq	%rcx, 16(%rbp)
	movq	16(%rbp), %rax
	movq	%rax, %rcx
	call	_ZNSt12_Vector_baseISt6vectorIS0_IfSaIfEESaIS2_EESaIS4_EE19_M_get_Tp_allocatorEv
	movq	16(%rbp), %rdx
	movq	8(%rdx), %rdx
	movq	16(%rbp), %rcx
	movq	(%rcx), %rcx
	movq	%rcx, -8(%rbp)
	movq	%rdx, -16(%rbp)
	movq	%rax, -24(%rbp)
	movq	-16(%rbp), %rdx
	movq	-8(%rbp), %rax
	movq	%rax, %rcx
	call	_ZSt8_DestroyIPSt6vectorIS0_IfSaIfEESaIS2_EEEvT_S6_
	nop
	movq	16(%rbp), %rax
	movq	%rax, %rcx
	call	_ZNSt12_Vector_baseISt6vectorIS0_IfSaIfEESaIS2_EESaIS4_EED2Ev
	nop
	addq	$64, %rsp
	popq	%rbp
	ret
	.seh_handler	__gxx_personality_seh0, @unwind, @except
	.seh_handlerdata
.LLSDA11748:
	.byte	0xff
	.byte	0xff
	.byte	0x1
	.uleb128 .LLSDACSE11748-.LLSDACSB11748
.LLSDACSB11748:
.LLSDACSE11748:
	.section	.text$_ZNSt6vectorIS_IS_IfSaIfEESaIS1_EESaIS3_EED1Ev,"x"
	.linkonce discard
	.seh_endproc
	.section	.text$_ZNSt6vectorIS_IfSaIfEESaIS1_EED1Ev,"x"
	.linkonce discard
	.align 2
	.globl	_ZNSt6vectorIS_IfSaIfEESaIS1_EED1Ev
	.def	_ZNSt6vectorIS_IfSaIfEESaIS1_EED1Ev;	.scl	2;	.type	32;	.endef
	.seh_proc	_ZNSt6vectorIS_IfSaIfEESaIS1_EED1Ev
_ZNSt6vectorIS_IfSaIfEESaIS1_EED1Ev:
.LFB11751:
	pushq	%rbp
	.seh_pushreg	%rbp
	movq	%rsp, %rbp
	.seh_setframe	%rbp, 0
	subq	$64, %rsp
	.seh_stackalloc	64
	.seh_endprologue
	movq	%rcx, 16(%rbp)
	movq	16(%rbp), %rax
	movq	%rax, %rcx
	call	_ZNSt12_Vector_baseISt6vectorIfSaIfEESaIS2_EE19_M_get_Tp_allocatorEv
	movq	16(%rbp), %rdx
	movq	8(%rdx), %rdx
	movq	16(%rbp), %rcx
	movq	(%rcx), %rcx
	movq	%rcx, -8(%rbp)
	movq	%rdx, -16(%rbp)
	movq	%rax, -24(%rbp)
	movq	-16(%rbp), %rdx
	movq	-8(%rbp), %rax
	movq	%rax, %rcx
	call	_ZSt8_DestroyIPSt6vectorIfSaIfEEEvT_S4_
	nop
	movq	16(%rbp), %rax
	movq	%rax, %rcx
	call	_ZNSt12_Vector_baseISt6vectorIfSaIfEESaIS2_EED2Ev
	nop
	addq	$64, %rsp
	popq	%rbp
	ret
	.seh_handler	__gxx_personality_seh0, @unwind, @except
	.seh_handlerdata
.LLSDA11751:
	.byte	0xff
	.byte	0xff
	.byte	0x1
	.uleb128 .LLSDACSE11751-.LLSDACSB11751
.LLSDACSB11751:
.LLSDACSE11751:
	.section	.text$_ZNSt6vectorIS_IfSaIfEESaIS1_EED1Ev,"x"
	.linkonce discard
	.seh_endproc
	.section	.text$_ZNSt6vectorIySaIyEEC1ERKS1_,"x"
	.linkonce discard
	.align 2
	.globl	_ZNSt6vectorIySaIyEEC1ERKS1_
	.def	_ZNSt6vectorIySaIyEEC1ERKS1_;	.scl	2;	.type	32;	.endef
	.seh_proc	_ZNSt6vectorIySaIyEEC1ERKS1_
_ZNSt6vectorIySaIyEEC1ERKS1_:
.LFB11754:
	pushq	%rbp
	.seh_pushreg	%rbp
	pushq	%rdi
	.seh_pushreg	%rdi
	pushq	%rsi
	.seh_pushreg	%rsi
	pushq	%rbx
	.seh_pushreg	%rbx
	subq	$104, %rsp
	.seh_stackalloc	104
	leaq	96(%rsp), %rbp
	.seh_setframe	%rbp, 96
	.seh_endprologue
	movq	%rcx, 48(%rbp)
	movq	%rdx, 56(%rbp)
	movq	48(%rbp), %rbx
	movq	56(%rbp), %rax
	movq	%rax, %rcx
	call	_ZNKSt12_Vector_baseIySaIyEE19_M_get_Tp_allocatorEv
	movq	%rax, -8(%rbp)
	leaq	-49(%rbp), %rax
	movq	-8(%rbp), %rdx
	movq	%rdx, -16(%rbp)
	movq	%rax, -24(%rbp)
	movq	-16(%rbp), %rax
	movq	%rax, -32(%rbp)
	movq	-24(%rbp), %rax
	movq	%rax, -40(%rbp)
	movq	-32(%rbp), %rax
	movq	%rax, -48(%rbp)
	nop
	nop
	nop
	nop
	movq	56(%rbp), %rax
	movq	%rax, %rcx
	call	_ZNKSt6vectorIySaIyEE4sizeEv
	leaq	-49(%rbp), %rdx
	movq	%rdx, %r8
	movq	%rax, %rdx
	movq	%rbx, %rcx
.LEHB105:
	call	_ZNSt12_Vector_baseIySaIyEEC2EyRKS0_
.LEHE105:
	leaq	-49(%rbp), %rax
	movq	%rax, %rcx
	call	_ZNSt15__new_allocatorIyED2Ev
	nop
	movq	48(%rbp), %rax
	movq	%rax, %rcx
	call	_ZNSt12_Vector_baseIySaIyEE19_M_get_Tp_allocatorEv
	movq	%rax, %rsi
	movq	48(%rbp), %rax
	movq	(%rax), %rdi
	movq	56(%rbp), %rax
	movq	%rax, %rcx
	call	_ZNKSt6vectorIySaIyEE3endEv
	movq	%rax, %rbx
	movq	56(%rbp), %rax
	movq	%rax, %rcx
	call	_ZNKSt6vectorIySaIyEE5beginEv
	movq	%rsi, %r9
	movq	%rdi, %r8
	movq	%rbx, %rdx
	movq	%rax, %rcx
.LEHB106:
	call	_ZSt22__uninitialized_copy_aIN9__gnu_cxx17__normal_iteratorIPKySt6vectorIySaIyEEEES7_PyyET1_T_T0_S9_RSaIT2_E
.LEHE106:
	movq	48(%rbp), %rdx
	movq	%rax, 8(%rdx)
	jmp	.L660
.L658:
	movq	%rax, %rbx
	leaq	-49(%rbp), %rax
	movq	%rax, %rcx
	call	_ZNSt15__new_allocatorIyED2Ev
	nop
	movq	%rbx, %rax
	movq	%rax, %rcx
.LEHB107:
	call	_Unwind_Resume
.L659:
	movq	%rax, %rbx
	movq	48(%rbp), %rax
	movq	%rax, %rcx
	call	_ZNSt12_Vector_baseIySaIyEED2Ev
	movq	%rbx, %rax
	movq	%rax, %rcx
	call	_Unwind_Resume
	nop
.LEHE107:
.L660:
	addq	$104, %rsp
	popq	%rbx
	popq	%rsi
	popq	%rdi
	popq	%rbp
	ret
	.seh_handler	__gxx_personality_seh0, @unwind, @except
	.seh_handlerdata
.LLSDA11754:
	.byte	0xff
	.byte	0xff
	.byte	0x1
	.uleb128 .LLSDACSE11754-.LLSDACSB11754
.LLSDACSB11754:
	.uleb128 .LEHB105-.LFB11754
	.uleb128 .LEHE105-.LEHB105
	.uleb128 .L658-.LFB11754
	.uleb128 0
	.uleb128 .LEHB106-.LFB11754
	.uleb128 .LEHE106-.LEHB106
	.uleb128 .L659-.LFB11754
	.uleb128 0
	.uleb128 .LEHB107-.LFB11754
	.uleb128 .LEHE107-.LEHB107
	.uleb128 0
	.uleb128 0
.LLSDACSE11754:
	.section	.text$_ZNSt6vectorIySaIyEEC1ERKS1_,"x"
	.linkonce discard
	.seh_endproc
	.section	.text$_ZNSt12_Vector_baseISt6vectorIS0_IfSaIfEESaIS2_EESaIS4_EE12_Vector_implC1Ev,"x"
	.linkonce discard
	.align 2
	.globl	_ZNSt12_Vector_baseISt6vectorIS0_IfSaIfEESaIS2_EESaIS4_EE12_Vector_implC1Ev
	.def	_ZNSt12_Vector_baseISt6vectorIS0_IfSaIfEESaIS2_EESaIS4_EE12_Vector_implC1Ev;	.scl	2;	.type	32;	.endef
	.seh_proc	_ZNSt12_Vector_baseISt6vectorIS0_IfSaIfEESaIS2_EESaIS4_EE12_Vector_implC1Ev
_ZNSt12_Vector_baseISt6vectorIS0_IfSaIfEESaIS2_EESaIS4_EE12_Vector_implC1Ev:
.LFB11757:
	pushq	%rbp
	.seh_pushreg	%rbp
	movq	%rsp, %rbp
	.seh_setframe	%rbp, 0
	subq	$48, %rsp
	.seh_stackalloc	48
	.seh_endprologue
	movq	%rcx, 16(%rbp)
	movq	16(%rbp), %rax
	movq	%rax, -8(%rbp)
	movq	-8(%rbp), %rax
	movq	%rax, -16(%rbp)
	nop
	nop
	movq	16(%rbp), %rax
	movq	%rax, %rcx
	call	_ZNSt12_Vector_baseISt6vectorIS0_IfSaIfEESaIS2_EESaIS4_EE17_Vector_impl_dataC2Ev
	nop
	addq	$48, %rsp
	popq	%rbp
	ret
	.seh_endproc
	.section	.text$_ZNSt12_Vector_baseISt6vectorIS0_IfSaIfEESaIS2_EESaIS4_EED2Ev,"x"
	.linkonce discard
	.align 2
	.globl	_ZNSt12_Vector_baseISt6vectorIS0_IfSaIfEESaIS2_EESaIS4_EED2Ev
	.def	_ZNSt12_Vector_baseISt6vectorIS0_IfSaIfEESaIS2_EESaIS4_EED2Ev;	.scl	2;	.type	32;	.endef
	.seh_proc	_ZNSt12_Vector_baseISt6vectorIS0_IfSaIfEESaIS2_EESaIS4_EED2Ev
_ZNSt12_Vector_baseISt6vectorIS0_IfSaIfEESaIS2_EESaIS4_EED2Ev:
.LFB11762:
	pushq	%rbp
	.seh_pushreg	%rbp
	movq	%rsp, %rbp
	.seh_setframe	%rbp, 0
	subq	$32, %rsp
	.seh_stackalloc	32
	.seh_endprologue
	movq	%rcx, 16(%rbp)
	movq	16(%rbp), %rax
	movq	16(%rax), %rdx
	movq	16(%rbp), %rax
	movq	(%rax), %rax
	subq	%rax, %rdx
	sarq	$3, %rdx
	movabsq	$-6148914691236517205, %rax
	imulq	%rdx, %rax
	movq	%rax, %rcx
	movq	16(%rbp), %rax
	movq	(%rax), %rdx
	movq	16(%rbp), %rax
	movq	%rcx, %r8
	movq	%rax, %rcx
	call	_ZNSt12_Vector_baseISt6vectorIS0_IfSaIfEESaIS2_EESaIS4_EE13_M_deallocateEPS4_y
	movq	16(%rbp), %rax
	movq	%rax, %rcx
	call	_ZNSt12_Vector_baseISt6vectorIS0_IfSaIfEESaIS2_EESaIS4_EE12_Vector_implD1Ev
	nop
	addq	$32, %rsp
	popq	%rbp
	ret
	.seh_handler	__gxx_personality_seh0, @unwind, @except
	.seh_handlerdata
.LLSDA11762:
	.byte	0xff
	.byte	0xff
	.byte	0x1
	.uleb128 .LLSDACSE11762-.LLSDACSB11762
.LLSDACSB11762:
.LLSDACSE11762:
	.section	.text$_ZNSt12_Vector_baseISt6vectorIS0_IfSaIfEESaIS2_EESaIS4_EED2Ev,"x"
	.linkonce discard
	.seh_endproc
	.section	.text$_ZNSt12_Vector_baseISt6vectorIfSaIfEESaIS2_EE12_Vector_implC1Ev,"x"
	.linkonce discard
	.align 2
	.globl	_ZNSt12_Vector_baseISt6vectorIfSaIfEESaIS2_EE12_Vector_implC1Ev
	.def	_ZNSt12_Vector_baseISt6vectorIfSaIfEESaIS2_EE12_Vector_implC1Ev;	.scl	2;	.type	32;	.endef
	.seh_proc	_ZNSt12_Vector_baseISt6vectorIfSaIfEESaIS2_EE12_Vector_implC1Ev
_ZNSt12_Vector_baseISt6vectorIfSaIfEESaIS2_EE12_Vector_implC1Ev:
.LFB11766:
	pushq	%rbp
	.seh_pushreg	%rbp
	movq	%rsp, %rbp
	.seh_setframe	%rbp, 0
	subq	$48, %rsp
	.seh_stackalloc	48
	.seh_endprologue
	movq	%rcx, 16(%rbp)
	movq	16(%rbp), %rax
	movq	%rax, -8(%rbp)
	movq	-8(%rbp), %rax
	movq	%rax, -16(%rbp)
	nop
	nop
	movq	16(%rbp), %rax
	movq	%rax, %rcx
	call	_ZNSt12_Vector_baseISt6vectorIfSaIfEESaIS2_EE17_Vector_impl_dataC2Ev
	nop
	addq	$48, %rsp
	popq	%rbp
	ret
	.seh_endproc
	.section	.text$_ZNSt12_Vector_baseISt6vectorIfSaIfEESaIS2_EED2Ev,"x"
	.linkonce discard
	.align 2
	.globl	_ZNSt12_Vector_baseISt6vectorIfSaIfEESaIS2_EED2Ev
	.def	_ZNSt12_Vector_baseISt6vectorIfSaIfEESaIS2_EED2Ev;	.scl	2;	.type	32;	.endef
	.seh_proc	_ZNSt12_Vector_baseISt6vectorIfSaIfEESaIS2_EED2Ev
_ZNSt12_Vector_baseISt6vectorIfSaIfEESaIS2_EED2Ev:
.LFB11771:
	pushq	%rbp
	.seh_pushreg	%rbp
	movq	%rsp, %rbp
	.seh_setframe	%rbp, 0
	subq	$32, %rsp
	.seh_stackalloc	32
	.seh_endprologue
	movq	%rcx, 16(%rbp)
	movq	16(%rbp), %rax
	movq	16(%rax), %rdx
	movq	16(%rbp), %rax
	movq	(%rax), %rax
	subq	%rax, %rdx
	sarq	$3, %rdx
	movabsq	$-6148914691236517205, %rax
	imulq	%rdx, %rax
	movq	%rax, %rcx
	movq	16(%rbp), %rax
	movq	(%rax), %rdx
	movq	16(%rbp), %rax
	movq	%rcx, %r8
	movq	%rax, %rcx
	call	_ZNSt12_Vector_baseISt6vectorIfSaIfEESaIS2_EE13_M_deallocateEPS2_y
	movq	16(%rbp), %rax
	movq	%rax, %rcx
	call	_ZNSt12_Vector_baseISt6vectorIfSaIfEESaIS2_EE12_Vector_implD1Ev
	nop
	addq	$32, %rsp
	popq	%rbp
	ret
	.seh_handler	__gxx_personality_seh0, @unwind, @except
	.seh_handlerdata
.LLSDA11771:
	.byte	0xff
	.byte	0xff
	.byte	0x1
	.uleb128 .LLSDACSE11771-.LLSDACSB11771
.LLSDACSB11771:
.LLSDACSE11771:
	.section	.text$_ZNSt12_Vector_baseISt6vectorIfSaIfEESaIS2_EED2Ev,"x"
	.linkonce discard
	.seh_endproc
	.section	.text$_ZNSt23mersenne_twister_engineIjLy32ELy624ELy397ELy31ELj2567483615ELy11ELj4294967295ELy7ELj2636928640ELy15ELj4022730752ELy18ELj1812433253EEC1Ej,"x"
	.linkonce discard
	.align 2
	.globl	_ZNSt23mersenne_twister_engineIjLy32ELy624ELy397ELy31ELj2567483615ELy11ELj4294967295ELy7ELj2636928640ELy15ELj4022730752ELy18ELj1812433253EEC1Ej
	.def	_ZNSt23mersenne_twister_engineIjLy32ELy624ELy397ELy31ELj2567483615ELy11ELj4294967295ELy7ELj2636928640ELy15ELj4022730752ELy18ELj1812433253EEC1Ej;	.scl	2;	.type	32;	.endef
	.seh_proc	_ZNSt23mersenne_twister_engineIjLy32ELy624ELy397ELy31ELj2567483615ELy11ELj4294967295ELy7ELj2636928640ELy15ELj4022730752ELy18ELj1812433253EEC1Ej
_ZNSt23mersenne_twister_engineIjLy32ELy624ELy397ELy31ELj2567483615ELy11ELj4294967295ELy7ELj2636928640ELy15ELj4022730752ELy18ELj1812433253EEC1Ej:
.LFB11775:
	pushq	%rbp
	.seh_pushreg	%rbp
	movq	%rsp, %rbp
	.seh_setframe	%rbp, 0
	subq	$32, %rsp
	.seh_stackalloc	32
	.seh_endprologue
	movq	%rcx, 16(%rbp)
	movl	%edx, 24(%rbp)
	movl	24(%rbp), %edx
	movq	16(%rbp), %rax
	movq	%rax, %rcx
	call	_ZNSt23mersenne_twister_engineIjLy32ELy624ELy397ELy31ELj2567483615ELy11ELj4294967295ELy7ELj2636928640ELy15ELj4022730752ELy18ELj1812433253EE4seedEj
	nop
	addq	$32, %rsp
	popq	%rbp
	ret
	.seh_endproc
	.section	.text$_ZNKSt6vectorIySaIyEE4sizeEv,"x"
	.linkonce discard
	.align 2
	.globl	_ZNKSt6vectorIySaIyEE4sizeEv
	.def	_ZNKSt6vectorIySaIyEE4sizeEv;	.scl	2;	.type	32;	.endef
	.seh_proc	_ZNKSt6vectorIySaIyEE4sizeEv
_ZNKSt6vectorIySaIyEE4sizeEv:
.LFB11776:
	pushq	%rbp
	.seh_pushreg	%rbp
	movq	%rsp, %rbp
	.seh_setframe	%rbp, 0
	subq	$16, %rsp
	.seh_stackalloc	16
	.seh_endprologue
	movq	%rcx, 16(%rbp)
	movq	16(%rbp), %rax
	movq	8(%rax), %rdx
	movq	16(%rbp), %rax
	movq	(%rax), %rax
	subq	%rax, %rdx
	movq	%rdx, %rax
	sarq	$3, %rax
	movq	%rax, -8(%rbp)
	cmpq	$0, -8(%rbp)
	movq	-8(%rbp), %rax
	addq	$16, %rsp
	popq	%rbp
	ret
	.seh_endproc
	.section	.text$_ZNSt6vectorIySaIyEE5beginEv,"x"
	.linkonce discard
	.align 2
	.globl	_ZNSt6vectorIySaIyEE5beginEv
	.def	_ZNSt6vectorIySaIyEE5beginEv;	.scl	2;	.type	32;	.endef
	.seh_proc	_ZNSt6vectorIySaIyEE5beginEv
_ZNSt6vectorIySaIyEE5beginEv:
.LFB11777:
	pushq	%rbp
	.seh_pushreg	%rbp
	movq	%rsp, %rbp
	.seh_setframe	%rbp, 0
	subq	$16, %rsp
	.seh_stackalloc	16
	.seh_endprologue
	movq	%rcx, 16(%rbp)
	movq	16(%rbp), %rax
	movq	%rax, -8(%rbp)
	movq	-8(%rbp), %rax
	movq	(%rax), %rax
	movq	%rax, -16(%rbp)
	nop
	movq	-16(%rbp), %rax
	addq	$16, %rsp
	popq	%rbp
	ret
	.seh_endproc
	.section	.text$_ZNSt6vectorIySaIyEE3endEv,"x"
	.linkonce discard
	.align 2
	.globl	_ZNSt6vectorIySaIyEE3endEv
	.def	_ZNSt6vectorIySaIyEE3endEv;	.scl	2;	.type	32;	.endef
	.seh_proc	_ZNSt6vectorIySaIyEE3endEv
_ZNSt6vectorIySaIyEE3endEv:
.LFB11778:
	pushq	%rbp
	.seh_pushreg	%rbp
	movq	%rsp, %rbp
	.seh_setframe	%rbp, 0
	subq	$16, %rsp
	.seh_stackalloc	16
	.seh_endprologue
	movq	%rcx, 16(%rbp)
	movq	16(%rbp), %rax
	addq	$8, %rax
	movq	%rax, -8(%rbp)
	movq	-8(%rbp), %rax
	movq	(%rax), %rax
	movq	%rax, -16(%rbp)
	nop
	movq	-16(%rbp), %rax
	addq	$16, %rsp
	popq	%rbp
	ret
	.seh_endproc
	.section	.text$_ZNKSt6vectorIySaIyEE5beginEv,"x"
	.linkonce discard
	.align 2
	.globl	_ZNKSt6vectorIySaIyEE5beginEv
	.def	_ZNKSt6vectorIySaIyEE5beginEv;	.scl	2;	.type	32;	.endef
	.seh_proc	_ZNKSt6vectorIySaIyEE5beginEv
_ZNKSt6vectorIySaIyEE5beginEv:
.LFB11790:
	pushq	%rbp
	.seh_pushreg	%rbp
	movq	%rsp, %rbp
	.seh_setframe	%rbp, 0
	subq	$16, %rsp
	.seh_stackalloc	16
	.seh_endprologue
	movq	%rcx, 16(%rbp)
	movq	16(%rbp), %rax
	movq	%rax, -8(%rbp)
	movq	-8(%rbp), %rax
	movq	(%rax), %rax
	movq	%rax, -16(%rbp)
	nop
	movq	-16(%rbp), %rax
	addq	$16, %rsp
	popq	%rbp
	ret
	.seh_endproc
	.section	.text$_ZNKSt6vectorIySaIyEE3endEv,"x"
	.linkonce discard
	.align 2
	.globl	_ZNKSt6vectorIySaIyEE3endEv
	.def	_ZNKSt6vectorIySaIyEE3endEv;	.scl	2;	.type	32;	.endef
	.seh_proc	_ZNKSt6vectorIySaIyEE3endEv
_ZNKSt6vectorIySaIyEE3endEv:
.LFB11791:
	pushq	%rbp
	.seh_pushreg	%rbp
	movq	%rsp, %rbp
	.seh_setframe	%rbp, 0
	subq	$16, %rsp
	.seh_stackalloc	16
	.seh_endprologue
	movq	%rcx, 16(%rbp)
	movq	16(%rbp), %rax
	addq	$8, %rax
	movq	%rax, -8(%rbp)
	movq	-8(%rbp), %rax
	movq	(%rax), %rax
	movq	%rax, -16(%rbp)
	nop
	movq	-16(%rbp), %rax
	addq	$16, %rsp
	popq	%rbp
	ret
	.seh_endproc
	.section .rdata,"dr"
.LC40:
	.ascii "__n < this->size()\0"
	.align 8
.LC41:
	.ascii "std::vector<_Tp, _Alloc>::const_reference std::vector<_Tp, _Alloc>::operator[](size_type) const [with _Tp = long long unsigned int; _Alloc = std::allocator<long long unsigned int>; const_reference = const long long unsigned int&; size_type = long long unsigned int]\0"
	.align 8
.LC42:
	.ascii "C:/msys64/ucrt64/include/c++/15.2.0/bits/stl_vector.h\0"
	.section	.text$_ZNKSt6vectorIySaIyEEixEy,"x"
	.linkonce discard
	.align 2
	.globl	_ZNKSt6vectorIySaIyEEixEy
	.def	_ZNKSt6vectorIySaIyEEixEy;	.scl	2;	.type	32;	.endef
	.seh_proc	_ZNKSt6vectorIySaIyEEixEy
_ZNKSt6vectorIySaIyEEixEy:
.LFB11795:
	pushq	%rbp
	.seh_pushreg	%rbp
	movq	%rsp, %rbp
	.seh_setframe	%rbp, 0
	subq	$32, %rsp
	.seh_stackalloc	32
	.seh_endprologue
	movq	%rcx, 16(%rbp)
	movq	%rdx, 24(%rbp)
	movq	16(%rbp), %rax
	movq	%rax, %rcx
	call	_ZNKSt6vectorIySaIyEE4sizeEv
	cmpq	%rax, 24(%rbp)
	setnb	%al
	movzbl	%al, %eax
	testl	%eax, %eax
	setne	%al
	testb	%al, %al
	je	.L678
	leaq	.LC40(%rip), %rcx
	leaq	.LC41(%rip), %rdx
	leaq	.LC42(%rip), %rax
	movq	%rcx, %r9
	movq	%rdx, %r8
	movl	$1282, %edx
	movq	%rax, %rcx
	call	_ZSt21__glibcxx_assert_failPKciS0_S0_
.L678:
	movq	16(%rbp), %rax
	movq	(%rax), %rax
	movq	24(%rbp), %rdx
	salq	$3, %rdx
	addq	%rdx, %rax
	addq	$32, %rsp
	popq	%rbp
	ret
	.seh_endproc
	.section .rdata,"dr"
	.align 8
.LC43:
	.ascii "std::vector<_Tp, _Alloc>::const_reference std::vector<_Tp, _Alloc>::operator[](size_type) const [with _Tp = std::vector<std::vector<float> >; _Alloc = std::allocator<std::vector<std::vector<float> > >; const_reference = const std::vector<std::vector<float> >&; size_type = long long unsigned int]\0"
	.section	.text$_ZNKSt6vectorIS_IS_IfSaIfEESaIS1_EESaIS3_EEixEy,"x"
	.linkonce discard
	.align 2
	.globl	_ZNKSt6vectorIS_IS_IfSaIfEESaIS1_EESaIS3_EEixEy
	.def	_ZNKSt6vectorIS_IS_IfSaIfEESaIS1_EESaIS3_EEixEy;	.scl	2;	.type	32;	.endef
	.seh_proc	_ZNKSt6vectorIS_IS_IfSaIfEESaIS1_EESaIS3_EEixEy
_ZNKSt6vectorIS_IS_IfSaIfEESaIS1_EESaIS3_EEixEy:
.LFB11796:
	pushq	%rbp
	.seh_pushreg	%rbp
	movq	%rsp, %rbp
	.seh_setframe	%rbp, 0
	subq	$32, %rsp
	.seh_stackalloc	32
	.seh_endprologue
	movq	%rcx, 16(%rbp)
	movq	%rdx, 24(%rbp)
	movq	16(%rbp), %rax
	movq	%rax, %rcx
	call	_ZNKSt6vectorIS_IS_IfSaIfEESaIS1_EESaIS3_EE4sizeEv
	cmpq	%rax, 24(%rbp)
	setnb	%al
	movzbl	%al, %eax
	testl	%eax, %eax
	setne	%al
	testb	%al, %al
	je	.L681
	leaq	.LC40(%rip), %rcx
	leaq	.LC43(%rip), %rdx
	leaq	.LC42(%rip), %rax
	movq	%rcx, %r9
	movq	%rdx, %r8
	movl	$1282, %edx
	movq	%rax, %rcx
	call	_ZSt21__glibcxx_assert_failPKciS0_S0_
.L681:
	movq	16(%rbp), %rax
	movq	(%rax), %rcx
	movq	24(%rbp), %rdx
	movq	%rdx, %rax
	addq	%rax, %rax
	addq	%rdx, %rax
	salq	$3, %rax
	addq	%rcx, %rax
	addq	$32, %rsp
	popq	%rbp
	ret
	.seh_endproc
	.section .rdata,"dr"
	.align 8
.LC44:
	.ascii "std::vector<_Tp, _Alloc>::const_reference std::vector<_Tp, _Alloc>::operator[](size_type) const [with _Tp = std::vector<float>; _Alloc = std::allocator<std::vector<float> >; const_reference = const std::vector<float>&; size_type = long long unsigned int]\0"
	.section	.text$_ZNKSt6vectorIS_IfSaIfEESaIS1_EEixEy,"x"
	.linkonce discard
	.align 2
	.globl	_ZNKSt6vectorIS_IfSaIfEESaIS1_EEixEy
	.def	_ZNKSt6vectorIS_IfSaIfEESaIS1_EEixEy;	.scl	2;	.type	32;	.endef
	.seh_proc	_ZNKSt6vectorIS_IfSaIfEESaIS1_EEixEy
_ZNKSt6vectorIS_IfSaIfEESaIS1_EEixEy:
.LFB11797:
	pushq	%rbp
	.seh_pushreg	%rbp
	movq	%rsp, %rbp
	.seh_setframe	%rbp, 0
	subq	$32, %rsp
	.seh_stackalloc	32
	.seh_endprologue
	movq	%rcx, 16(%rbp)
	movq	%rdx, 24(%rbp)
	movq	16(%rbp), %rax
	movq	%rax, %rcx
	call	_ZNKSt6vectorIS_IfSaIfEESaIS1_EE4sizeEv
	cmpq	%rax, 24(%rbp)
	setnb	%al
	movzbl	%al, %eax
	testl	%eax, %eax
	setne	%al
	testb	%al, %al
	je	.L684
	leaq	.LC40(%rip), %rcx
	leaq	.LC44(%rip), %rdx
	leaq	.LC42(%rip), %rax
	movq	%rcx, %r9
	movq	%rdx, %r8
	movl	$1282, %edx
	movq	%rax, %rcx
	call	_ZSt21__glibcxx_assert_failPKciS0_S0_
.L684:
	movq	16(%rbp), %rax
	movq	(%rax), %rcx
	movq	24(%rbp), %rdx
	movq	%rdx, %rax
	addq	%rax, %rax
	addq	%rdx, %rax
	salq	$3, %rax
	addq	%rcx, %rax
	addq	$32, %rsp
	popq	%rbp
	ret
	.seh_endproc
	.section .rdata,"dr"
	.align 8
.LC45:
	.ascii "std::vector<_Tp, _Alloc>::const_reference std::vector<_Tp, _Alloc>::operator[](size_type) const [with _Tp = float; _Alloc = std::allocator<float>; const_reference = const float&; size_type = long long unsigned int]\0"
	.section	.text$_ZNKSt6vectorIfSaIfEEixEy,"x"
	.linkonce discard
	.align 2
	.globl	_ZNKSt6vectorIfSaIfEEixEy
	.def	_ZNKSt6vectorIfSaIfEEixEy;	.scl	2;	.type	32;	.endef
	.seh_proc	_ZNKSt6vectorIfSaIfEEixEy
_ZNKSt6vectorIfSaIfEEixEy:
.LFB11798:
	pushq	%rbp
	.seh_pushreg	%rbp
	movq	%rsp, %rbp
	.seh_setframe	%rbp, 0
	subq	$32, %rsp
