	.file	"tmp_load.cpp"
	.text
	.section	.text$strtof,"x"
	.linkonce discard
	.globl	strtof
	.def	strtof;	.scl	2;	.type	32;	.endef
	.seh_proc	strtof
strtof:
.LFB13:
	pushq	%rbp
	.seh_pushreg	%rbp
	movq	%rsp, %rbp
	.seh_setframe	%rbp, 0
	subq	$32, %rsp
	.seh_stackalloc	32
	.seh_endprologue
	movq	%rcx, 16(%rbp)
	movq	%rdx, 24(%rbp)
	movq	24(%rbp), %rdx
	movq	16(%rbp), %rax
	movq	%rax, %rcx
	call	__mingw_strtof
	addq	$32, %rsp
	popq	%rbp
	ret
	.seh_endproc
	.section	.text$_ZSt17__size_to_integery,"x"
	.linkonce discard
	.globl	_ZSt17__size_to_integery
	.def	_ZSt17__size_to_integery;	.scl	2;	.type	32;	.endef
	.seh_proc	_ZSt17__size_to_integery
_ZSt17__size_to_integery:
.LFB363:
	pushq	%rbp
	.seh_pushreg	%rbp
	movq	%rsp, %rbp
	.seh_setframe	%rbp, 0
	.seh_endprologue
	movq	%rcx, 16(%rbp)
	movq	16(%rbp), %rax
	popq	%rbp
	ret
	.seh_endproc
	.section	.text$_ZnwyPv,"x"
	.linkonce discard
	.globl	_ZnwyPv
	.def	_ZnwyPv;	.scl	2;	.type	32;	.endef
	.seh_proc	_ZnwyPv
_ZnwyPv:
.LFB474:
	pushq	%rbp
	.seh_pushreg	%rbp
	movq	%rsp, %rbp
	.seh_setframe	%rbp, 0
	.seh_endprologue
	movq	%rcx, 16(%rbp)
	movq	%rdx, 24(%rbp)
	movq	24(%rbp), %rax
	popq	%rbp
	ret
	.seh_endproc
	.section	.text$_ZdlPvS_,"x"
	.linkonce discard
	.globl	_ZdlPvS_
	.def	_ZdlPvS_;	.scl	2;	.type	32;	.endef
	.seh_proc	_ZdlPvS_
_ZdlPvS_:
.LFB476:
	pushq	%rbp
	.seh_pushreg	%rbp
	movq	%rsp, %rbp
	.seh_setframe	%rbp, 0
	.seh_endprologue
	movq	%rcx, 16(%rbp)
	movq	%rdx, 24(%rbp)
	nop
	popq	%rbp
	ret
	.seh_endproc
	.section	.text$_ZNSt11char_traitsIcE6assignERcRKc,"x"
	.linkonce discard
	.globl	_ZNSt11char_traitsIcE6assignERcRKc
	.def	_ZNSt11char_traitsIcE6assignERcRKc;	.scl	2;	.type	32;	.endef
	.seh_proc	_ZNSt11char_traitsIcE6assignERcRKc
_ZNSt11char_traitsIcE6assignERcRKc:
.LFB818:
	pushq	%rbp
	.seh_pushreg	%rbp
	movq	%rsp, %rbp
	.seh_setframe	%rbp, 0
	.seh_endprologue
	movq	%rcx, 16(%rbp)
	movq	%rdx, 24(%rbp)
	movq	24(%rbp), %rax
	movzbl	(%rax), %edx
	movq	16(%rbp), %rax
	movb	%dl, (%rax)
	nop
	popq	%rbp
	ret
	.seh_endproc
	.section	.text$_ZNSt11char_traitsIcE2ltERKcS2_,"x"
	.linkonce discard
	.globl	_ZNSt11char_traitsIcE2ltERKcS2_
	.def	_ZNSt11char_traitsIcE2ltERKcS2_;	.scl	2;	.type	32;	.endef
	.seh_proc	_ZNSt11char_traitsIcE2ltERKcS2_
_ZNSt11char_traitsIcE2ltERKcS2_:
.LFB820:
	pushq	%rbp
	.seh_pushreg	%rbp
	movq	%rsp, %rbp
	.seh_setframe	%rbp, 0
	.seh_endprologue
	movq	%rcx, 16(%rbp)
	movq	%rdx, 24(%rbp)
	movq	16(%rbp), %rax
	movzbl	(%rax), %eax
	movl	%eax, %edx
	movq	24(%rbp), %rax
	movzbl	(%rax), %eax
	cmpb	%al, %dl
	setb	%al
	popq	%rbp
	ret
	.seh_endproc
	.section	.text$_ZNSt11char_traitsIcE7compareEPKcS2_y,"x"
	.linkonce discard
	.globl	_ZNSt11char_traitsIcE7compareEPKcS2_y
	.def	_ZNSt11char_traitsIcE7compareEPKcS2_y;	.scl	2;	.type	32;	.endef
	.seh_proc	_ZNSt11char_traitsIcE7compareEPKcS2_y
_ZNSt11char_traitsIcE7compareEPKcS2_y:
.LFB821:
	pushq	%rbp
	.seh_pushreg	%rbp
	movq	%rsp, %rbp
	.seh_setframe	%rbp, 0
	subq	$48, %rsp
	.seh_stackalloc	48
	.seh_endprologue
	movq	%rcx, 16(%rbp)
	movq	%rdx, 24(%rbp)
	movq	%r8, 32(%rbp)
	cmpq	$0, 32(%rbp)
	jne	.L12
	movl	$0, %eax
	jmp	.L13
.L12:
	movl	$0, %eax
	testb	%al, %al
	je	.L15
	movq	$0, -8(%rbp)
	jmp	.L16
.L19:
	movq	24(%rbp), %rdx
	movq	-8(%rbp), %rax
	addq	%rax, %rdx
	movq	16(%rbp), %rcx
	movq	-8(%rbp), %rax
	addq	%rcx, %rax
	movq	%rax, %rcx
	call	_ZNSt11char_traitsIcE2ltERKcS2_
	testb	%al, %al
	je	.L17
	movl	$-1, %eax
	jmp	.L13
.L17:
	movq	16(%rbp), %rdx
	movq	-8(%rbp), %rax
	addq	%rax, %rdx
	movq	24(%rbp), %rcx
	movq	-8(%rbp), %rax
	addq	%rcx, %rax
	movq	%rax, %rcx
	call	_ZNSt11char_traitsIcE2ltERKcS2_
	testb	%al, %al
	je	.L18
	movl	$1, %eax
	jmp	.L13
.L18:
	addq	$1, -8(%rbp)
.L16:
	movq	-8(%rbp), %rax
	cmpq	32(%rbp), %rax
	jb	.L19
	movl	$0, %eax
	jmp	.L13
.L15:
	movq	32(%rbp), %rcx
	movq	24(%rbp), %rdx
	movq	16(%rbp), %rax
	movq	%rcx, %r8
	movq	%rax, %rcx
	call	memcmp
	nop
.L13:
	addq	$48, %rsp
	popq	%rbp
	ret
	.seh_endproc
	.section	.text$_ZNSt11char_traitsIcE6lengthEPKc,"x"
	.linkonce discard
	.globl	_ZNSt11char_traitsIcE6lengthEPKc
	.def	_ZNSt11char_traitsIcE6lengthEPKc;	.scl	2;	.type	32;	.endef
	.seh_proc	_ZNSt11char_traitsIcE6lengthEPKc
_ZNSt11char_traitsIcE6lengthEPKc:
.LFB822:
	pushq	%rbp
	.seh_pushreg	%rbp
	movq	%rsp, %rbp
	.seh_setframe	%rbp, 0
	subq	$32, %rsp
	.seh_stackalloc	32
	.seh_endprologue
	movq	%rcx, 16(%rbp)
	movl	$0, %eax
	testb	%al, %al
	je	.L22
	movq	16(%rbp), %rax
	movq	%rax, %rcx
	call	_ZN9__gnu_cxx11char_traitsIcE6lengthEPKc
	jmp	.L23
.L22:
	movq	16(%rbp), %rax
	movq	%rax, %rcx
	call	strlen
	nop
.L23:
	addq	$32, %rsp
	popq	%rbp
	ret
	.seh_endproc
	.section	.text$_ZNSt11char_traitsIcE4findEPKcyRS1_,"x"
	.linkonce discard
	.globl	_ZNSt11char_traitsIcE4findEPKcyRS1_
	.def	_ZNSt11char_traitsIcE4findEPKcyRS1_;	.scl	2;	.type	32;	.endef
	.seh_proc	_ZNSt11char_traitsIcE4findEPKcyRS1_
_ZNSt11char_traitsIcE4findEPKcyRS1_:
.LFB823:
	pushq	%rbp
	.seh_pushreg	%rbp
	movq	%rsp, %rbp
	.seh_setframe	%rbp, 0
	subq	$32, %rsp
	.seh_stackalloc	32
	.seh_endprologue
	movq	%rcx, 16(%rbp)
	movq	%rdx, 24(%rbp)
	movq	%r8, 32(%rbp)
	cmpq	$0, 24(%rbp)
	jne	.L25
	movl	$0, %eax
	jmp	.L26
.L25:
	movl	$0, %eax
	testb	%al, %al
	je	.L28
	movq	32(%rbp), %rcx
	movq	24(%rbp), %rdx
	movq	16(%rbp), %rax
	movq	%rcx, %r8
	movq	%rax, %rcx
	call	_ZN9__gnu_cxx11char_traitsIcE4findEPKcyRS2_
	jmp	.L26
.L28:
	movq	32(%rbp), %rax
	movzbl	(%rax), %eax
	movsbl	%al, %edx
	movq	24(%rbp), %rcx
	movq	16(%rbp), %rax
	movq	%rcx, %r8
	movq	%rax, %rcx
	call	memchr
	nop
.L26:
	addq	$32, %rsp
	popq	%rbp
	ret
	.seh_endproc
	.section	.text$_ZNSt11char_traitsIcE4copyEPcPKcy,"x"
	.linkonce discard
	.globl	_ZNSt11char_traitsIcE4copyEPcPKcy
	.def	_ZNSt11char_traitsIcE4copyEPcPKcy;	.scl	2;	.type	32;	.endef
	.seh_proc	_ZNSt11char_traitsIcE4copyEPcPKcy
_ZNSt11char_traitsIcE4copyEPcPKcy:
.LFB825:
	pushq	%rbp
	.seh_pushreg	%rbp
	movq	%rsp, %rbp
	.seh_setframe	%rbp, 0
	subq	$32, %rsp
	.seh_stackalloc	32
	.seh_endprologue
	movq	%rcx, 16(%rbp)
	movq	%rdx, 24(%rbp)
	movq	%r8, 32(%rbp)
	cmpq	$0, 32(%rbp)
	jne	.L30
	movq	16(%rbp), %rax
	jmp	.L31
.L30:
	movq	16(%rbp), %rdx
	movq	24(%rbp), %rax
	movq	%rdx, %rcx
	movq	%rax, %rdx
	movq	32(%rbp), %rax
	movq	%rax, %r8
	call	memcpy
	nop
.L31:
	addq	$32, %rsp
	popq	%rbp
	ret
	.seh_endproc
	.section .rdata,"dr"
.LC0:
	.ascii "stof\0"
	.section	.text$_ZNSt7__cxx114stofERKNS_12basic_stringIcSt11char_traitsIcESaIcEEEPy,"x"
	.linkonce discard
	.globl	_ZNSt7__cxx114stofERKNS_12basic_stringIcSt11char_traitsIcESaIcEEEPy
	.def	_ZNSt7__cxx114stofERKNS_12basic_stringIcSt11char_traitsIcESaIcEEEPy;	.scl	2;	.type	32;	.endef
	.seh_proc	_ZNSt7__cxx114stofERKNS_12basic_stringIcSt11char_traitsIcESaIcEEEPy
_ZNSt7__cxx114stofERKNS_12basic_stringIcSt11char_traitsIcESaIcEEEPy:
.LFB1508:
	pushq	%rbp
	.seh_pushreg	%rbp
	movq	%rsp, %rbp
	.seh_setframe	%rbp, 0
	subq	$32, %rsp
	.seh_stackalloc	32
	.seh_endprologue
	movq	%rcx, 16(%rbp)
	movq	%rdx, 24(%rbp)
	movq	16(%rbp), %rax
	movq	%rax, %rcx
	call	_ZNKSt7__cxx1112basic_stringIcSt11char_traitsIcESaIcEE5c_strEv
	movq	%rax, %rdx
	movq	24(%rbp), %rcx
	leaq	.LC0(%rip), %rax
	leaq	strtof(%rip), %r8
	movq	%r8, %r10
	movq	%rcx, %r9
	movq	%rdx, %r8
	movq	%rax, %rdx
	movq	%r10, %rcx
	call	_ZN9__gnu_cxx6__stoaIffcJEEET0_PFT_PKT1_PPS3_DpT2_EPKcS5_PyS9_
	addq	$32, %rsp
	popq	%rbp
	ret
	.seh_endproc
	.section	.text$_ZSt3minIyERKT_S2_S2_,"x"
	.linkonce discard
	.globl	_ZSt3minIyERKT_S2_S2_
	.def	_ZSt3minIyERKT_S2_S2_;	.scl	2;	.type	32;	.endef
	.seh_proc	_ZSt3minIyERKT_S2_S2_
_ZSt3minIyERKT_S2_S2_:
.LFB2100:
	pushq	%rbp
	.seh_pushreg	%rbp
	movq	%rsp, %rbp
	.seh_setframe	%rbp, 0
	.seh_endprologue
	movq	%rcx, 16(%rbp)
	movq	%rdx, 24(%rbp)
	movq	24(%rbp), %rax
	movq	(%rax), %rdx
	movq	16(%rbp), %rax
	movq	(%rax), %rax
	cmpq	%rax, %rdx
	jnb	.L35
	movq	24(%rbp), %rax
	jmp	.L36
.L35:
	movq	16(%rbp), %rax
.L36:
	popq	%rbp
	ret
	.seh_endproc
	.section	.text$_ZStanSt13_Ios_FmtflagsS_,"x"
	.linkonce discard
	.globl	_ZStanSt13_Ios_FmtflagsS_
	.def	_ZStanSt13_Ios_FmtflagsS_;	.scl	2;	.type	32;	.endef
	.seh_proc	_ZStanSt13_Ios_FmtflagsS_
_ZStanSt13_Ios_FmtflagsS_:
.LFB3179:
	pushq	%rbp
	.seh_pushreg	%rbp
	movq	%rsp, %rbp
	.seh_setframe	%rbp, 0
	.seh_endprologue
	movl	%ecx, 16(%rbp)
	movl	%edx, 24(%rbp)
	movl	16(%rbp), %eax
	andl	24(%rbp), %eax
	popq	%rbp
	ret
	.seh_endproc
	.section	.text$_ZStorSt13_Ios_FmtflagsS_,"x"
	.linkonce discard
	.globl	_ZStorSt13_Ios_FmtflagsS_
	.def	_ZStorSt13_Ios_FmtflagsS_;	.scl	2;	.type	32;	.endef
	.seh_proc	_ZStorSt13_Ios_FmtflagsS_
_ZStorSt13_Ios_FmtflagsS_:
.LFB3180:
	pushq	%rbp
	.seh_pushreg	%rbp
	movq	%rsp, %rbp
	.seh_setframe	%rbp, 0
	.seh_endprologue
	movl	%ecx, 16(%rbp)
	movl	%edx, 24(%rbp)
	movl	16(%rbp), %eax
	orl	24(%rbp), %eax
	popq	%rbp
	ret
	.seh_endproc
	.section	.text$_ZStcoSt13_Ios_Fmtflags,"x"
	.linkonce discard
	.globl	_ZStcoSt13_Ios_Fmtflags
	.def	_ZStcoSt13_Ios_Fmtflags;	.scl	2;	.type	32;	.endef
	.seh_proc	_ZStcoSt13_Ios_Fmtflags
_ZStcoSt13_Ios_Fmtflags:
.LFB3182:
	pushq	%rbp
	.seh_pushreg	%rbp
	movq	%rsp, %rbp
	.seh_setframe	%rbp, 0
	.seh_endprologue
	movl	%ecx, 16(%rbp)
	movl	16(%rbp), %eax
	notl	%eax
	popq	%rbp
	ret
	.seh_endproc
	.section	.text$_ZStoRRSt13_Ios_FmtflagsS_,"x"
	.linkonce discard
	.globl	_ZStoRRSt13_Ios_FmtflagsS_
	.def	_ZStoRRSt13_Ios_FmtflagsS_;	.scl	2;	.type	32;	.endef
	.seh_proc	_ZStoRRSt13_Ios_FmtflagsS_
_ZStoRRSt13_Ios_FmtflagsS_:
.LFB3183:
	pushq	%rbp
	.seh_pushreg	%rbp
	movq	%rsp, %rbp
	.seh_setframe	%rbp, 0
	subq	$32, %rsp
	.seh_stackalloc	32
	.seh_endprologue
	movq	%rcx, 16(%rbp)
	movl	%edx, 24(%rbp)
	movq	16(%rbp), %rax
	movl	(%rax), %eax
	movl	24(%rbp), %edx
	movl	%eax, %ecx
	call	_ZStorSt13_Ios_FmtflagsS_
	movq	16(%rbp), %rdx
	movl	%eax, (%rdx)
	movq	16(%rbp), %rax
	addq	$32, %rsp
	popq	%rbp
	ret
	.seh_endproc
	.section	.text$_ZStaNRSt13_Ios_FmtflagsS_,"x"
	.linkonce discard
	.globl	_ZStaNRSt13_Ios_FmtflagsS_
	.def	_ZStaNRSt13_Ios_FmtflagsS_;	.scl	2;	.type	32;	.endef
	.seh_proc	_ZStaNRSt13_Ios_FmtflagsS_
_ZStaNRSt13_Ios_FmtflagsS_:
.LFB3184:
	pushq	%rbp
	.seh_pushreg	%rbp
	movq	%rsp, %rbp
	.seh_setframe	%rbp, 0
	subq	$32, %rsp
	.seh_stackalloc	32
	.seh_endprologue
	movq	%rcx, 16(%rbp)
	movl	%edx, 24(%rbp)
	movq	16(%rbp), %rax
	movl	(%rax), %eax
	movl	24(%rbp), %edx
	movl	%eax, %ecx
	call	_ZStanSt13_Ios_FmtflagsS_
	movq	16(%rbp), %rdx
	movl	%eax, (%rdx)
	movq	16(%rbp), %rax
	addq	$32, %rsp
	popq	%rbp
	ret
	.seh_endproc
	.section	.text$_ZNSt8ios_base4setfESt13_Ios_FmtflagsS0_,"x"
	.linkonce discard
	.align 2
	.globl	_ZNSt8ios_base4setfESt13_Ios_FmtflagsS0_
	.def	_ZNSt8ios_base4setfESt13_Ios_FmtflagsS0_;	.scl	2;	.type	32;	.endef
	.seh_proc	_ZNSt8ios_base4setfESt13_Ios_FmtflagsS0_
_ZNSt8ios_base4setfESt13_Ios_FmtflagsS0_:
.LFB3213:
	pushq	%rbp
	.seh_pushreg	%rbp
	movq	%rsp, %rbp
	.seh_setframe	%rbp, 0
	subq	$48, %rsp
	.seh_stackalloc	48
	.seh_endprologue
	movq	%rcx, 16(%rbp)
	movl	%edx, 24(%rbp)
	movl	%r8d, 32(%rbp)
	movq	16(%rbp), %rax
	movl	24(%rax), %eax
	movl	%eax, -4(%rbp)
	movl	32(%rbp), %eax
	movl	%eax, %ecx
	call	_ZStcoSt13_Ios_Fmtflags
	movl	%eax, %edx
	movq	16(%rbp), %rax
	addq	$24, %rax
	movq	%rax, %rcx
	call	_ZStaNRSt13_Ios_FmtflagsS_
	movl	32(%rbp), %edx
	movl	24(%rbp), %eax
	movl	%eax, %ecx
	call	_ZStanSt13_Ios_FmtflagsS_
	movl	%eax, %edx
	movq	16(%rbp), %rax
	addq	$24, %rax
	movq	%rax, %rcx
	call	_ZStoRRSt13_Ios_FmtflagsS_
	movl	-4(%rbp), %eax
	addq	$48, %rsp
	popq	%rbp
	ret
	.seh_endproc
	.section	.text$_ZSt5fixedRSt8ios_base,"x"
	.linkonce discard
	.globl	_ZSt5fixedRSt8ios_base
	.def	_ZSt5fixedRSt8ios_base;	.scl	2;	.type	32;	.endef
	.seh_proc	_ZSt5fixedRSt8ios_base
_ZSt5fixedRSt8ios_base:
.LFB3243:
	pushq	%rbp
	.seh_pushreg	%rbp
	movq	%rsp, %rbp
	.seh_setframe	%rbp, 0
	subq	$32, %rsp
	.seh_stackalloc	32
	.seh_endprologue
	movq	%rcx, 16(%rbp)
	movq	16(%rbp), %rax
	movl	$260, %r8d
	movl	$4, %edx
	movq	%rax, %rcx
	call	_ZNSt8ios_base4setfESt13_Ios_FmtflagsS0_
	movq	16(%rbp), %rax
	addq	$32, %rsp
	popq	%rbp
	ret
	.seh_endproc
	.section	.text$_ZSt3loge,"x"
	.linkonce discard
	.globl	_ZSt3loge
	.def	_ZSt3loge;	.scl	2;	.type	32;	.endef
	.seh_proc	_ZSt3loge
_ZSt3loge:
.LFB4725:
	pushq	%rbp
	.seh_pushreg	%rbp
	pushq	%rbx
	.seh_pushreg	%rbx
	subq	$88, %rsp
	.seh_stackalloc	88
	leaq	80(%rsp), %rbp
	.seh_setframe	%rbp, 80
	.seh_endprologue
	movq	%rcx, 32(%rbp)
	movq	%rdx, %rbx
	fldt	(%rbx)
	fstpt	-16(%rbp)
	leaq	-32(%rbp), %rax
	fldt	-16(%rbp)
	fstpt	-48(%rbp)
	leaq	-48(%rbp), %rdx
	movq	%rax, %rcx
	call	logl
	fldt	-32(%rbp)
	movq	32(%rbp), %rax
	fstpt	(%rax)
	movq	32(%rbp), %rax
	addq	$88, %rsp
	popq	%rbx
	popq	%rbp
	ret
	.seh_endproc
	.section	.text$_ZSt9nextafterff,"x"
	.linkonce discard
	.globl	_ZSt9nextafterff
	.def	_ZSt9nextafterff;	.scl	2;	.type	32;	.endef
	.seh_proc	_ZSt9nextafterff
_ZSt9nextafterff:
.LFB4866:
	pushq	%rbp
	.seh_pushreg	%rbp
	movq	%rsp, %rbp
	.seh_setframe	%rbp, 0
	subq	$32, %rsp
	.seh_stackalloc	32
	.seh_endprologue
	movss	%xmm0, 16(%rbp)
	movss	%xmm1, 24(%rbp)
	movss	24(%rbp), %xmm0
	movl	16(%rbp), %eax
	movaps	%xmm0, %xmm1
	movd	%eax, %xmm0
	call	nextafterf
	addq	$32, %rsp
	popq	%rbp
	ret
	.seh_endproc
	.section	.text$_ZSt12setprecisioni,"x"
	.linkonce discard
	.globl	_ZSt12setprecisioni
	.def	_ZSt12setprecisioni;	.scl	2;	.type	32;	.endef
	.seh_proc	_ZSt12setprecisioni
_ZSt12setprecisioni:
.LFB6155:
	pushq	%rbp
	.seh_pushreg	%rbp
	movq	%rsp, %rbp
	.seh_setframe	%rbp, 0
	.seh_endprologue
	movl	%ecx, 16(%rbp)
	movl	16(%rbp), %eax
	popq	%rbp
	ret
	.seh_endproc
	.section .rdata,"dr"
.LC2:
	.ascii "default\0"
	.section	.text$_ZNSt13random_deviceC1Ev,"x"
	.linkonce discard
	.align 2
	.globl	_ZNSt13random_deviceC1Ev
	.def	_ZNSt13random_deviceC1Ev;	.scl	2;	.type	32;	.endef
	.seh_proc	_ZNSt13random_deviceC1Ev
_ZNSt13random_deviceC1Ev:
.LFB8457:
	pushq	%rbp
	.seh_pushreg	%rbp
	pushq	%rbx
	.seh_pushreg	%rbx
	subq	$88, %rsp
	.seh_stackalloc	88
	leaq	80(%rsp), %rbp
	.seh_setframe	%rbp, 80
	.seh_endprologue
	movq	%rcx, 32(%rbp)
	leaq	-9(%rbp), %rax
	movq	%rax, -8(%rbp)
	nop
	nop
	leaq	-9(%rbp), %rcx
	leaq	.LC2(%rip), %rdx
	leaq	-48(%rbp), %rax
	movq	%rcx, %r8
	movq	%rax, %rcx
.LEHB0:
	call	_ZNSt7__cxx1112basic_stringIcSt11char_traitsIcESaIcEEC1IS3_EEPKcRKS3_
.LEHE0:
	leaq	-48(%rbp), %rdx
	movq	32(%rbp), %rax
	movq	%rax, %rcx
.LEHB1:
	call	_ZNSt13random_device7_M_initERKNSt7__cxx1112basic_stringIcSt11char_traitsIcESaIcEEE
.LEHE1:
	leaq	-48(%rbp), %rax
	movq	%rax, %rcx
	call	_ZNSt7__cxx1112basic_stringIcSt11char_traitsIcESaIcEED1Ev
	leaq	-9(%rbp), %rax
	movq	%rax, %rcx
	call	_ZNSt15__new_allocatorIcED2Ev
	nop
	jmp	.L62
.L61:
	movq	%rax, %rbx
	leaq	-48(%rbp), %rax
	movq	%rax, %rcx
	call	_ZNSt7__cxx1112basic_stringIcSt11char_traitsIcESaIcEED1Ev
	jmp	.L59
.L60:
	movq	%rax, %rbx
.L59:
	leaq	-9(%rbp), %rax
	movq	%rax, %rcx
	call	_ZNSt15__new_allocatorIcED2Ev
	nop
	movq	%rbx, %rax
	movq	%rax, %rcx
.LEHB2:
	call	_Unwind_Resume
	nop
.LEHE2:
.L62:
	addq	$88, %rsp
	popq	%rbx
	popq	%rbp
	ret
	.seh_handler	__gxx_personality_seh0, @unwind, @except
	.seh_handlerdata
.LLSDA8457:
	.byte	0xff
	.byte	0xff
	.byte	0x1
	.uleb128 .LLSDACSE8457-.LLSDACSB8457
.LLSDACSB8457:
	.uleb128 .LEHB0-.LFB8457
	.uleb128 .LEHE0-.LEHB0
	.uleb128 .L60-.LFB8457
	.uleb128 0
	.uleb128 .LEHB1-.LFB8457
	.uleb128 .LEHE1-.LEHB1
	.uleb128 .L61-.LFB8457
	.uleb128 0
	.uleb128 .LEHB2-.LFB8457
	.uleb128 .LEHE2-.LEHB2
	.uleb128 0
	.uleb128 0
.LLSDACSE8457:
	.section	.text$_ZNSt13random_deviceC1Ev,"x"
	.linkonce discard
	.seh_endproc
	.section	.text$_ZNSt13random_deviceD1Ev,"x"
	.linkonce discard
	.align 2
	.globl	_ZNSt13random_deviceD1Ev
	.def	_ZNSt13random_deviceD1Ev;	.scl	2;	.type	32;	.endef
	.seh_proc	_ZNSt13random_deviceD1Ev
_ZNSt13random_deviceD1Ev:
.LFB8463:
	pushq	%rbp
	.seh_pushreg	%rbp
	movq	%rsp, %rbp
	.seh_setframe	%rbp, 0
	subq	$32, %rsp
	.seh_stackalloc	32
	.seh_endprologue
	movq	%rcx, 16(%rbp)
	movq	16(%rbp), %rax
	movq	%rax, %rcx
	call	_ZNSt13random_device7_M_finiEv
	nop
	addq	$32, %rsp
	popq	%rbp
	ret
	.seh_handler	__gxx_personality_seh0, @unwind, @except
	.seh_handlerdata
.LLSDA8463:
	.byte	0xff
	.byte	0xff
	.byte	0x1
	.uleb128 .LLSDACSE8463-.LLSDACSB8463
.LLSDACSB8463:
.LLSDACSE8463:
	.section	.text$_ZNSt13random_deviceD1Ev,"x"
	.linkonce discard
	.seh_endproc
	.section	.text$_ZNSt13random_deviceclEv,"x"
	.linkonce discard
	.align 2
	.globl	_ZNSt13random_deviceclEv
	.def	_ZNSt13random_deviceclEv;	.scl	2;	.type	32;	.endef
	.seh_proc	_ZNSt13random_deviceclEv
_ZNSt13random_deviceclEv:
.LFB8467:
	pushq	%rbp
	.seh_pushreg	%rbp
	movq	%rsp, %rbp
	.seh_setframe	%rbp, 0
	subq	$32, %rsp
	.seh_stackalloc	32
	.seh_endprologue
	movq	%rcx, 16(%rbp)
	movq	16(%rbp), %rax
	movq	%rax, %rcx
	call	_ZNSt13random_device9_M_getvalEv
	addq	$32, %rsp
	popq	%rbp
	ret
	.seh_endproc
	.section	.text$_ZNSt12_Vector_baseIySaIyEE12_Vector_implD1Ev,"x"
	.linkonce discard
	.align 2
	.globl	_ZNSt12_Vector_baseIySaIyEE12_Vector_implD1Ev
	.def	_ZNSt12_Vector_baseIySaIyEE12_Vector_implD1Ev;	.scl	2;	.type	32;	.endef
	.seh_proc	_ZNSt12_Vector_baseIySaIyEE12_Vector_implD1Ev
_ZNSt12_Vector_baseIySaIyEE12_Vector_implD1Ev:
.LFB9588:
	pushq	%rbp
	.seh_pushreg	%rbp
	movq	%rsp, %rbp
	.seh_setframe	%rbp, 0
	subq	$48, %rsp
	.seh_stackalloc	48
	.seh_endprologue
	movq	%rcx, 16(%rbp)
	movq	16(%rbp), %rax
	movq	%rax, -8(%rbp)
	movq	-8(%rbp), %rax
	movq	%rax, %rcx
	call	_ZNSt15__new_allocatorIyED2Ev
	nop
	nop
	addq	$48, %rsp
	popq	%rbp
	ret
	.seh_endproc
	.section	.text$_ZN13NeuralNetworkD1Ev,"x"
	.linkonce discard
	.align 2
	.globl	_ZN13NeuralNetworkD1Ev
	.def	_ZN13NeuralNetworkD1Ev;	.scl	2;	.type	32;	.endef
	.seh_proc	_ZN13NeuralNetworkD1Ev
_ZN13NeuralNetworkD1Ev:
.LFB10601:
	pushq	%rbp
	.seh_pushreg	%rbp
	movq	%rsp, %rbp
	.seh_setframe	%rbp, 0
	subq	$32, %rsp
	.seh_stackalloc	32
	.seh_endprologue
	movq	%rcx, 16(%rbp)
	movq	16(%rbp), %rax
	addq	$56, %rax
	movq	%rax, %rcx
	call	_ZNSt6vectorIS_IfSaIfEESaIS1_EED1Ev
	movq	16(%rbp), %rax
	addq	$32, %rax
	movq	%rax, %rcx
	call	_ZNSt6vectorIS_IS_IfSaIfEESaIS1_EESaIS3_EED1Ev
	movq	16(%rbp), %rax
	movq	%rax, %rcx
	call	_ZNSt6vectorIySaIyEED1Ev
	nop
	addq	$32, %rsp
	popq	%rbp
	ret
	.seh_endproc
	.section	.text$_ZN13NeuralNetworkC1Ev,"x"
	.linkonce discard
	.align 2
	.globl	_ZN13NeuralNetworkC1Ev
	.def	_ZN13NeuralNetworkC1Ev;	.scl	2;	.type	32;	.endef
	.seh_proc	_ZN13NeuralNetworkC1Ev
_ZN13NeuralNetworkC1Ev:
.LFB10603:
	pushq	%rbp
	.seh_pushreg	%rbp
	pushq	%rbx
	.seh_pushreg	%rbx
	subq	$104, %rsp
	.seh_stackalloc	104
	leaq	96(%rsp), %rbp
	.seh_setframe	%rbp, 96
	.seh_endprologue
	movq	%rcx, 32(%rbp)
	leaq	C.2.0(%rip), %rax
	movl	$2, %edx
	leaq	-9(%rbp), %rcx
	movq	%rcx, -8(%rbp)
	nop
	nop
	movq	%rax, -64(%rbp)
	movq	%rdx, -56(%rbp)
	leaq	-9(%rbp), %rcx
	leaq	-64(%rbp), %rdx
	leaq	-48(%rbp), %rax
	movq	%rcx, %r8
	movq	%rax, %rcx
.LEHB3:
	call	_ZNSt6vectorIySaIyEEC1ESt16initializer_listIyERKS0_
.LEHE3:
	leaq	-48(%rbp), %rdx
	movq	32(%rbp), %rax
	movl	$1, %r8d
	movq	%rax, %rcx
.LEHB4:
	call	_ZN13NeuralNetworkC1ERKSt6vectorIySaIyEE10Activation
.LEHE4:
	leaq	-48(%rbp), %rax
	movq	%rax, %rcx
	call	_ZNSt6vectorIySaIyEED1Ev
	leaq	-9(%rbp), %rax
	movq	%rax, %rcx
	call	_ZNSt15__new_allocatorIyED2Ev
	nop
	jmp	.L73
.L72:
	movq	%rax, %rbx
	leaq	-48(%rbp), %rax
	movq	%rax, %rcx
	call	_ZNSt6vectorIySaIyEED1Ev
	jmp	.L70
.L71:
	movq	%rax, %rbx
.L70:
	leaq	-9(%rbp), %rax
	movq	%rax, %rcx
	call	_ZNSt15__new_allocatorIyED2Ev
	nop
	movq	%rbx, %rax
	movq	%rax, %rcx
.LEHB5:
	call	_Unwind_Resume
	nop
.LEHE5:
.L73:
	addq	$104, %rsp
	popq	%rbx
	popq	%rbp
	ret
	.seh_handler	__gxx_personality_seh0, @unwind, @except
	.seh_handlerdata
.LLSDA10603:
	.byte	0xff
	.byte	0xff
	.byte	0x1
	.uleb128 .LLSDACSE10603-.LLSDACSB10603
.LLSDACSB10603:
	.uleb128 .LEHB3-.LFB10603
	.uleb128 .LEHE3-.LEHB3
	.uleb128 .L71-.LFB10603
	.uleb128 0
	.uleb128 .LEHB4-.LFB10603
	.uleb128 .LEHE4-.LEHB4
	.uleb128 .L72-.LFB10603
	.uleb128 0
	.uleb128 .LEHB5-.LFB10603
	.uleb128 .LEHE5-.LEHB5
	.uleb128 0
	.uleb128 0
.LLSDACSE10603:
	.section	.text$_ZN13NeuralNetworkC1Ev,"x"
	.linkonce discard
	.seh_endproc
	.section	.text$_ZNSt12_Vector_baseISt6vectorIS0_IfSaIfEESaIS2_EESaIS4_EE12_Vector_implD1Ev,"x"
	.linkonce discard
	.align 2
	.globl	_ZNSt12_Vector_baseISt6vectorIS0_IfSaIfEESaIS2_EESaIS4_EE12_Vector_implD1Ev
	.def	_ZNSt12_Vector_baseISt6vectorIS0_IfSaIfEESaIS2_EESaIS4_EE12_Vector_implD1Ev;	.scl	2;	.type	32;	.endef
	.seh_proc	_ZNSt12_Vector_baseISt6vectorIS0_IfSaIfEESaIS2_EESaIS4_EE12_Vector_implD1Ev
_ZNSt12_Vector_baseISt6vectorIS0_IfSaIfEESaIS2_EESaIS4_EE12_Vector_implD1Ev:
.LFB10610:
	pushq	%rbp
	.seh_pushreg	%rbp
	movq	%rsp, %rbp
	.seh_setframe	%rbp, 0
	subq	$48, %rsp
	.seh_stackalloc	48
	.seh_endprologue
	movq	%rcx, 16(%rbp)
	movq	16(%rbp), %rax
	movq	%rax, -8(%rbp)
	movq	-8(%rbp), %rax
	movq	%rax, %rcx
	call	_ZNSt15__new_allocatorISt6vectorIS0_IfSaIfEESaIS2_EEED2Ev
	nop
	nop
	addq	$48, %rsp
	popq	%rbp
	ret
	.seh_endproc
	.section	.text$_ZNSt12_Vector_baseISt6vectorIS0_IfSaIfEESaIS2_EESaIS4_EEC2Ev,"x"
	.linkonce discard
	.align 2
	.globl	_ZNSt12_Vector_baseISt6vectorIS0_IfSaIfEESaIS2_EESaIS4_EEC2Ev
	.def	_ZNSt12_Vector_baseISt6vectorIS0_IfSaIfEESaIS2_EESaIS4_EEC2Ev;	.scl	2;	.type	32;	.endef
	.seh_proc	_ZNSt12_Vector_baseISt6vectorIS0_IfSaIfEESaIS2_EESaIS4_EEC2Ev
_ZNSt12_Vector_baseISt6vectorIS0_IfSaIfEESaIS2_EESaIS4_EEC2Ev:
.LFB10611:
	pushq	%rbp
	.seh_pushreg	%rbp
	movq	%rsp, %rbp
	.seh_setframe	%rbp, 0
	subq	$32, %rsp
	.seh_stackalloc	32
	.seh_endprologue
	movq	%rcx, 16(%rbp)
	movq	16(%rbp), %rax
	movq	%rax, %rcx
	call	_ZNSt12_Vector_baseISt6vectorIS0_IfSaIfEESaIS2_EESaIS4_EE12_Vector_implC1Ev
	nop
	addq	$32, %rsp
	popq	%rbp
	ret
	.seh_endproc
	.section	.text$_ZNSt6vectorIS_IS_IfSaIfEESaIS1_EESaIS3_EEC1Ev,"x"
	.linkonce discard
	.align 2
	.globl	_ZNSt6vectorIS_IS_IfSaIfEESaIS1_EESaIS3_EEC1Ev
	.def	_ZNSt6vectorIS_IS_IfSaIfEESaIS1_EESaIS3_EEC1Ev;	.scl	2;	.type	32;	.endef
	.seh_proc	_ZNSt6vectorIS_IS_IfSaIfEESaIS1_EESaIS3_EEC1Ev
_ZNSt6vectorIS_IS_IfSaIfEESaIS1_EESaIS3_EEC1Ev:
.LFB10614:
	pushq	%rbp
	.seh_pushreg	%rbp
	movq	%rsp, %rbp
	.seh_setframe	%rbp, 0
	subq	$32, %rsp
	.seh_stackalloc	32
	.seh_endprologue
	movq	%rcx, 16(%rbp)
	movq	16(%rbp), %rax
	movq	%rax, %rcx
	call	_ZNSt12_Vector_baseISt6vectorIS0_IfSaIfEESaIS2_EESaIS4_EEC2Ev
	nop
	addq	$32, %rsp
	popq	%rbp
	ret
	.seh_endproc
	.section	.text$_ZNSt12_Vector_baseISt6vectorIfSaIfEESaIS2_EE12_Vector_implD1Ev,"x"
	.linkonce discard
	.align 2
	.globl	_ZNSt12_Vector_baseISt6vectorIfSaIfEESaIS2_EE12_Vector_implD1Ev
	.def	_ZNSt12_Vector_baseISt6vectorIfSaIfEESaIS2_EE12_Vector_implD1Ev;	.scl	2;	.type	32;	.endef
	.seh_proc	_ZNSt12_Vector_baseISt6vectorIfSaIfEESaIS2_EE12_Vector_implD1Ev
_ZNSt12_Vector_baseISt6vectorIfSaIfEESaIS2_EE12_Vector_implD1Ev:
.LFB10620:
	pushq	%rbp
	.seh_pushreg	%rbp
	movq	%rsp, %rbp
	.seh_setframe	%rbp, 0
	subq	$48, %rsp
	.seh_stackalloc	48
	.seh_endprologue
	movq	%rcx, 16(%rbp)
	movq	16(%rbp), %rax
	movq	%rax, -8(%rbp)
	movq	-8(%rbp), %rax
	movq	%rax, %rcx
	call	_ZNSt15__new_allocatorISt6vectorIfSaIfEEED2Ev
	nop
	nop
	addq	$48, %rsp
	popq	%rbp
	ret
	.seh_endproc
	.section	.text$_ZNSt12_Vector_baseISt6vectorIfSaIfEESaIS2_EEC2Ev,"x"
	.linkonce discard
	.align 2
	.globl	_ZNSt12_Vector_baseISt6vectorIfSaIfEESaIS2_EEC2Ev
	.def	_ZNSt12_Vector_baseISt6vectorIfSaIfEESaIS2_EEC2Ev;	.scl	2;	.type	32;	.endef
	.seh_proc	_ZNSt12_Vector_baseISt6vectorIfSaIfEESaIS2_EEC2Ev
_ZNSt12_Vector_baseISt6vectorIfSaIfEESaIS2_EEC2Ev:
.LFB10621:
	pushq	%rbp
	.seh_pushreg	%rbp
	movq	%rsp, %rbp
	.seh_setframe	%rbp, 0
	subq	$32, %rsp
	.seh_stackalloc	32
	.seh_endprologue
	movq	%rcx, 16(%rbp)
	movq	16(%rbp), %rax
	movq	%rax, %rcx
	call	_ZNSt12_Vector_baseISt6vectorIfSaIfEESaIS2_EE12_Vector_implC1Ev
	nop
	addq	$32, %rsp
	popq	%rbp
	ret
	.seh_endproc
	.section	.text$_ZNSt6vectorIS_IfSaIfEESaIS1_EEC1Ev,"x"
	.linkonce discard
	.align 2
	.globl	_ZNSt6vectorIS_IfSaIfEESaIS1_EEC1Ev
	.def	_ZNSt6vectorIS_IfSaIfEESaIS1_EEC1Ev;	.scl	2;	.type	32;	.endef
	.seh_proc	_ZNSt6vectorIS_IfSaIfEESaIS1_EEC1Ev
_ZNSt6vectorIS_IfSaIfEESaIS1_EEC1Ev:
.LFB10624:
	pushq	%rbp
	.seh_pushreg	%rbp
	movq	%rsp, %rbp
	.seh_setframe	%rbp, 0
	subq	$32, %rsp
	.seh_stackalloc	32
	.seh_endprologue
	movq	%rcx, 16(%rbp)
	movq	16(%rbp), %rax
	movq	%rax, %rcx
	call	_ZNSt12_Vector_baseISt6vectorIfSaIfEESaIS2_EEC2Ev
	nop
	addq	$32, %rsp
	popq	%rbp
	ret
	.seh_endproc
	.section .rdata,"dr"
	.align 8
.LC3:
	.ascii "Network must have at least 2 layers (input and output)\0"
	.align 8
.LC4:
	.ascii "Layer sizes must be greater than zero\0"
	.section	.text$_ZN13NeuralNetworkC1ERKSt6vectorIySaIyEE10Activation,"x"
	.linkonce discard
	.align 2
	.globl	_ZN13NeuralNetworkC1ERKSt6vectorIySaIyEE10Activation
	.def	_ZN13NeuralNetworkC1ERKSt6vectorIySaIyEE10Activation;	.scl	2;	.type	32;	.endef
	.seh_proc	_ZN13NeuralNetworkC1ERKSt6vectorIySaIyEE10Activation
_ZN13NeuralNetworkC1ERKSt6vectorIySaIyEE10Activation:
.LFB10629:
	pushq	%rbp
	.seh_pushreg	%rbp
	pushq	%rsi
	.seh_pushreg	%rsi
	pushq	%rbx
	.seh_pushreg	%rbx
	subq	$2592, %rsp
	.seh_stackalloc	2592
	leaq	128(%rsp), %rbp
	.seh_setframe	%rbp, 128
	.seh_endprologue
	movq	%rcx, 2496(%rbp)
	movq	%rdx, 2504(%rbp)
	movl	%r8d, 2512(%rbp)
	movq	2496(%rbp), %rax
	movq	2504(%rbp), %rdx
	movq	%rax, %rcx
.LEHB6:
	call	_ZNSt6vectorIySaIyEEC1ERKS1_
.LEHE6:
	movq	2496(%rbp), %rax
	movl	2512(%rbp), %edx
	movl	%edx, 24(%rax)
	movq	2496(%rbp), %rax
	addq	$32, %rax
	movq	%rax, %rcx
	call	_ZNSt6vectorIS_IS_IfSaIfEESaIS1_EESaIS3_EEC1Ev
	movq	2496(%rbp), %rax
	addq	$56, %rax
	movq	%rax, %rcx
	call	_ZNSt6vectorIS_IfSaIfEESaIS1_EEC1Ev
	movq	2496(%rbp), %rax
	leaq	80(%rax), %rbx
	leaq	-80(%rbp), %rax
	movq	%rax, %rcx
.LEHB7:
	call	_ZNSt13random_deviceC1Ev
.LEHE7:
	leaq	-80(%rbp), %rax
	movq	%rax, %rcx
.LEHB8:
	call	_ZNSt13random_deviceclEv
	movl	%eax, %edx
	movq	%rbx, %rcx
	call	_ZNSt23mersenne_twister_engineIjLy32ELy624ELy397ELy31ELj2567483615ELy11ELj4294967295ELy7ELj2636928640ELy15ELj4022730752ELy18ELj1812433253EEC1Ej
.LEHE8:
	leaq	-80(%rbp), %rax
	movq	%rax, %rcx
	call	_ZNSt13random_deviceD1Ev
	movq	2496(%rbp), %rax
	movq	%rax, %rcx
	call	_ZNKSt6vectorIySaIyEE4sizeEv
	cmpq	$1, %rax
	setbe	%al
	testb	%al, %al
	je	.L81
	movl	$16, %ecx
	call	__cxa_allocate_exception
	movq	%rax, %rbx
	leaq	.LC3(%rip), %rax
	movq	%rax, %rdx
	movq	%rbx, %rcx
.LEHB9:
	call	_ZNSt16invalid_argumentC1EPKc
.LEHE9:
	movq	.refptr._ZNSt16invalid_argumentD1Ev(%rip), %rdx
	leaq	_ZTISt16invalid_argument(%rip), %rax
	movq	%rdx, %r8
	movq	%rax, %rdx
	movq	%rbx, %rcx
.LEHB10:
	call	__cxa_throw
.LEHE10:
.L81:
	movq	2496(%rbp), %rax
	movq	%rax, 2456(%rbp)
	movq	2456(%rbp), %rax
	movq	%rax, %rcx
	call	_ZNSt6vectorIySaIyEE5beginEv
	movq	%rax, -88(%rbp)
	movq	2456(%rbp), %rax
	movq	%rax, %rcx
	call	_ZNSt6vectorIySaIyEE3endEv
	movq	%rax, -96(%rbp)
	jmp	.L82
.L89:
	movq	-88(%rbp), %rax
	movq	(%rax), %rax
	movq	%rax, 2448(%rbp)
	cmpq	$0, 2448(%rbp)
	jne	.L84
	movl	$16, %ecx
	call	__cxa_allocate_exception
	movq	%rax, %rbx
	leaq	.LC4(%rip), %rax
	movq	%rax, %rdx
	movq	%rbx, %rcx
.LEHB11:
	call	_ZNSt16invalid_argumentC1EPKc
.LEHE11:
	movq	.refptr._ZNSt16invalid_argumentD1Ev(%rip), %rdx
	leaq	_ZTISt16invalid_argument(%rip), %rax
	movq	%rdx, %r8
	movq	%rax, %rdx
	movq	%rbx, %rcx
.LEHB12:
	call	__cxa_throw
.L84:
	movq	-88(%rbp), %rax
	addq	$8, %rax
	movq	%rax, -88(%rbp)
	nop
.L82:
	leaq	-88(%rbp), %rax
	movq	%rax, 2440(%rbp)
	movq	2440(%rbp), %rax
	movq	(%rax), %rdx
	leaq	-96(%rbp), %rax
	movq	%rax, 2432(%rbp)
	movq	2432(%rbp), %rax
	movq	(%rax), %rax
	cmpq	%rax, %rdx
	setne	%al
	testb	%al, %al
	jne	.L89
	movq	2496(%rbp), %rax
	movq	%rax, %rcx
	call	_ZN13NeuralNetwork11init_paramsEv
.LEHE12:
	jmp	.L98
.L94:
	movq	%rax, %rbx
	leaq	-80(%rbp), %rax
	movq	%rax, %rcx
	call	_ZNSt13random_deviceD1Ev
	jmp	.L91
.L96:
	movq	%rax, %rsi
	movq	%rbx, %rcx
	call	__cxa_free_exception
	movq	%rsi, %rbx
	jmp	.L91
.L97:
	movq	%rax, %rsi
	movq	%rbx, %rcx
	call	__cxa_free_exception
	movq	%rsi, %rbx
	jmp	.L91
.L95:
	movq	%rax, %rbx
.L91:
	movq	2496(%rbp), %rax
	addq	$56, %rax
	movq	%rax, %rcx
	call	_ZNSt6vectorIS_IfSaIfEESaIS1_EED1Ev
	movq	2496(%rbp), %rax
	addq	$32, %rax
	movq	%rax, %rcx
	call	_ZNSt6vectorIS_IS_IfSaIfEESaIS1_EESaIS3_EED1Ev
	movq	2496(%rbp), %rax
	movq	%rax, %rcx
	call	_ZNSt6vectorIySaIyEED1Ev
	movq	%rbx, %rax
	movq	%rax, %rcx
.LEHB13:
	call	_Unwind_Resume
	nop
.LEHE13:
.L98:
	addq	$2592, %rsp
	popq	%rbx
	popq	%rsi
	popq	%rbp
	ret
	.seh_handler	__gxx_personality_seh0, @unwind, @except
	.seh_handlerdata
.LLSDA10629:
	.byte	0xff
	.byte	0xff
	.byte	0x1
	.uleb128 .LLSDACSE10629-.LLSDACSB10629
.LLSDACSB10629:
	.uleb128 .LEHB6-.LFB10629
	.uleb128 .LEHE6-.LEHB6
	.uleb128 0
	.uleb128 0
	.uleb128 .LEHB7-.LFB10629
	.uleb128 .LEHE7-.LEHB7
	.uleb128 .L95-.LFB10629
	.uleb128 0
	.uleb128 .LEHB8-.LFB10629
	.uleb128 .LEHE8-.LEHB8
	.uleb128 .L94-.LFB10629
	.uleb128 0
	.uleb128 .LEHB9-.LFB10629
	.uleb128 .LEHE9-.LEHB9
	.uleb128 .L96-.LFB10629
	.uleb128 0
	.uleb128 .LEHB10-.LFB10629
	.uleb128 .LEHE10-.LEHB10
	.uleb128 .L95-.LFB10629
	.uleb128 0
	.uleb128 .LEHB11-.LFB10629
	.uleb128 .LEHE11-.LEHB11
	.uleb128 .L97-.LFB10629
	.uleb128 0
	.uleb128 .LEHB12-.LFB10629
	.uleb128 .LEHE12-.LEHB12
	.uleb128 .L95-.LFB10629
	.uleb128 0
	.uleb128 .LEHB13-.LFB10629
	.uleb128 .LEHE13-.LEHB13
	.uleb128 0
	.uleb128 0
.LLSDACSE10629:
	.section	.text$_ZN13NeuralNetworkC1ERKSt6vectorIySaIyEE10Activation,"x"
	.linkonce discard
	.seh_endproc
	.section	.text$_ZNK13NeuralNetwork18weight_layer_countEv,"x"
	.linkonce discard
	.align 2
	.globl	_ZNK13NeuralNetwork18weight_layer_countEv
	.def	_ZNK13NeuralNetwork18weight_layer_countEv;	.scl	2;	.type	32;	.endef
	.seh_proc	_ZNK13NeuralNetwork18weight_layer_countEv
_ZNK13NeuralNetwork18weight_layer_countEv:
.LFB10631:
	pushq	%rbp
	.seh_pushreg	%rbp
	movq	%rsp, %rbp
	.seh_setframe	%rbp, 0
	subq	$32, %rsp
	.seh_stackalloc	32
	.seh_endprologue
	movq	%rcx, 16(%rbp)
	movq	16(%rbp), %rax
	movq	%rax, %rcx
	call	_ZNKSt6vectorIySaIyEE4sizeEv
	subq	$1, %rax
	addq	$32, %rsp
	popq	%rbp
	ret
	.seh_endproc
	.section	.text$_ZNK13NeuralNetwork6layersEv,"x"
	.linkonce discard
	.align 2
	.globl	_ZNK13NeuralNetwork6layersEv
	.def	_ZNK13NeuralNetwork6layersEv;	.scl	2;	.type	32;	.endef
	.seh_proc	_ZNK13NeuralNetwork6layersEv
_ZNK13NeuralNetwork6layersEv:
.LFB10632:
	pushq	%rbp
	.seh_pushreg	%rbp
	movq	%rsp, %rbp
	.seh_setframe	%rbp, 0
	.seh_endprologue
	movq	%rcx, 16(%rbp)
	movq	16(%rbp), %rax
	popq	%rbp
	ret
	.seh_endproc
	.section	.text$_ZNSt12_Vector_baseIfSaIfEE12_Vector_implD1Ev,"x"
	.linkonce discard
	.align 2
	.globl	_ZNSt12_Vector_baseIfSaIfEE12_Vector_implD1Ev
	.def	_ZNSt12_Vector_baseIfSaIfEE12_Vector_implD1Ev;	.scl	2;	.type	32;	.endef
	.seh_proc	_ZNSt12_Vector_baseIfSaIfEE12_Vector_implD1Ev
_ZNSt12_Vector_baseIfSaIfEE12_Vector_implD1Ev:
.LFB10643:
	pushq	%rbp
	.seh_pushreg	%rbp
	movq	%rsp, %rbp
	.seh_setframe	%rbp, 0
	subq	$48, %rsp
	.seh_stackalloc	48
	.seh_endprologue
	movq	%rcx, 16(%rbp)
	movq	16(%rbp), %rax
	movq	%rax, -8(%rbp)
	movq	-8(%rbp), %rax
	movq	%rax, %rcx
	call	_ZNSt15__new_allocatorIfED2Ev
	nop
	nop
	addq	$48, %rsp
	popq	%rbp
	ret
	.seh_endproc
	.section	.text$_ZNSt12_Vector_baseIfSaIfEEC2Ev,"x"
	.linkonce discard
	.align 2
	.globl	_ZNSt12_Vector_baseIfSaIfEEC2Ev
	.def	_ZNSt12_Vector_baseIfSaIfEEC2Ev;	.scl	2;	.type	32;	.endef
	.seh_proc	_ZNSt12_Vector_baseIfSaIfEEC2Ev
_ZNSt12_Vector_baseIfSaIfEEC2Ev:
.LFB10644:
	pushq	%rbp
	.seh_pushreg	%rbp
	movq	%rsp, %rbp
	.seh_setframe	%rbp, 0
	subq	$32, %rsp
	.seh_stackalloc	32
	.seh_endprologue
	movq	%rcx, 16(%rbp)
	movq	16(%rbp), %rax
	movq	%rax, %rcx
	call	_ZNSt12_Vector_baseIfSaIfEE12_Vector_implC1Ev
	nop
	addq	$32, %rsp
	popq	%rbp
	ret
	.seh_endproc
	.section	.text$_ZNSt6vectorIfSaIfEEC1Ev,"x"
	.linkonce discard
	.align 2
	.globl	_ZNSt6vectorIfSaIfEEC1Ev
	.def	_ZNSt6vectorIfSaIfEEC1Ev;	.scl	2;	.type	32;	.endef
	.seh_proc	_ZNSt6vectorIfSaIfEEC1Ev
_ZNSt6vectorIfSaIfEEC1Ev:
.LFB10647:
	pushq	%rbp
	.seh_pushreg	%rbp
	movq	%rsp, %rbp
	.seh_setframe	%rbp, 0
	subq	$32, %rsp
	.seh_stackalloc	32
	.seh_endprologue
	movq	%rcx, 16(%rbp)
	movq	16(%rbp), %rax
	movq	%rax, %rcx
	call	_ZNSt12_Vector_baseIfSaIfEEC2Ev
	nop
	addq	$32, %rsp
	popq	%rbp
	ret
	.seh_endproc
	.section .rdata,"dr"
.LC5:
	.ascii "#layer\0"
.LC6:
	.ascii "+-0123456789\0"
.LC8:
	.ascii "#bias\0"
	.section	.text$_ZN13NeuralNetwork14load_from_fileERKNSt7__cxx1112basic_stringIcSt11char_traitsIcESaIcEEE,"x"
	.linkonce discard
	.align 2
	.globl	_ZN13NeuralNetwork14load_from_fileERKNSt7__cxx1112basic_stringIcSt11char_traitsIcESaIcEEE
	.def	_ZN13NeuralNetwork14load_from_fileERKNSt7__cxx1112basic_stringIcSt11char_traitsIcESaIcEEE;	.scl	2;	.type	32;	.endef
	.seh_proc	_ZN13NeuralNetwork14load_from_fileERKNSt7__cxx1112basic_stringIcSt11char_traitsIcESaIcEEE
_ZN13NeuralNetwork14load_from_fileERKNSt7__cxx1112basic_stringIcSt11char_traitsIcESaIcEEE:
.LFB10637:
	pushq	%rbp
	.seh_pushreg	%rbp
	pushq	%rsi
	.seh_pushreg	%rsi
	pushq	%rbx
	.seh_pushreg	%rbx
	subq	$864, %rsp
	.seh_stackalloc	864
	leaq	128(%rsp), %rbp
	.seh_setframe	%rbp, 128
	.seh_endprologue
	movq	%rcx, 768(%rbp)
	movq	%rdx, 776(%rbp)
	movq	776(%rbp), %rdx
	leaq	64(%rbp), %rax
	movl	$8, %r8d
	movq	%rax, %rcx
.LEHB14:
	call	_ZNSt14basic_ifstreamIcSt11char_traitsIcEEC1ERKNSt7__cxx1112basic_stringIcS1_SaIcEEESt13_Ios_Openmode
.LEHE14:
	leaq	64(%rbp), %rax
	addq	$224, %rax
	movq	%rax, %rcx
.LEHB15:
	call	_ZNKSt9basic_iosIcSt11char_traitsIcEEntEv
	testb	%al, %al
	je	.L107
	movl	$0, %ebx
	jmp	.L108
.L107:
	leaq	60(%rbp), %rdx
	leaq	64(%rbp), %rax
	movq	%rax, %rcx
	call	_ZNSirsERi
	movq	%rax, %rcx
	leaq	48(%rbp), %rax
	movq	%rax, %rdx
	call	_ZNSirsERy
	movq	(%rax), %rdx
	subq	$24, %rdx
	movq	(%rdx), %rdx
	addq	%rdx, %rax
	movq	%rax, %rcx
	call	_ZNKSt9basic_iosIcSt11char_traitsIcEEntEv
.LEHE15:
	testb	%al, %al
	je	.L109
	movl	$0, %ebx
	jmp	.L108
.L109:
	movq	48(%rbp), %rax
	cmpq	$1, %rax
	ja	.L110
	movl	$0, %ebx
	jmp	.L108
.L110:
	leaq	559(%rbp), %rax
	movq	%rax, 680(%rbp)
	nop
	nop
	movq	48(%rbp), %rdx
	leaq	559(%rbp), %rcx
	leaq	16(%rbp), %rax
	movq	%rcx, %r8
	movq	%rax, %rcx
.LEHB16:
	call	_ZNSt6vectorIySaIyEEC1EyRKS0_
.LEHE16:
	leaq	559(%rbp), %rax
	movq	%rax, %rcx
	call	_ZNSt15__new_allocatorIyED2Ev
	nop
	movq	$0, 728(%rbp)
	jmp	.L111
.L115:
	movq	728(%rbp), %rdx
	leaq	16(%rbp), %rax
	movq	%rax, %rcx
	call	_ZNSt6vectorIySaIyEEixEy
	movq	%rax, %rdx
	leaq	64(%rbp), %rax
	movq	%rax, %rcx
.LEHB17:
	call	_ZNSirsERy
	movq	(%rax), %rdx
	subq	$24, %rdx
	movq	(%rdx), %rdx
	addq	%rdx, %rax
	movq	%rax, %rcx
	call	_ZNKSt9basic_iosIcSt11char_traitsIcEEntEv
	testb	%al, %al
	je	.L112
	movl	$0, %ebx
	jmp	.L113
.L112:
	movq	728(%rbp), %rdx
	leaq	16(%rbp), %rax
	movq	%rax, %rcx
	call	_ZNSt6vectorIySaIyEEixEy
	movq	(%rax), %rax
	testq	%rax, %rax
	sete	%al
	testb	%al, %al
	je	.L114
	movl	$0, %ebx
	jmp	.L113
.L114:
	addq	$1, 728(%rbp)
.L111:
	movq	48(%rbp), %rax
	cmpq	%rax, 728(%rbp)
	jb	.L115
	movl	60(%rbp), %eax
	testl	%eax, %eax
	setne	%al
	movzbl	%al, %eax
	movl	%eax, 692(%rbp)
	movq	768(%rbp), %rax
	leaq	16(%rbp), %rdx
	movq	%rax, %rcx
	call	_ZNSt6vectorIySaIyEEaSERKS1_
.LEHE17:
	movq	768(%rbp), %rax
	movl	692(%rbp), %edx
	movl	%edx, 24(%rax)
	movq	768(%rbp), %rax
	leaq	32(%rax), %rsi
	pxor	%xmm0, %xmm0
	movups	%xmm0, 560(%rbp)
	movq	%xmm0, 576(%rbp)
	leaq	560(%rbp), %rax
	movq	%rax, %rcx
	call	_ZNSt6vectorIS_IfSaIfEESaIS1_EEC1Ev
	movq	768(%rbp), %rax
	movq	%rax, %rcx
	call	_ZNK13NeuralNetwork18weight_layer_countEv
	leaq	560(%rbp), %rdx
	movq	%rdx, %r8
	movq	%rax, %rdx
	movq	%rsi, %rcx
.LEHB18:
	call	_ZNSt6vectorIS_IS_IfSaIfEESaIS1_EESaIS3_EE6assignEyRKS3_
.LEHE18:
	leaq	560(%rbp), %rax
	movq	%rax, %rcx
	call	_ZNSt6vectorIS_IfSaIfEESaIS1_EED1Ev
	movq	768(%rbp), %rax
	leaq	56(%rax), %rsi
	pxor	%xmm0, %xmm0
	movups	%xmm0, 592(%rbp)
	movq	%xmm0, 608(%rbp)
	leaq	592(%rbp), %rax
	movq	%rax, %rcx
	call	_ZNSt6vectorIfSaIfEEC1Ev
	movq	768(%rbp), %rax
	movq	%rax, %rcx
	call	_ZNK13NeuralNetwork18weight_layer_countEv
	leaq	592(%rbp), %rdx
	movq	%rdx, %r8
	movq	%rax, %rdx
	movq	%rsi, %rcx
.LEHB19:
	call	_ZNSt6vectorIS_IfSaIfEESaIS1_EE6assignEyRKS1_
.LEHE19:
	leaq	592(%rbp), %rax
	movq	%rax, %rcx
	call	_ZNSt6vectorIfSaIfEED1Ev
	movq	$0, 720(%rbp)
	jmp	.L116
.L141:
	leaq	-80(%rbp), %rax
	movq	%rax, %rcx
	call	_ZNSt7__cxx1112basic_stringIcSt11char_traitsIcESaIcEEC1Ev
	leaq	-80(%rbp), %rdx
	leaq	64(%rbp), %rax
	movq	%rax, %rcx
.LEHB20:
	call	_ZStrsIcSt11char_traitsIcESaIcEERSt13basic_istreamIT_T0_ES7_RNSt7__cxx1112basic_stringIS4_S5_T1_EE
	movq	(%rax), %rdx
	subq	$24, %rdx
	movq	(%rdx), %rdx
	addq	%rdx, %rax
	movq	%rax, %rcx
	call	_ZNKSt9basic_iosIcSt11char_traitsIcEEntEv
	testb	%al, %al
	je	.L117
	movl	$0, %ebx
	movl	$0, %esi
	jmp	.L118
.L117:
	leaq	.LC5(%rip), %rdx
	leaq	-80(%rbp), %rax
	movq	%rax, %rcx
	call	_ZSteqIcSt11char_traitsIcESaIcEEbRKNSt7__cxx1112basic_stringIT_T0_T1_EEPKS5_
	movb	%al, 691(%rbp)
	cmpb	$0, 691(%rbp)
	je	.L119
	movq	%rbp, %rax
	leaq	64(%rbp), %rdx
	movq	%rax, %rcx
	call	_ZNSi5tellgEv
.LEHE20:
	leaq	-48(%rbp), %rax
	movq	%rax, %rcx
	call	_ZNSt7__cxx1112basic_stringIcSt11char_traitsIcESaIcEEC1Ev
	leaq	-48(%rbp), %rdx
	leaq	64(%rbp), %rax
	movq	%rax, %rcx
.LEHB21:
	call	_ZStrsIcSt11char_traitsIcESaIcEERSt13basic_istreamIT_T0_ES7_RNSt7__cxx1112basic_stringIS4_S5_T1_EE
	movq	(%rax), %rdx
	subq	$24, %rdx
	movq	(%rdx), %rdx
	addq	%rdx, %rax
	movq	%rax, %rcx
	call	_ZNKSt9basic_iosIcSt11char_traitsIcEEcvbEv
	testb	%al, %al
	je	.L120
	leaq	-48(%rbp), %rax
	movq	%rax, %rcx
	call	_ZNKSt7__cxx1112basic_stringIcSt11char_traitsIcESaIcEE5emptyEv
	xorl	$1, %eax
	testb	%al, %al
	je	.L121
	leaq	.LC6(%rip), %rdx
	leaq	-48(%rbp), %rax
	movl	$0, %r8d
	movq	%rax, %rcx
	call	_ZNKSt7__cxx1112basic_stringIcSt11char_traitsIcESaIcEE17find_first_not_ofEPKcy
	cmpq	$-1, %rax
	jne	.L121
	movl	$1, %eax
	jmp	.L122
.L121:
	movl	$0, %eax
.L122:
	movb	%al, 690(%rbp)
	movzbl	690(%rbp), %eax
	xorl	$1, %eax
	testb	%al, %al
	je	.L123
	movq	0(%rbp), %rax
	movq	8(%rbp), %rdx
	movq	%rax, -96(%rbp)
	movq	%rdx, -88(%rbp)
	leaq	-96(%rbp), %rdx
	leaq	64(%rbp), %rax
	movq	%rax, %rcx
	call	_ZNSi5seekgESt4fposI9_MbstatetE
	jmp	.L123
.L120:
	leaq	64(%rbp), %rax
	addq	$224, %rax
	movl	$0, %edx
	movq	%rax, %rcx
	call	_ZNSt9basic_iosIcSt11char_traitsIcEE5clearESt12_Ios_Iostate
	movq	0(%rbp), %rax
	movq	8(%rbp), %rdx
	movq	%rax, -96(%rbp)
	movq	%rdx, -88(%rbp)
	leaq	-96(%rbp), %rdx
	leaq	64(%rbp), %rax
	movq	%rax, %rcx
	call	_ZNSi5seekgESt4fposI9_MbstatetE
.LEHE21:
.L123:
	leaq	-48(%rbp), %rax
	movq	%rax, %rcx
	call	_ZNSt7__cxx1112basic_stringIcSt11char_traitsIcESaIcEED1Ev
.L119:
	movq	768(%rbp), %rax
	leaq	32(%rax), %rcx
	movq	720(%rbp), %rax
	movq	%rax, %rdx
	call	_ZNSt6vectorIS_IS_IfSaIfEESaIS1_EESaIS3_EEixEy
	movq	%rax, %rsi
	leaq	663(%rbp), %rax
	movq	%rax, 672(%rbp)
	nop
	nop
	pxor	%xmm0, %xmm0
	movss	%xmm0, 664(%rbp)
	movq	768(%rbp), %rax
	movq	720(%rbp), %rdx
	addq	$1, %rdx
	movq	%rax, %rcx
	call	_ZNSt6vectorIySaIyEEixEy
	movq	(%rax), %rdx
	leaq	663(%rbp), %r8
	leaq	664(%rbp), %rcx
	leaq	624(%rbp), %rax
	movq	%r8, %r9
	movq	%rcx, %r8
	movq	%rax, %rcx
.LEHB22:
	call	_ZNSt6vectorIfSaIfEEC1EyRKfRKS0_
.LEHE22:
	movq	768(%rbp), %rax
	movq	720(%rbp), %rdx
	movq	%rax, %rcx
	call	_ZNSt6vectorIySaIyEEixEy
	movq	(%rax), %rax
	leaq	624(%rbp), %rdx
	movq	%rdx, %r8
	movq	%rax, %rdx
	movq	%rsi, %rcx
.LEHB23:
	call	_ZNSt6vectorIS_IfSaIfEESaIS1_EE6assignEyRKS1_
.LEHE23:
	leaq	624(%rbp), %rax
	movq	%rax, %rcx
	call	_ZNSt6vectorIfSaIfEED1Ev
	leaq	663(%rbp), %rax
	movq	%rax, %rcx
	call	_ZNSt15__new_allocatorIfED2Ev
	nop
	movq	$0, 712(%rbp)
	jmp	.L124
.L129:
	movq	$0, 704(%rbp)
	jmp	.L125
.L128:
	movzbl	691(%rbp), %eax
	xorl	$1, %eax
	testb	%al, %al
	je	.L126
	cmpq	$0, 712(%rbp)
	jne	.L126
	cmpq	$0, 704(%rbp)
	jne	.L126
	leaq	-80(%rbp), %rax
	movl	$0, %edx
	movq	%rax, %rcx
.LEHB24:
	call	_ZNSt7__cxx114stofERKNS_12basic_stringIcSt11char_traitsIcESaIcEEEPy
.LEHE24:
	movd	%xmm0, %esi
	movq	768(%rbp), %rax
	leaq	32(%rax), %rcx
	movq	720(%rbp), %rax
	movq	%rax, %rdx
	call	_ZNSt6vectorIS_IS_IfSaIfEESaIS1_EESaIS3_EEixEy
	movq	%rax, %rcx
	movq	712(%rbp), %rax
	movq	%rax, %rdx
	call	_ZNSt6vectorIS_IfSaIfEESaIS1_EEixEy
	movq	%rax, %rcx
	movq	704(%rbp), %rax
	movq	%rax, %rdx
	call	_ZNSt6vectorIfSaIfEEixEy
	movl	%esi, (%rax)
	jmp	.L127
.L126:
	movq	768(%rbp), %rax
	leaq	32(%rax), %rcx
	movq	720(%rbp), %rax
	movq	%rax, %rdx
	call	_ZNSt6vectorIS_IS_IfSaIfEESaIS1_EESaIS3_EEixEy
	movq	%rax, %rcx
	movq	712(%rbp), %rax
	movq	%rax, %rdx
	call	_ZNSt6vectorIS_IfSaIfEESaIS1_EEixEy
	movq	%rax, %rcx
	movq	704(%rbp), %rax
	movq	%rax, %rdx
	call	_ZNSt6vectorIfSaIfEEixEy
	movq	%rax, %rdx
	leaq	64(%rbp), %rax
	movq	%rax, %rcx
.LEHB25:
	call	_ZNSirsERf
	movq	(%rax), %rdx
	subq	$24, %rdx
	movq	(%rdx), %rdx
	addq	%rdx, %rax
	movq	%rax, %rcx
	call	_ZNKSt9basic_iosIcSt11char_traitsIcEEntEv
	testb	%al, %al
	je	.L127
	movl	$0, %ebx
	movl	$0, %esi
	jmp	.L118
.L127:
	addq	$1, 704(%rbp)
.L125:
	movq	768(%rbp), %rax
	movq	720(%rbp), %rdx
	addq	$1, %rdx
	movq	%rax, %rcx
	call	_ZNSt6vectorIySaIyEEixEy
	movq	(%rax), %rax
	cmpq	%rax, 704(%rbp)
	setb	%al
	testb	%al, %al
	jne	.L128
	addq	$1, 712(%rbp)
.L124:
	movq	768(%rbp), %rax
	movq	720(%rbp), %rdx
	movq	%rax, %rcx
	call	_ZNSt6vectorIySaIyEEixEy
	movq	(%rax), %rax
	cmpq	%rax, 712(%rbp)
	setb	%al
	testb	%al, %al
	jne	.L129
	leaq	-80(%rbp), %rdx
	leaq	64(%rbp), %rax
	movq	%rax, %rcx
	call	_ZStrsIcSt11char_traitsIcESaIcEERSt13basic_istreamIT_T0_ES7_RNSt7__cxx1112basic_stringIS4_S5_T1_EE
	movq	(%rax), %rdx
	subq	$24, %rdx
	movq	(%rdx), %rdx
	addq	%rdx, %rax
	movq	%rax, %rcx
	call	_ZNKSt9basic_iosIcSt11char_traitsIcEEntEv
	testb	%al, %al
	je	.L130
	movl	$0, %ebx
	movl	$0, %esi
	jmp	.L118
.L130:
	leaq	.LC8(%rip), %rdx
	leaq	-80(%rbp), %rax
	movq	%rax, %rcx
	call	_ZSteqIcSt11char_traitsIcESaIcEEbRKNSt7__cxx1112basic_stringIT_T0_T1_EEPKS5_
	movb	%al, 689(%rbp)
	cmpb	$0, 689(%rbp)
	je	.L131
	leaq	-16(%rbp), %rax
	leaq	64(%rbp), %rdx
	movq	%rax, %rcx
	call	_ZNSi5tellgEv
.LEHE25:
	leaq	-48(%rbp), %rax
	movq	%rax, %rcx
	call	_ZNSt7__cxx1112basic_stringIcSt11char_traitsIcESaIcEEC1Ev
	leaq	-48(%rbp), %rdx
	leaq	64(%rbp), %rax
	movq	%rax, %rcx
.LEHB26:
	call	_ZStrsIcSt11char_traitsIcESaIcEERSt13basic_istreamIT_T0_ES7_RNSt7__cxx1112basic_stringIS4_S5_T1_EE
	movq	(%rax), %rdx
	subq	$24, %rdx
	movq	(%rdx), %rdx
	addq	%rdx, %rax
	movq	%rax, %rcx
	call	_ZNKSt9basic_iosIcSt11char_traitsIcEEcvbEv
	testb	%al, %al
	je	.L132
	leaq	-48(%rbp), %rax
	movq	%rax, %rcx
	call	_ZNKSt7__cxx1112basic_stringIcSt11char_traitsIcESaIcEE5emptyEv
	xorl	$1, %eax
	testb	%al, %al
	je	.L133
	leaq	.LC6(%rip), %rdx
	leaq	-48(%rbp), %rax
	movl	$0, %r8d
	movq	%rax, %rcx
	call	_ZNKSt7__cxx1112basic_stringIcSt11char_traitsIcESaIcEE17find_first_not_ofEPKcy
	cmpq	$-1, %rax
	jne	.L133
	movl	$1, %eax
	jmp	.L134
.L133:
	movl	$0, %eax
.L134:
	movb	%al, 688(%rbp)
	movzbl	688(%rbp), %eax
	xorl	$1, %eax
	testb	%al, %al
	je	.L135
	movq	-16(%rbp), %rax
	movq	-8(%rbp), %rdx
	movq	%rax, -96(%rbp)
	movq	%rdx, -88(%rbp)
	leaq	-96(%rbp), %rdx
	leaq	64(%rbp), %rax
	movq	%rax, %rcx
	call	_ZNSi5seekgESt4fposI9_MbstatetE
	jmp	.L135
.L132:
	leaq	64(%rbp), %rax
	addq	$224, %rax
	movl	$0, %edx
	movq	%rax, %rcx
	call	_ZNSt9basic_iosIcSt11char_traitsIcEE5clearESt12_Ios_Iostate
	movq	-16(%rbp), %rax
	movq	-8(%rbp), %rdx
	movq	%rax, -96(%rbp)
	movq	%rdx, -88(%rbp)
	leaq	-96(%rbp), %rdx
	leaq	64(%rbp), %rax
	movq	%rax, %rcx
	call	_ZNSi5seekgESt4fposI9_MbstatetE
.LEHE26:
.L135:
	leaq	-48(%rbp), %rax
	movq	%rax, %rcx
	call	_ZNSt7__cxx1112basic_stringIcSt11char_traitsIcESaIcEED1Ev
.L131:
	movq	768(%rbp), %rax
	leaq	56(%rax), %rcx
	movq	720(%rbp), %rax
	movq	%rax, %rdx
	call	_ZNSt6vectorIS_IfSaIfEESaIS1_EEixEy
	movq	%rax, %rsi
	pxor	%xmm0, %xmm0
	movss	%xmm0, 668(%rbp)
	movq	768(%rbp), %rax
	movq	720(%rbp), %rdx
	addq	$1, %rdx
	movq	%rax, %rcx
	call	_ZNSt6vectorIySaIyEEixEy
	movq	(%rax), %rax
	leaq	668(%rbp), %rdx
	movq	%rdx, %r8
	movq	%rax, %rdx
	movq	%rsi, %rcx
.LEHB27:
	call	_ZNSt6vectorIfSaIfEE6assignEyRKf
.LEHE27:
	movq	$0, 696(%rbp)
	jmp	.L136
.L139:
	movzbl	689(%rbp), %eax
	xorl	$1, %eax
	testb	%al, %al
	je	.L137
	cmpq	$0, 696(%rbp)
	jne	.L137
	leaq	-80(%rbp), %rax
	movl	$0, %edx
	movq	%rax, %rcx
.LEHB28:
	call	_ZNSt7__cxx114stofERKNS_12basic_stringIcSt11char_traitsIcESaIcEEEPy
.LEHE28:
	movd	%xmm0, %esi
	movq	768(%rbp), %rax
	leaq	56(%rax), %rcx
	movq	720(%rbp), %rax
	movq	%rax, %rdx
	call	_ZNSt6vectorIS_IfSaIfEESaIS1_EEixEy
	movq	%rax, %rcx
	movq	696(%rbp), %rax
	movq	%rax, %rdx
	call	_ZNSt6vectorIfSaIfEEixEy
	movl	%esi, (%rax)
	jmp	.L138
.L137:
	movq	768(%rbp), %rax
	leaq	56(%rax), %rcx
	movq	720(%rbp), %rax
	movq	%rax, %rdx
	call	_ZNSt6vectorIS_IfSaIfEESaIS1_EEixEy
	movq	%rax, %rcx
	movq	696(%rbp), %rax
	movq	%rax, %rdx
	call	_ZNSt6vectorIfSaIfEEixEy
	movq	%rax, %rdx
	leaq	64(%rbp), %rax
	movq	%rax, %rcx
.LEHB29:
	call	_ZNSirsERf
	movq	(%rax), %rdx
	subq	$24, %rdx
	movq	(%rdx), %rdx
	addq	%rdx, %rax
	movq	%rax, %rcx
	call	_ZNKSt9basic_iosIcSt11char_traitsIcEEntEv
	testb	%al, %al
	je	.L138
	movl	$0, %ebx
	movl	$0, %esi
	jmp	.L118
.L138:
	addq	$1, 696(%rbp)
.L136:
	movq	768(%rbp), %rax
	movq	720(%rbp), %rdx
	addq	$1, %rdx
	movq	%rax, %rcx
	call	_ZNSt6vectorIySaIyEEixEy
	movq	(%rax), %rax
	cmpq	%rax, 696(%rbp)
	setb	%al
	testb	%al, %al
	jne	.L139
	movl	$1, %esi
.L118:
	leaq	-80(%rbp), %rax
	movq	%rax, %rcx
	call	_ZNSt7__cxx1112basic_stringIcSt11char_traitsIcESaIcEED1Ev
	cmpl	$1, %esi
	jne	.L113
	addq	$1, 720(%rbp)
.L116:
	movq	768(%rbp), %rax
	movq	%rax, %rcx
	call	_ZNK13NeuralNetwork18weight_layer_countEv
	cmpq	%rax, 720(%rbp)
	setb	%al
	testb	%al, %al
	jne	.L141
	movl	$1, %ebx
.L113:
	leaq	16(%rbp), %rax
	movq	%rax, %rcx
	call	_ZNSt6vectorIySaIyEED1Ev
.L108:
	leaq	64(%rbp), %rax
	movq	%rax, %rcx
	call	_ZNSt14basic_ifstreamIcSt11char_traitsIcEED1Ev
	movl	%ebx, %eax
	jmp	.L167
.L156:
	movq	%rax, %rbx
	leaq	559(%rbp), %rax
	movq	%rax, %rcx
	call	_ZNSt15__new_allocatorIyED2Ev
	nop
	jmp	.L144
.L158:
	movq	%rax, %rbx
	leaq	560(%rbp), %rax
	movq	%rax, %rcx
	call	_ZNSt6vectorIS_IfSaIfEESaIS1_EED1Ev
	jmp	.L146
.L159:
	movq	%rax, %rbx
	leaq	592(%rbp), %rax
	movq	%rax, %rcx
	call	_ZNSt6vectorIfSaIfEED1Ev
	jmp	.L146
.L161:
	movq	%rax, %rbx
	leaq	-48(%rbp), %rax
	movq	%rax, %rcx
	call	_ZNSt7__cxx1112basic_stringIcSt11char_traitsIcESaIcEED1Ev
	jmp	.L149
.L163:
	movq	%rax, %rbx
	leaq	624(%rbp), %rax
	movq	%rax, %rcx
	call	_ZNSt6vectorIfSaIfEED1Ev
	jmp	.L151
.L162:
	movq	%rax, %rbx
.L151:
	leaq	663(%rbp), %rax
	movq	%rax, %rcx
	call	_ZNSt15__new_allocatorIfED2Ev
	nop
	jmp	.L149
.L164:
	movq	%rax, %rcx
	call	__cxa_begin_catch
	movl	$0, %ebx
	call	__cxa_end_catch
	movl	$0, %esi
	jmp	.L118
.L165:
	movq	%rax, %rbx
	leaq	-48(%rbp), %rax
	movq	%rax, %rcx
	call	_ZNSt7__cxx1112basic_stringIcSt11char_traitsIcESaIcEED1Ev
	jmp	.L149
.L166:
	movq	%rax, %rcx
	call	__cxa_begin_catch
	movl	$0, %ebx
	call	__cxa_end_catch
.LEHE29:
	movl	$0, %esi
	jmp	.L118
.L160:
	movq	%rax, %rbx
.L149:
	leaq	-80(%rbp), %rax
	movq	%rax, %rcx
	call	_ZNSt7__cxx1112basic_stringIcSt11char_traitsIcESaIcEED1Ev
	jmp	.L146
.L157:
	movq	%rax, %rbx
.L146:
	leaq	16(%rbp), %rax
	movq	%rax, %rcx
	call	_ZNSt6vectorIySaIyEED1Ev
	jmp	.L144
.L155:
	movq	%rax, %rbx
.L144:
	leaq	64(%rbp), %rax
	movq	%rax, %rcx
	call	_ZNSt14basic_ifstreamIcSt11char_traitsIcEED1Ev
	movq	%rbx, %rax
	movq	%rax, %rcx
.LEHB30:
	call	_Unwind_Resume
.LEHE30:
.L167:
	addq	$864, %rsp
	popq	%rbx
	popq	%rsi
	popq	%rbp
	ret
	.seh_handler	__gxx_personality_seh0, @unwind, @except
	.seh_handlerdata
	.align 4
.LLSDA10637:
	.byte	0xff
	.byte	0x9b
	.uleb128 .LLSDATT10637-.LLSDATTD10637
.LLSDATTD10637:
	.byte	0x1
	.uleb128 .LLSDACSE10637-.LLSDACSB10637
.LLSDACSB10637:
	.uleb128 .LEHB14-.LFB10637
	.uleb128 .LEHE14-.LEHB14
	.uleb128 0
	.uleb128 0
	.uleb128 .LEHB15-.LFB10637
	.uleb128 .LEHE15-.LEHB15
	.uleb128 .L155-.LFB10637
	.uleb128 0
	.uleb128 .LEHB16-.LFB10637
	.uleb128 .LEHE16-.LEHB16
	.uleb128 .L156-.LFB10637
	.uleb128 0
	.uleb128 .LEHB17-.LFB10637
	.uleb128 .LEHE17-.LEHB17
	.uleb128 .L157-.LFB10637
	.uleb128 0
	.uleb128 .LEHB18-.LFB10637
	.uleb128 .LEHE18-.LEHB18
	.uleb128 .L158-.LFB10637
	.uleb128 0
	.uleb128 .LEHB19-.LFB10637
	.uleb128 .LEHE19-.LEHB19
	.uleb128 .L159-.LFB10637
	.uleb128 0
	.uleb128 .LEHB20-.LFB10637
	.uleb128 .LEHE20-.LEHB20
	.uleb128 .L160-.LFB10637
	.uleb128 0
	.uleb128 .LEHB21-.LFB10637
	.uleb128 .LEHE21-.LEHB21
	.uleb128 .L161-.LFB10637
	.uleb128 0
	.uleb128 .LEHB22-.LFB10637
	.uleb128 .LEHE22-.LEHB22
	.uleb128 .L162-.LFB10637
	.uleb128 0
	.uleb128 .LEHB23-.LFB10637
	.uleb128 .LEHE23-.LEHB23
	.uleb128 .L163-.LFB10637
	.uleb128 0
	.uleb128 .LEHB24-.LFB10637
	.uleb128 .LEHE24-.LEHB24
	.uleb128 .L164-.LFB10637
	.uleb128 0x1
	.uleb128 .LEHB25-.LFB10637
	.uleb128 .LEHE25-.LEHB25
	.uleb128 .L160-.LFB10637
	.uleb128 0
	.uleb128 .LEHB26-.LFB10637
	.uleb128 .LEHE26-.LEHB26
	.uleb128 .L165-.LFB10637
	.uleb128 0
	.uleb128 .LEHB27-.LFB10637
	.uleb128 .LEHE27-.LEHB27
	.uleb128 .L160-.LFB10637
	.uleb128 0
	.uleb128 .LEHB28-.LFB10637
	.uleb128 .LEHE28-.LEHB28
	.uleb128 .L166-.LFB10637
	.uleb128 0x1
	.uleb128 .LEHB29-.LFB10637
	.uleb128 .LEHE29-.LEHB29
	.uleb128 .L160-.LFB10637
	.uleb128 0
	.uleb128 .LEHB30-.LFB10637
	.uleb128 .LEHE30-.LEHB30
	.uleb128 0
	.uleb128 0
.LLSDACSE10637:
	.byte	0x1
	.byte	0
	.align 4
	.long	0

.LLSDATT10637:
	.section	.text$_ZN13NeuralNetwork14load_from_fileERKNSt7__cxx1112basic_stringIcSt11char_traitsIcESaIcEEE,"x"
	.linkonce discard
	.seh_endproc
	.section	.text$_ZNSt12_Vector_baseIfSaIfEEC2EOS1_,"x"
	.linkonce discard
	.align 2
	.globl	_ZNSt12_Vector_baseIfSaIfEEC2EOS1_
	.def	_ZNSt12_Vector_baseIfSaIfEEC2EOS1_;	.scl	2;	.type	32;	.endef
	.seh_proc	_ZNSt12_Vector_baseIfSaIfEEC2EOS1_
_ZNSt12_Vector_baseIfSaIfEEC2EOS1_:
.LFB10652:
	pushq	%rbp
	.seh_pushreg	%rbp
	movq	%rsp, %rbp
	.seh_setframe	%rbp, 0
	subq	$32, %rsp
	.seh_stackalloc	32
	.seh_endprologue
	movq	%rcx, 16(%rbp)
	movq	%rdx, 24(%rbp)
	movq	16(%rbp), %rax
	movq	24(%rbp), %rdx
	movq	%rax, %rcx
	call	_ZNSt12_Vector_baseIfSaIfEE12_Vector_implC1EOS2_
	nop
	addq	$32, %rsp
	popq	%rbp
	ret
	.seh_endproc
	.section	.text$_ZNSt6vectorIfSaIfEEC1EOS1_,"x"
	.linkonce discard
	.align 2
	.globl	_ZNSt6vectorIfSaIfEEC1EOS1_
	.def	_ZNSt6vectorIfSaIfEEC1EOS1_;	.scl	2;	.type	32;	.endef
	.seh_proc	_ZNSt6vectorIfSaIfEEC1EOS1_
_ZNSt6vectorIfSaIfEEC1EOS1_:
.LFB10655:
	pushq	%rbp
	.seh_pushreg	%rbp
	movq	%rsp, %rbp
	.seh_setframe	%rbp, 0
	subq	$32, %rsp
	.seh_stackalloc	32
	.seh_endprologue
	movq	%rcx, 16(%rbp)
	movq	%rdx, 24(%rbp)
	movq	16(%rbp), %rax
	movq	24(%rbp), %rdx
	movq	%rax, %rcx
	call	_ZNSt12_Vector_baseIfSaIfEEC2EOS1_
	nop
	addq	$32, %rsp
	popq	%rbp
	ret
	.seh_endproc
	.section	.text$_ZN13NeuralNetwork11init_paramsEv,"x"
	.linkonce discard
	.align 2
	.globl	_ZN13NeuralNetwork11init_paramsEv
	.def	_ZN13NeuralNetwork11init_paramsEv;	.scl	2;	.type	32;	.endef
	.seh_proc	_ZN13NeuralNetwork11init_paramsEv
_ZN13NeuralNetwork11init_paramsEv:
.LFB10661:
	pushq	%rbp
	.seh_pushreg	%rbp
	pushq	%rbx
	.seh_pushreg	%rbx
	subq	$152, %rsp
	.seh_stackalloc	152
	leaq	144(%rsp), %rbp
	.seh_setframe	%rbp, 144
	.seh_endprologue
	movq	%rcx, 32(%rbp)
	leaq	-104(%rbp), %rax
	movss	.LC9(%rip), %xmm2
	movss	.LC10(%rip), %xmm1
	movq	%rax, %rcx
.LEHB31:
	call	_ZNSt25uniform_real_distributionIfEC1Eff
	movq	32(%rbp), %rax
	leaq	32(%rax), %rbx
	movq	32(%rbp), %rax
	movq	%rax, %rcx
	call	_ZNK13NeuralNetwork18weight_layer_countEv
	movq	%rax, %rdx
	movq	%rbx, %rcx
	call	_ZNSt6vectorIS_IS_IfSaIfEESaIS1_EESaIS3_EE6resizeEy
	movq	32(%rbp), %rax
	leaq	56(%rax), %rbx
	movq	32(%rbp), %rax
	movq	%rax, %rcx
	call	_ZNK13NeuralNetwork18weight_layer_countEv
	movq	%rax, %rdx
	movq	%rbx, %rcx
	call	_ZNSt6vectorIS_IfSaIfEESaIS1_EE6resizeEy
.LEHE31:
	movq	$0, -8(%rbp)
	jmp	.L171
.L178:
	movq	32(%rbp), %rax
	movq	-8(%rbp), %rdx
	movq	%rax, %rcx
	call	_ZNSt6vectorIySaIyEEixEy
	movq	(%rax), %rax
	movq	%rax, -40(%rbp)
	movq	32(%rbp), %rax
	movq	-8(%rbp), %rdx
	addq	$1, %rdx
	movq	%rax, %rcx
	call	_ZNSt6vectorIySaIyEEixEy
	movq	(%rax), %rax
	movq	%rax, -48(%rbp)
	movq	32(%rbp), %rax
	leaq	32(%rax), %rcx
	movq	-8(%rbp), %rax
	movq	%rax, %rdx
	call	_ZNSt6vectorIS_IS_IfSaIfEESaIS1_EESaIS3_EEixEy
	movq	%rax, %rbx
	leaq	-65(%rbp), %rax
	movq	%rax, -56(%rbp)
	nop
	nop
	pxor	%xmm0, %xmm0
	movss	%xmm0, -64(%rbp)
	leaq	-65(%rbp), %r8
	leaq	-64(%rbp), %rcx
	movq	-48(%rbp), %rdx
	leaq	-96(%rbp), %rax
	movq	%r8, %r9
	movq	%rcx, %r8
	movq	%rax, %rcx
.LEHB32:
	call	_ZNSt6vectorIfSaIfEEC1EyRKfRKS0_
.LEHE32:
	leaq	-96(%rbp), %rdx
	movq	-40(%rbp), %rax
	movq	%rdx, %r8
	movq	%rax, %rdx
	movq	%rbx, %rcx
.LEHB33:
	call	_ZNSt6vectorIS_IfSaIfEESaIS1_EE6assignEyRKS1_
.LEHE33:
	leaq	-96(%rbp), %rax
	movq	%rax, %rcx
	call	_ZNSt6vectorIfSaIfEED1Ev
	leaq	-65(%rbp), %rax
	movq	%rax, %rcx
	call	_ZNSt15__new_allocatorIfED2Ev
	nop
	movq	32(%rbp), %rax
	leaq	56(%rax), %rcx
	movq	-8(%rbp), %rax
	movq	%rax, %rdx
	call	_ZNSt6vectorIS_IfSaIfEESaIS1_EEixEy
	movq	%rax, %rcx
	pxor	%xmm0, %xmm0
	movss	%xmm0, -60(%rbp)
	leaq	-60(%rbp), %rdx
	movq	-48(%rbp), %rax
	movq	%rdx, %r8
	movq	%rax, %rdx
.LEHB34:
	call	_ZNSt6vectorIfSaIfEE6assignEyRKf
	movq	$0, -16(%rbp)
	jmp	.L172
.L175:
	movq	$0, -24(%rbp)
	jmp	.L173
.L174:
	movq	32(%rbp), %rax
	leaq	80(%rax), %rdx
	leaq	-104(%rbp), %rax
	movq	%rax, %rcx
	call	_ZNSt25uniform_real_distributionIfEclISt23mersenne_twister_engineIjLy32ELy624ELy397ELy31ELj2567483615ELy11ELj4294967295ELy7ELj2636928640ELy15ELj4022730752ELy18ELj1812433253EEEEfRT_
	movd	%xmm0, %ebx
	movq	32(%rbp), %rax
	leaq	32(%rax), %rcx
	movq	-8(%rbp), %rax
	movq	%rax, %rdx
	call	_ZNSt6vectorIS_IS_IfSaIfEESaIS1_EESaIS3_EEixEy
	movq	%rax, %rcx
	movq	-16(%rbp), %rax
	movq	%rax, %rdx
	call	_ZNSt6vectorIS_IfSaIfEESaIS1_EEixEy
	movq	%rax, %rcx
	movq	-24(%rbp), %rax
	movq	%rax, %rdx
	call	_ZNSt6vectorIfSaIfEEixEy
	movl	%ebx, (%rax)
	addq	$1, -24(%rbp)
.L173:
	movq	-24(%rbp), %rax
	cmpq	-48(%rbp), %rax
	jb	.L174
	addq	$1, -16(%rbp)
.L172:
	movq	-16(%rbp), %rax
	cmpq	-40(%rbp), %rax
	jb	.L175
	movq	$0, -32(%rbp)
	jmp	.L176
.L177:
	movq	32(%rbp), %rax
	leaq	80(%rax), %rdx
	leaq	-104(%rbp), %rax
	movq	%rax, %rcx
	call	_ZNSt25uniform_real_distributionIfEclISt23mersenne_twister_engineIjLy32ELy624ELy397ELy31ELj2567483615ELy11ELj4294967295ELy7ELj2636928640ELy15ELj4022730752ELy18ELj1812433253EEEEfRT_
	movd	%xmm0, %ebx
	movq	32(%rbp), %rax
	leaq	56(%rax), %rcx
	movq	-8(%rbp), %rax
	movq	%rax, %rdx
	call	_ZNSt6vectorIS_IfSaIfEESaIS1_EEixEy
	movq	%rax, %rcx
	movq	-32(%rbp), %rax
	movq	%rax, %rdx
	call	_ZNSt6vectorIfSaIfEEixEy
	movl	%ebx, (%rax)
	addq	$1, -32(%rbp)
.L176:
	movq	-32(%rbp), %rax
	cmpq	-48(%rbp), %rax
	jb	.L177
	addq	$1, -8(%rbp)
.L171:
	movq	32(%rbp), %rax
	movq	%rax, %rcx
	call	_ZNK13NeuralNetwork18weight_layer_countEv
	cmpq	%rax, -8(%rbp)
	setb	%al
	testb	%al, %al
	jne	.L178
	jmp	.L183
.L182:
	movq	%rax, %rbx
	leaq	-96(%rbp), %rax
	movq	%rax, %rcx
	call	_ZNSt6vectorIfSaIfEED1Ev
	jmp	.L180
.L181:
	movq	%rax, %rbx
.L180:
	leaq	-65(%rbp), %rax
	movq	%rax, %rcx
	call	_ZNSt15__new_allocatorIfED2Ev
	nop
	movq	%rbx, %rax
	movq	%rax, %rcx
	call	_Unwind_Resume
	nop
.LEHE34:
.L183:
	addq	$152, %rsp
	popq	%rbx
	popq	%rbp
	ret
	.seh_handler	__gxx_personality_seh0, @unwind, @except
	.seh_handlerdata
.LLSDA10661:
	.byte	0xff
	.byte	0xff
	.byte	0x1
	.uleb128 .LLSDACSE10661-.LLSDACSB10661
.LLSDACSB10661:
	.uleb128 .LEHB31-.LFB10661
	.uleb128 .LEHE31-.LEHB31
	.uleb128 0
	.uleb128 0
	.uleb128 .LEHB32-.LFB10661
	.uleb128 .LEHE32-.LEHB32
	.uleb128 .L181-.LFB10661
	.uleb128 0
	.uleb128 .LEHB33-.LFB10661
	.uleb128 .LEHE33-.LEHB33
	.uleb128 .L182-.LFB10661
	.uleb128 0
	.uleb128 .LEHB34-.LFB10661
	.uleb128 .LEHE34-.LEHB34
	.uleb128 0
	.uleb128 0
.LLSDACSE10661:
	.section	.text$_ZN13NeuralNetwork11init_paramsEv,"x"
	.linkonce discard
	.seh_endproc
	.text
	.globl	_Z12print_vectorRKSt6vectorIfSaIfEE
	.def	_Z12print_vectorRKSt6vectorIfSaIfEE;	.scl	2;	.type	32;	.endef
	.seh_proc	_Z12print_vectorRKSt6vectorIfSaIfEE
_Z12print_vectorRKSt6vectorIfSaIfEE:
.LFB10666:
	pushq	%rbp
	.seh_pushreg	%rbp
	pushq	%rbx
	.seh_pushreg	%rbx
	subq	$88, %rsp
	.seh_stackalloc	88
	leaq	80(%rsp), %rbp
	.seh_setframe	%rbp, 80
	.seh_endprologue
	movq	%rcx, 32(%rbp)
	leaq	_ZSt5fixedRSt8ios_base(%rip), %rax
	movq	%rax, %rdx
	movq	.refptr._ZSt4cout(%rip), %rax
	movq	%rax, %rcx
	call	_ZNSolsEPFRSt8ios_baseS0_E
	movq	%rax, %rbx
	movl	$4, %ecx
	call	_ZSt12setprecisioni
	movl	%eax, %edx
	movq	%rbx, %rcx
	call	_ZStlsIcSt11char_traitsIcEERSt13basic_ostreamIT_T0_ES6_St13_Setprecision
	movq	32(%rbp), %rax
	movq	%rax, -8(%rbp)
	movq	-8(%rbp), %rax
	movq	%rax, %rcx
	call	_ZNKSt6vectorIfSaIfEE5beginEv
	movq	%rax, -40(%rbp)
	movq	-8(%rbp), %rax
	movq	%rax, %rcx
	call	_ZNKSt6vectorIfSaIfEE3endEv
	movq	%rax, -48(%rbp)
	jmp	.L185
.L191:
	movq	-40(%rbp), %rax
	movss	(%rax), %xmm0
	movss	%xmm0, -12(%rbp)
	movss	-12(%rbp), %xmm0
	movq	.refptr._ZSt4cout(%rip), %rax
	movaps	%xmm0, %xmm1
	movq	%rax, %rcx
	call	_ZNSolsEf
	movl	$32, %edx
	movq	%rax, %rcx
	call	_ZStlsISt11char_traitsIcEERSt13basic_ostreamIcT_ES5_c
	movq	-40(%rbp), %rax
	addq	$4, %rax
	movq	%rax, -40(%rbp)
	nop
.L185:
	leaq	-40(%rbp), %rax
	movq	%rax, -24(%rbp)
	movq	-24(%rbp), %rax
	movq	(%rax), %rdx
	leaq	-48(%rbp), %rax
	movq	%rax, -32(%rbp)
	movq	-32(%rbp), %rax
	movq	(%rax), %rax
	cmpq	%rax, %rdx
	setne	%al
	testb	%al, %al
	jne	.L191
	movq	.refptr._ZSt4cout(%rip), %rax
	movl	$10, %edx
	movq	%rax, %rcx
	call	_ZStlsISt11char_traitsIcEERSt13basic_ostreamIcT_ES5_c
	nop
	addq	$88, %rsp
	popq	%rbx
	popq	%rbp
	ret
	.seh_endproc
	.section .rdata,"dr"
.LC11:
	.ascii "NetWorkSave0\0"
.LC12:
	.ascii "\12\0"
	.text
	.globl	main
	.def	main;	.scl	2;	.type	32;	.endef
	.seh_proc	main
main:
.LFB10695:
	pushq	%rbp
	.seh_pushreg	%rbp
	pushq	%rbx
	.seh_pushreg	%rbx
	subq	$2776, %rsp
	.seh_stackalloc	2776
	leaq	128(%rsp), %rbp
	.seh_setframe	%rbp, 128
	.seh_endprologue
	call	__main
	leaq	-48(%rbp), %rax
	movq	%rax, %rcx
.LEHB35:
	call	_ZN13NeuralNetworkC1Ev
.LEHE35:
	leaq	2591(%rbp), %rax
	movq	%rax, 2608(%rbp)
	nop
	nop
	leaq	2591(%rbp), %rcx
	leaq	.LC11(%rip), %rdx
	leaq	2544(%rbp), %rax
	movq	%rcx, %r8
	movq	%rax, %rcx
.LEHB36:
	call	_ZNSt7__cxx1112basic_stringIcSt11char_traitsIcESaIcEEC1IS3_EEPKcRKS3_
.LEHE36:
	leaq	2544(%rbp), %rdx
	leaq	-48(%rbp), %rax
	movq	%rax, %rcx
.LEHB37:
	call	_ZN13NeuralNetwork14load_from_fileERKNSt7__cxx1112basic_stringIcSt11char_traitsIcESaIcEEE
.LEHE37:
	movb	%al, 2639(%rbp)
	leaq	2544(%rbp), %rax
	movq	%rax, %rcx
	call	_ZNSt7__cxx1112basic_stringIcSt11char_traitsIcESaIcEED1Ev
	leaq	2591(%rbp), %rax
	movq	%rax, %rcx
	call	_ZNSt15__new_allocatorIcED2Ev
	nop
	movzbl	2639(%rbp), %edx
	movq	.refptr._ZSt4cout(%rip), %rax
	movq	%rax, %rcx
.LEHB38:
	call	_ZNSolsEb
	movq	%rax, %rcx
	leaq	.LC12(%rip), %rax
	movq	%rax, %rdx
	call	_ZStlsISt11char_traitsIcEERSt13basic_ostreamIcT_ES5_PKc
	cmpb	$0, 2639(%rbp)
	je	.L193
	leaq	-48(%rbp), %rax
	movq	%rax, %rcx
	call	_ZNK13NeuralNetwork6layersEv
	movq	%rax, %rdx
	leaq	-80(%rbp), %rax
	movq	%rax, %rcx
	call	_ZNSt6vectorIySaIyEEC1ERKS1_
.LEHE38:
	leaq	-80(%rbp), %rax
	movq	%rax, 2624(%rbp)
	movq	2624(%rbp), %rax
	movq	%rax, %rcx
	call	_ZNSt6vectorIySaIyEE5beginEv
	movq	%rax, -88(%rbp)
	movq	2624(%rbp), %rax
	movq	%rax, %rcx
	call	_ZNSt6vectorIySaIyEE3endEv
	movq	%rax, -96(%rbp)
	jmp	.L194
.L200:
	movq	-88(%rbp), %rax
	movq	(%rax), %rax
	movq	%rax, 2616(%rbp)
	movq	2616(%rbp), %rdx
	movq	.refptr._ZSt4cout(%rip), %rax
	movq	%rax, %rcx
.LEHB39:
	call	_ZNSolsEy
	movl	$32, %edx
	movq	%rax, %rcx
	call	_ZStlsISt11char_traitsIcEERSt13basic_ostreamIcT_ES5_c
	movq	-88(%rbp), %rax
	addq	$8, %rax
	movq	%rax, -88(%rbp)
	nop
.L194:
	leaq	-88(%rbp), %rax
	movq	%rax, 2600(%rbp)
	movq	2600(%rbp), %rax
	movq	(%rax), %rdx
	leaq	-96(%rbp), %rax
	movq	%rax, 2592(%rbp)
	movq	2592(%rbp), %rax
	movq	(%rax), %rax
	cmpq	%rax, %rdx
	setne	%al
	testb	%al, %al
	jne	.L200
	leaq	.LC12(%rip), %rdx
	movq	.refptr._ZSt4cout(%rip), %rax
	movq	%rax, %rcx
	call	_ZStlsISt11char_traitsIcEERSt13basic_ostreamIcT_ES5_PKc
.LEHE39:
	leaq	-80(%rbp), %rax
	movq	%rax, %rcx
	call	_ZNSt6vectorIySaIyEED1Ev
.L193:
	movl	$0, %ebx
	leaq	-48(%rbp), %rax
	movq	%rax, %rcx
	call	_ZN13NeuralNetworkD1Ev
	movl	%ebx, %eax
	jmp	.L210
.L207:
	movq	%rax, %rbx
	leaq	2544(%rbp), %rax
	movq	%rax, %rcx
	call	_ZNSt7__cxx1112basic_stringIcSt11char_traitsIcESaIcEED1Ev
	jmp	.L203
.L206:
	movq	%rax, %rbx
.L203:
	leaq	2591(%rbp), %rax
	movq	%rax, %rcx
	call	_ZNSt15__new_allocatorIcED2Ev
	nop
	jmp	.L204
.L209:
	movq	%rax, %rbx
	leaq	-80(%rbp), %rax
	movq	%rax, %rcx
	call	_ZNSt6vectorIySaIyEED1Ev
	jmp	.L204
.L208:
	movq	%rax, %rbx
.L204:
	leaq	-48(%rbp), %rax
	movq	%rax, %rcx
	call	_ZN13NeuralNetworkD1Ev
	movq	%rbx, %rax
	movq	%rax, %rcx
.LEHB40:
	call	_Unwind_Resume
.LEHE40:
.L210:
	addq	$2776, %rsp
	popq	%rbx
	popq	%rbp
	ret
	.seh_handler	__gxx_personality_seh0, @unwind, @except
	.seh_handlerdata
.LLSDA10695:
	.byte	0xff
	.byte	0xff
	.byte	0x1
	.uleb128 .LLSDACSE10695-.LLSDACSB10695
.LLSDACSB10695:
	.uleb128 .LEHB35-.LFB10695
	.uleb128 .LEHE35-.LEHB35
	.uleb128 0
	.uleb128 0
	.uleb128 .LEHB36-.LFB10695
	.uleb128 .LEHE36-.LEHB36
	.uleb128 .L206-.LFB10695
	.uleb128 0
	.uleb128 .LEHB37-.LFB10695
	.uleb128 .LEHE37-.LEHB37
	.uleb128 .L207-.LFB10695
	.uleb128 0
	.uleb128 .LEHB38-.LFB10695
	.uleb128 .LEHE38-.LEHB38
	.uleb128 .L208-.LFB10695
	.uleb128 0
	.uleb128 .LEHB39-.LFB10695
	.uleb128 .LEHE39-.LEHB39
	.uleb128 .L209-.LFB10695
	.uleb128 0
	.uleb128 .LEHB40-.LFB10695
	.uleb128 .LEHE40-.LEHB40
	.uleb128 0
	.uleb128 0
.LLSDACSE10695:
	.text
	.seh_endproc
	.section	.text$_ZN9__gnu_cxx11char_traitsIcE6lengthEPKc,"x"
	.linkonce discard
	.align 2
	.globl	_ZN9__gnu_cxx11char_traitsIcE6lengthEPKc
	.def	_ZN9__gnu_cxx11char_traitsIcE6lengthEPKc;	.scl	2;	.type	32;	.endef
	.seh_proc	_ZN9__gnu_cxx11char_traitsIcE6lengthEPKc
_ZN9__gnu_cxx11char_traitsIcE6lengthEPKc:
.LFB10696:
	pushq	%rbp
	.seh_pushreg	%rbp
	movq	%rsp, %rbp
	.seh_setframe	%rbp, 0
	subq	$48, %rsp
	.seh_stackalloc	48
	.seh_endprologue
	movq	%rcx, 16(%rbp)
	movq	$0, -8(%rbp)
	jmp	.L212
.L213:
	addq	$1, -8(%rbp)
.L212:
	movb	$0, -9(%rbp)
	movq	16(%rbp), %rdx
	movq	-8(%rbp), %rax
	leaq	(%rdx,%rax), %rcx
	leaq	-9(%rbp), %rax
	movq	%rax, %rdx
	call	_ZN9__gnu_cxx11char_traitsIcE2eqERKcS3_
	xorl	$1, %eax
	testb	%al, %al
	jne	.L213
	movq	-8(%rbp), %rax
	addq	$48, %rsp
	popq	%rbp
	ret
	.seh_endproc
	.section	.text$_ZN9__gnu_cxx11char_traitsIcE4findEPKcyRS2_,"x"
	.linkonce discard
	.align 2
	.globl	_ZN9__gnu_cxx11char_traitsIcE4findEPKcyRS2_
	.def	_ZN9__gnu_cxx11char_traitsIcE4findEPKcyRS2_;	.scl	2;	.type	32;	.endef
	.seh_proc	_ZN9__gnu_cxx11char_traitsIcE4findEPKcyRS2_
_ZN9__gnu_cxx11char_traitsIcE4findEPKcyRS2_:
.LFB10697:
	pushq	%rbp
	.seh_pushreg	%rbp
	movq	%rsp, %rbp
	.seh_setframe	%rbp, 0
	subq	$48, %rsp
	.seh_stackalloc	48
	.seh_endprologue
	movq	%rcx, 16(%rbp)
	movq	%rdx, 24(%rbp)
	movq	%r8, 32(%rbp)
	movq	$0, -8(%rbp)
	jmp	.L216
.L219:
	movq	16(%rbp), %rdx
	movq	-8(%rbp), %rax
	leaq	(%rdx,%rax), %rcx
	movq	32(%rbp), %rax
	movq	%rax, %rdx
	call	_ZN9__gnu_cxx11char_traitsIcE2eqERKcS3_
	testb	%al, %al
	je	.L217
	movq	16(%rbp), %rdx
	movq	-8(%rbp), %rax
	addq	%rdx, %rax
	jmp	.L218
.L217:
	addq	$1, -8(%rbp)
.L216:
	movq	-8(%rbp), %rax
	cmpq	24(%rbp), %rax
	jb	.L219
	movl	$0, %eax
.L218:
	addq	$48, %rsp
	popq	%rbp
	ret
	.seh_endproc
	.section	.text$_ZNKSt7__cxx1112basic_stringIcSt11char_traitsIcESaIcEE5c_strEv,"x"
	.linkonce discard
	.align 2
	.globl	_ZNKSt7__cxx1112basic_stringIcSt11char_traitsIcESaIcEE5c_strEv
	.def	_ZNKSt7__cxx1112basic_stringIcSt11char_traitsIcESaIcEE5c_strEv;	.scl	2;	.type	32;	.endef
	.seh_proc	_ZNKSt7__cxx1112basic_stringIcSt11char_traitsIcESaIcEE5c_strEv
_ZNKSt7__cxx1112basic_stringIcSt11char_traitsIcESaIcEE5c_strEv:
.LFB10722:
	pushq	%rbp
	.seh_pushreg	%rbp
	movq	%rsp, %rbp
	.seh_setframe	%rbp, 0
	subq	$32, %rsp
	.seh_stackalloc	32
	.seh_endprologue
	movq	%rcx, 16(%rbp)
	movq	16(%rbp), %rax
	movq	%rax, %rcx
	call	_ZNKSt7__cxx1112basic_stringIcSt11char_traitsIcESaIcEE7_M_dataEv
	addq	$32, %rsp
	popq	%rbp
	ret
	.seh_endproc
	.section	.text$_ZZN9__gnu_cxx6__stoaIffcJEEET0_PFT_PKT1_PPS3_DpT2_EPKcS5_PyS9_EN11_Save_errnoC1Ev,"x"
	.linkonce discard
	.align 2
	.globl	_ZZN9__gnu_cxx6__stoaIffcJEEET0_PFT_PKT1_PPS3_DpT2_EPKcS5_PyS9_EN11_Save_errnoC1Ev
	.def	_ZZN9__gnu_cxx6__stoaIffcJEEET0_PFT_PKT1_PPS3_DpT2_EPKcS5_PyS9_EN11_Save_errnoC1Ev;	.scl	2;	.type	32;	.endef
	.seh_proc	_ZZN9__gnu_cxx6__stoaIffcJEEET0_PFT_PKT1_PPS3_DpT2_EPKcS5_PyS9_EN11_Save_errnoC1Ev
_ZZN9__gnu_cxx6__stoaIffcJEEET0_PFT_PKT1_PPS3_DpT2_EPKcS5_PyS9_EN11_Save_errnoC1Ev:
.LFB10780:
	pushq	%rbp
	.seh_pushreg	%rbp
	movq	%rsp, %rbp
	.seh_setframe	%rbp, 0
	subq	$32, %rsp
	.seh_stackalloc	32
	.seh_endprologue
	movq	%rcx, 16(%rbp)
	movq	__imp__errno(%rip), %rax
	call	*%rax
	movl	(%rax), %edx
	movq	16(%rbp), %rax
	movl	%edx, (%rax)
	movq	__imp__errno(%rip), %rax
	call	*%rax
	movl	$0, (%rax)
	nop
	addq	$32, %rsp
	popq	%rbp
	ret
	.seh_endproc
	.section	.text$_ZZN9__gnu_cxx6__stoaIffcJEEET0_PFT_PKT1_PPS3_DpT2_EPKcS5_PyS9_EN11_Save_errnoD1Ev,"x"
	.linkonce discard
	.align 2
	.globl	_ZZN9__gnu_cxx6__stoaIffcJEEET0_PFT_PKT1_PPS3_DpT2_EPKcS5_PyS9_EN11_Save_errnoD1Ev
	.def	_ZZN9__gnu_cxx6__stoaIffcJEEET0_PFT_PKT1_PPS3_DpT2_EPKcS5_PyS9_EN11_Save_errnoD1Ev;	.scl	2;	.type	32;	.endef
	.seh_proc	_ZZN9__gnu_cxx6__stoaIffcJEEET0_PFT_PKT1_PPS3_DpT2_EPKcS5_PyS9_EN11_Save_errnoD1Ev
_ZZN9__gnu_cxx6__stoaIffcJEEET0_PFT_PKT1_PPS3_DpT2_EPKcS5_PyS9_EN11_Save_errnoD1Ev:
.LFB10783:
	pushq	%rbp
	.seh_pushreg	%rbp
	pushq	%rbx
	.seh_pushreg	%rbx
	subq	$40, %rsp
	.seh_stackalloc	40
	leaq	32(%rsp), %rbp
	.seh_setframe	%rbp, 32
	.seh_endprologue
	movq	%rcx, 32(%rbp)
	movq	__imp__errno(%rip), %rax
	call	*%rax
	movl	(%rax), %eax
	testl	%eax, %eax
	sete	%al
	testb	%al, %al
	je	.L225
	movq	32(%rbp), %rax
	movl	(%rax), %ebx
	movq	__imp__errno(%rip), %rax
	call	*%rax
	movl	%ebx, (%rax)
.L225:
	nop
	addq	$40, %rsp
	popq	%rbx
	popq	%rbp
	ret
	.seh_handler	__gxx_personality_seh0, @unwind, @except
	.seh_handlerdata
.LLSDA10783:
	.byte	0xff
	.byte	0xff
	.byte	0x1
	.uleb128 .LLSDACSE10783-.LLSDACSB10783
.LLSDACSB10783:
.LLSDACSE10783:
	.section	.text$_ZZN9__gnu_cxx6__stoaIffcJEEET0_PFT_PKT1_PPS3_DpT2_EPKcS5_PyS9_EN11_Save_errnoD1Ev,"x"
	.linkonce discard
	.seh_endproc
	.section	.text$_ZZN9__gnu_cxx6__stoaIffcJEEET0_PFT_PKT1_PPS3_DpT2_EPKcS5_PyS9_EN10_Range_chk6_S_chkEfSt17integral_constantIbLb0EE,"x"
	.linkonce discard
	.globl	_ZZN9__gnu_cxx6__stoaIffcJEEET0_PFT_PKT1_PPS3_DpT2_EPKcS5_PyS9_EN10_Range_chk6_S_chkEfSt17integral_constantIbLb0EE
	.def	_ZZN9__gnu_cxx6__stoaIffcJEEET0_PFT_PKT1_PPS3_DpT2_EPKcS5_PyS9_EN10_Range_chk6_S_chkEfSt17integral_constantIbLb0EE;	.scl	2;	.type	32;	.endef
	.seh_proc	_ZZN9__gnu_cxx6__stoaIffcJEEET0_PFT_PKT1_PPS3_DpT2_EPKcS5_PyS9_EN10_Range_chk6_S_chkEfSt17integral_constantIbLb0EE
_ZZN9__gnu_cxx6__stoaIffcJEEET0_PFT_PKT1_PPS3_DpT2_EPKcS5_PyS9_EN10_Range_chk6_S_chkEfSt17integral_constantIbLb0EE:
.LFB10784:
	pushq	%rbp
	.seh_pushreg	%rbp
	movq	%rsp, %rbp
	.seh_setframe	%rbp, 0
	.seh_endprologue
	movss	%xmm0, 16(%rbp)
	movl	$0, %eax
	popq	%rbp
	ret
	.seh_endproc
	.section	.text$_ZN9__gnu_cxx6__stoaIffcJEEET0_PFT_PKT1_PPS3_DpT2_EPKcS5_PyS9_,"x"
	.linkonce discard
	.globl	_ZN9__gnu_cxx6__stoaIffcJEEET0_PFT_PKT1_PPS3_DpT2_EPKcS5_PyS9_
	.def	_ZN9__gnu_cxx6__stoaIffcJEEET0_PFT_PKT1_PPS3_DpT2_EPKcS5_PyS9_;	.scl	2;	.type	32;	.endef
	.seh_proc	_ZN9__gnu_cxx6__stoaIffcJEEET0_PFT_PKT1_PPS3_DpT2_EPKcS5_PyS9_
_ZN9__gnu_cxx6__stoaIffcJEEET0_PFT_PKT1_PPS3_DpT2_EPKcS5_PyS9_:
.LFB10777:
	pushq	%rbp
	.seh_pushreg	%rbp
	pushq	%rbx
	.seh_pushreg	%rbx
	subq	$88, %rsp
	.seh_stackalloc	88
	leaq	64(%rsp), %rbp
	.seh_setframe	%rbp, 64
	movups	%xmm6, 0(%rbp)
	.seh_savexmm	%xmm6, 64
	.seh_endprologue
	movq	%rcx, 48(%rbp)
	movq	%rdx, 56(%rbp)
	movq	%r8, 64(%rbp)
	movq	%r9, 72(%rbp)
	leaq	-28(%rbp), %rax
	movq	%rax, %rcx
.LEHB41:
	call	_ZZN9__gnu_cxx6__stoaIffcJEEET0_PFT_PKT1_PPS3_DpT2_EPKcS5_PyS9_EN11_Save_errnoC1Ev
.LEHE41:
	movq	48(%rbp), %r8
	leaq	-24(%rbp), %rdx
	movq	64(%rbp), %rax
	movq	%rax, %rcx
.LEHB42:
	call	*%r8
	movd	%xmm0, %eax
	movl	%eax, -4(%rbp)
	movq	-24(%rbp), %rax
	cmpq	%rax, 64(%rbp)
	jne	.L229
	movq	56(%rbp), %rax
	movq	%rax, %rcx
	call	_ZSt24__throw_invalid_argumentPKc
.L229:
	movq	__imp__errno(%rip), %rax
	call	*%rax
	movl	(%rax), %eax
	cmpl	$34, %eax
	je	.L230
	movl	-4(%rbp), %eax
	movl	%ebx, %edx
	movd	%eax, %xmm0
	call	_ZZN9__gnu_cxx6__stoaIffcJEEET0_PFT_PKT1_PPS3_DpT2_EPKcS5_PyS9_EN10_Range_chk6_S_chkEfSt17integral_constantIbLb0EE
	testb	%al, %al
	je	.L231
.L230:
	movl	$1, %eax
	jmp	.L232
.L231:
	movl	$0, %eax
.L232:
	testb	%al, %al
	je	.L233
	movq	56(%rbp), %rax
	movq	%rax, %rcx
	call	_ZSt20__throw_out_of_rangePKc
.LEHE42:
.L233:
	movss	-4(%rbp), %xmm0
	movss	%xmm0, -8(%rbp)
	cmpq	$0, 72(%rbp)
	je	.L234
	movq	-24(%rbp), %rax
	subq	64(%rbp), %rax
	movq	%rax, %rdx
	movq	72(%rbp), %rax
	movq	%rdx, (%rax)
.L234:
	movss	-8(%rbp), %xmm6
	leaq	-28(%rbp), %rax
	movq	%rax, %rcx
	call	_ZZN9__gnu_cxx6__stoaIffcJEEET0_PFT_PKT1_PPS3_DpT2_EPKcS5_PyS9_EN11_Save_errnoD1Ev
	movaps	%xmm6, %xmm0
	jmp	.L238
.L237:
	movq	%rax, %rbx
	leaq	-28(%rbp), %rax
	movq	%rax, %rcx
	call	_ZZN9__gnu_cxx6__stoaIffcJEEET0_PFT_PKT1_PPS3_DpT2_EPKcS5_PyS9_EN11_Save_errnoD1Ev
	movq	%rbx, %rax
	movq	%rax, %rcx
.LEHB43:
	call	_Unwind_Resume
.LEHE43:
.L238:
	movups	0(%rbp), %xmm6
	addq	$88, %rsp
	popq	%rbx
	popq	%rbp
	ret
	.seh_handler	__gxx_personality_seh0, @unwind, @except
	.seh_handlerdata
.LLSDA10777:
	.byte	0xff
	.byte	0xff
	.byte	0x1
	.uleb128 .LLSDACSE10777-.LLSDACSB10777
.LLSDACSB10777:
	.uleb128 .LEHB41-.LFB10777
	.uleb128 .LEHE41-.LEHB41
	.uleb128 0
	.uleb128 0
	.uleb128 .LEHB42-.LFB10777
	.uleb128 .LEHE42-.LEHB42
	.uleb128 .L237-.LFB10777
	.uleb128 0
	.uleb128 .LEHB43-.LFB10777
	.uleb128 .LEHE43-.LEHB43
	.uleb128 0
	.uleb128 0
.LLSDACSE10777:
	.section	.text$_ZN9__gnu_cxx6__stoaIffcJEEET0_PFT_PKT1_PPS3_DpT2_EPKcS5_PyS9_,"x"
	.linkonce discard
	.seh_endproc
	.section	.text$_ZNSt7__cxx1112basic_stringIcSt11char_traitsIcESaIcEE12_Alloc_hiderD1Ev,"x"
	.linkonce discard
	.align 2
	.globl	_ZNSt7__cxx1112basic_stringIcSt11char_traitsIcESaIcEE12_Alloc_hiderD1Ev
	.def	_ZNSt7__cxx1112basic_stringIcSt11char_traitsIcESaIcEE12_Alloc_hiderD1Ev;	.scl	2;	.type	32;	.endef
	.seh_proc	_ZNSt7__cxx1112basic_stringIcSt11char_traitsIcESaIcEE12_Alloc_hiderD1Ev
_ZNSt7__cxx1112basic_stringIcSt11char_traitsIcESaIcEE12_Alloc_hiderD1Ev:
.LFB10798:
	pushq	%rbp
	.seh_pushreg	%rbp
	movq	%rsp, %rbp
	.seh_setframe	%rbp, 0
	subq	$48, %rsp
	.seh_stackalloc	48
	.seh_endprologue
	movq	%rcx, 16(%rbp)
	movq	16(%rbp), %rax
	movq	%rax, -8(%rbp)
	movq	-8(%rbp), %rax
	movq	%rax, %rcx
	call	_ZNSt15__new_allocatorIcED2Ev
	nop
	nop
	addq	$48, %rsp
	popq	%rbp
	ret
	.seh_endproc
	.section	.text$_ZNSt7__cxx1112basic_stringIcSt11char_traitsIcESaIcEEC1Ev,"x"
	.linkonce discard
	.align 2
	.globl	_ZNSt7__cxx1112basic_stringIcSt11char_traitsIcESaIcEEC1Ev
	.def	_ZNSt7__cxx1112basic_stringIcSt11char_traitsIcESaIcEEC1Ev;	.scl	2;	.type	32;	.endef
	.seh_proc	_ZNSt7__cxx1112basic_stringIcSt11char_traitsIcESaIcEEC1Ev
_ZNSt7__cxx1112basic_stringIcSt11char_traitsIcESaIcEEC1Ev:
.LFB10800:
	pushq	%rbp
	.seh_pushreg	%rbp
	pushq	%rbx
	.seh_pushreg	%rbx
	subq	$72, %rsp
	.seh_stackalloc	72
	leaq	64(%rsp), %rbp
	.seh_setframe	%rbp, 64
	.seh_endprologue
	movq	%rcx, 32(%rbp)
	movq	32(%rbp), %rbx
	leaq	-17(%rbp), %rax
	movq	%rax, -16(%rbp)
	nop
	nop
	movq	32(%rbp), %rax
	movq	%rax, %rcx
	call	_ZNSt7__cxx1112basic_stringIcSt11char_traitsIcESaIcEE13_M_local_dataEv
	leaq	-17(%rbp), %rdx
	movq	%rdx, %r8
	movq	%rax, %rdx
	movq	%rbx, %rcx
	call	_ZNSt7__cxx1112basic_stringIcSt11char_traitsIcESaIcEE12_Alloc_hiderC1EPcOS3_
	leaq	-17(%rbp), %rax
	movq	%rax, %rcx
	call	_ZNSt15__new_allocatorIcED2Ev
	nop
	movq	32(%rbp), %rax
	movq	%rax, -8(%rbp)
	nop
	movq	32(%rbp), %rax
	movl	$0, %edx
	movq	%rax, %rcx
	call	_ZNSt7__cxx1112basic_stringIcSt11char_traitsIcESaIcEE13_M_set_lengthEy
	nop
	addq	$72, %rsp
	popq	%rbx
	popq	%rbp
	ret
	.seh_handler	__gxx_personality_seh0, @unwind, @except
	.seh_handlerdata
.LLSDA10800:
	.byte	0xff
	.byte	0xff
	.byte	0x1
	.uleb128 .LLSDACSE10800-.LLSDACSB10800
.LLSDACSB10800:
.LLSDACSE10800:
	.section	.text$_ZNSt7__cxx1112basic_stringIcSt11char_traitsIcESaIcEEC1Ev,"x"
	.linkonce discard
	.seh_endproc
	.section	.text$_ZNSt7__cxx1112basic_stringIcSt11char_traitsIcESaIcEED1Ev,"x"
	.linkonce discard
	.align 2
	.globl	_ZNSt7__cxx1112basic_stringIcSt11char_traitsIcESaIcEED1Ev
	.def	_ZNSt7__cxx1112basic_stringIcSt11char_traitsIcESaIcEED1Ev;	.scl	2;	.type	32;	.endef
	.seh_proc	_ZNSt7__cxx1112basic_stringIcSt11char_traitsIcESaIcEED1Ev
_ZNSt7__cxx1112basic_stringIcSt11char_traitsIcESaIcEED1Ev:
.LFB10803:
	pushq	%rbp
	.seh_pushreg	%rbp
	movq	%rsp, %rbp
	.seh_setframe	%rbp, 0
	subq	$32, %rsp
	.seh_stackalloc	32
	.seh_endprologue
	movq	%rcx, 16(%rbp)
	movq	16(%rbp), %rax
	movq	%rax, %rcx
	call	_ZNSt7__cxx1112basic_stringIcSt11char_traitsIcESaIcEE10_M_disposeEv
	movq	16(%rbp), %rax
	movq	%rax, %rcx
	call	_ZNSt7__cxx1112basic_stringIcSt11char_traitsIcESaIcEE12_Alloc_hiderD1Ev
	nop
	addq	$32, %rsp
	popq	%rbp
	ret
	.seh_handler	__gxx_personality_seh0, @unwind, @except
	.seh_handlerdata
.LLSDA10803:
	.byte	0xff
	.byte	0xff
	.byte	0x1
	.uleb128 .LLSDACSE10803-.LLSDACSB10803
.LLSDACSB10803:
.LLSDACSE10803:
	.section	.text$_ZNSt7__cxx1112basic_stringIcSt11char_traitsIcESaIcEED1Ev,"x"
	.linkonce discard
	.seh_endproc
	.section	.text$_ZSt3maxIyERKT_S2_S2_,"x"
	.linkonce discard
	.globl	_ZSt3maxIyERKT_S2_S2_
	.def	_ZSt3maxIyERKT_S2_S2_;	.scl	2;	.type	32;	.endef
	.seh_proc	_ZSt3maxIyERKT_S2_S2_
_ZSt3maxIyERKT_S2_S2_:
.LFB10967:
	pushq	%rbp
	.seh_pushreg	%rbp
	movq	%rsp, %rbp
	.seh_setframe	%rbp, 0
	.seh_endprologue
	movq	%rcx, 16(%rbp)
	movq	%rdx, 24(%rbp)
	movq	16(%rbp), %rax
	movq	(%rax), %rdx
	movq	24(%rbp), %rax
	movq	(%rax), %rax
	cmpq	%rax, %rdx
	jnb	.L243
	movq	24(%rbp), %rax
	jmp	.L244
.L243:
	movq	16(%rbp), %rax
.L244:
	popq	%rbp
	ret
	.seh_endproc
	.section .rdata,"dr"
	.align 8
.LC13:
	.ascii "basic_string: construction from null is not valid\0"
	.section	.text$_ZNSt7__cxx1112basic_stringIcSt11char_traitsIcESaIcEEC1IS3_EEPKcRKS3_,"x"
	.linkonce discard
	.align 2
	.globl	_ZNSt7__cxx1112basic_stringIcSt11char_traitsIcESaIcEEC1IS3_EEPKcRKS3_
	.def	_ZNSt7__cxx1112basic_stringIcSt11char_traitsIcESaIcEEC1IS3_EEPKcRKS3_;	.scl	2;	.type	32;	.endef
	.seh_proc	_ZNSt7__cxx1112basic_stringIcSt11char_traitsIcESaIcEEC1IS3_EEPKcRKS3_
_ZNSt7__cxx1112basic_stringIcSt11char_traitsIcESaIcEEC1IS3_EEPKcRKS3_:
.LFB11301:
	pushq	%rbp
	.seh_pushreg	%rbp
	pushq	%rsi
	.seh_pushreg	%rsi
	pushq	%rbx
	.seh_pushreg	%rbx
	subq	$48, %rsp
	.seh_stackalloc	48
	leaq	48(%rsp), %rbp
	.seh_setframe	%rbp, 48
	.seh_endprologue
	movq	%rcx, 32(%rbp)
	movq	%rdx, 40(%rbp)
	movq	%r8, 48(%rbp)
	movq	32(%rbp), %rbx
	movq	32(%rbp), %rax
	movq	%rax, %rcx
	call	_ZNSt7__cxx1112basic_stringIcSt11char_traitsIcESaIcEE13_M_local_dataEv
	movq	48(%rbp), %rdx
	movq	%rdx, %r8
	movq	%rax, %rdx
	movq	%rbx, %rcx
	call	_ZNSt7__cxx1112basic_stringIcSt11char_traitsIcESaIcEE12_Alloc_hiderC1EPcRKS3_
	cmpq	$0, 40(%rbp)
	jne	.L246
	leaq	.LC13(%rip), %rax
	movq	%rax, %rcx
.LEHB44:
	call	_ZSt19__throw_logic_errorPKc
.L246:
	movq	40(%rbp), %rax
	movq	%rax, %rcx
	call	_ZNSt11char_traitsIcE6lengthEPKc
	movq	40(%rbp), %rdx
	addq	%rdx, %rax
	movq	%rax, -8(%rbp)
	movq	-8(%rbp), %rcx
	movq	40(%rbp), %rdx
	movq	32(%rbp), %rax
	movl	%esi, %r9d
	movq	%rcx, %r8
	movq	%rax, %rcx
	call	_ZNSt7__cxx1112basic_stringIcSt11char_traitsIcESaIcEE12_M_constructIPKcEEvT_S8_St20forward_iterator_tag
.LEHE44:
	jmp	.L249
.L248:
	movq	%rax, %rbx
	movq	32(%rbp), %rax
	movq	%rax, %rcx
	call	_ZNSt7__cxx1112basic_stringIcSt11char_traitsIcESaIcEE12_Alloc_hiderD1Ev
	movq	%rbx, %rax
	movq	%rax, %rcx
.LEHB45:
	call	_Unwind_Resume
	nop
.LEHE45:
.L249:
	addq	$48, %rsp
	popq	%rbx
	popq	%rsi
	popq	%rbp
	ret
	.seh_handler	__gxx_personality_seh0, @unwind, @except
	.seh_handlerdata
.LLSDA11301:
	.byte	0xff
	.byte	0xff
	.byte	0x1
	.uleb128 .LLSDACSE11301-.LLSDACSB11301
.LLSDACSB11301:
	.uleb128 .LEHB44-.LFB11301
	.uleb128 .LEHE44-.LEHB44
	.uleb128 .L248-.LFB11301
	.uleb128 0
	.uleb128 .LEHB45-.LFB11301
	.uleb128 .LEHE45-.LEHB45
	.uleb128 0
	.uleb128 0
.LLSDACSE11301:
	.section	.text$_ZNSt7__cxx1112basic_stringIcSt11char_traitsIcESaIcEEC1IS3_EEPKcRKS3_,"x"
	.linkonce discard
	.seh_endproc
	.section	.text$_ZNSt12_Vector_baseIySaIyEED2Ev,"x"
	.linkonce discard
	.align 2
	.globl	_ZNSt12_Vector_baseIySaIyEED2Ev
	.def	_ZNSt12_Vector_baseIySaIyEED2Ev;	.scl	2;	.type	32;	.endef
	.seh_proc	_ZNSt12_Vector_baseIySaIyEED2Ev
_ZNSt12_Vector_baseIySaIyEED2Ev:
.LFB11322:
	pushq	%rbp
	.seh_pushreg	%rbp
	movq	%rsp, %rbp
	.seh_setframe	%rbp, 0
	subq	$32, %rsp
	.seh_stackalloc	32
	.seh_endprologue
	movq	%rcx, 16(%rbp)
	movq	16(%rbp), %rax
	movq	16(%rax), %rdx
	movq	16(%rbp), %rax
	movq	(%rax), %rax
	subq	%rax, %rdx
	movq	%rdx, %rax
	sarq	$3, %rax
	movq	%rax, %rcx
	movq	16(%rbp), %rax
	movq	(%rax), %rdx
	movq	16(%rbp), %rax
	movq	%rcx, %r8
	movq	%rax, %rcx
	call	_ZNSt12_Vector_baseIySaIyEE13_M_deallocateEPyy
	movq	16(%rbp), %rax
	movq	%rax, %rcx
	call	_ZNSt12_Vector_baseIySaIyEE12_Vector_implD1Ev
	nop
	addq	$32, %rsp
	popq	%rbp
	ret
	.seh_handler	__gxx_personality_seh0, @unwind, @except
	.seh_handlerdata
.LLSDA11322:
	.byte	0xff
	.byte	0xff
	.byte	0x1
	.uleb128 .LLSDACSE11322-.LLSDACSB11322
.LLSDACSB11322:
.LLSDACSE11322:
	.section	.text$_ZNSt12_Vector_baseIySaIyEED2Ev,"x"
	.linkonce discard
	.seh_endproc
	.section	.text$_ZNSt6vectorIySaIyEED1Ev,"x"
	.linkonce discard
	.align 2
	.globl	_ZNSt6vectorIySaIyEED1Ev
	.def	_ZNSt6vectorIySaIyEED1Ev;	.scl	2;	.type	32;	.endef
	.seh_proc	_ZNSt6vectorIySaIyEED1Ev
_ZNSt6vectorIySaIyEED1Ev:
.LFB11326:
	pushq	%rbp
	.seh_pushreg	%rbp
	movq	%rsp, %rbp
	.seh_setframe	%rbp, 0
	subq	$64, %rsp
	.seh_stackalloc	64
	.seh_endprologue
	movq	%rcx, 16(%rbp)
	movq	16(%rbp), %rax
	movq	%rax, %rcx
	call	_ZNSt12_Vector_baseIySaIyEE19_M_get_Tp_allocatorEv
	movq	16(%rbp), %rdx
	movq	8(%rdx), %rdx
	movq	16(%rbp), %rcx
	movq	(%rcx), %rcx
	movq	%rcx, -8(%rbp)
	movq	%rdx, -16(%rbp)
	movq	%rax, -24(%rbp)
	movq	-16(%rbp), %rdx
	movq	-8(%rbp), %rax
	movq	%rax, %rcx
	call	_ZSt8_DestroyIPyEvT_S1_
	nop
	movq	16(%rbp), %rax
	movq	%rax, %rcx
	call	_ZNSt12_Vector_baseIySaIyEED2Ev
	nop
	addq	$64, %rsp
	popq	%rbp
	ret
	.seh_endproc
	.section	.text$_ZNSt6vectorIySaIyEEC1ESt16initializer_listIyERKS0_,"x"
	.linkonce discard
	.align 2
	.globl	_ZNSt6vectorIySaIyEEC1ESt16initializer_listIyERKS0_
	.def	_ZNSt6vectorIySaIyEEC1ESt16initializer_listIyERKS0_;	.scl	2;	.type	32;	.endef
	.seh_proc	_ZNSt6vectorIySaIyEEC1ESt16initializer_listIyERKS0_
_ZNSt6vectorIySaIyEEC1ESt16initializer_listIyERKS0_:
.LFB11415:
	pushq	%rbp
	.seh_pushreg	%rbp
	pushq	%rsi
	.seh_pushreg	%rsi
	pushq	%rbx
	.seh_pushreg	%rbx
	subq	$48, %rsp
	.seh_stackalloc	48
	leaq	48(%rsp), %rbp
	.seh_setframe	%rbp, 48
	.seh_endprologue
	movq	%rcx, 32(%rbp)
	movq	%rdx, %rbx
	movq	(%rbx), %rax
	movq	8(%rbx), %rdx
	movq	%rax, -16(%rbp)
	movq	%rdx, -8(%rbp)
	movq	%r8, 48(%rbp)
	movq	32(%rbp), %rax
	movq	48(%rbp), %rdx
	movq	%rax, %rcx
	call	_ZNSt12_Vector_baseIySaIyEEC2ERKS0_
	leaq	-16(%rbp), %rax
	movq	%rax, %rcx
	call	_ZNKSt16initializer_listIyE4sizeEv
	movq	%rax, %rsi
	leaq	-16(%rbp), %rax
	movq	%rax, %rcx
	call	_ZNKSt16initializer_listIyE3endEv
	movq	%rax, %rbx
	leaq	-16(%rbp), %rax
	movq	%rax, %rcx
	call	_ZNKSt16initializer_listIyE5beginEv
	movq	%rax, %rdx
	movq	32(%rbp), %rax
	movq	%rsi, %r9
	movq	%rbx, %r8
	movq	%rax, %rcx
.LEHB46:
	call	_ZNSt6vectorIySaIyEE21_M_range_initialize_nIPKyS4_EEvT_T0_y
.LEHE46:
	jmp	.L255
.L254:
	movq	%rax, %rbx
	movq	32(%rbp), %rax
	movq	%rax, %rcx
	call	_ZNSt12_Vector_baseIySaIyEED2Ev
	movq	%rbx, %rax
	movq	%rax, %rcx
.LEHB47:
	call	_Unwind_Resume
	nop
.LEHE47:
.L255:
	addq	$48, %rsp
	popq	%rbx
	popq	%rsi
	popq	%rbp
	ret
	.seh_handler	__gxx_personality_seh0, @unwind, @except
	.seh_handlerdata
.LLSDA11415:
	.byte	0xff
	.byte	0xff
	.byte	0x1
	.uleb128 .LLSDACSE11415-.LLSDACSB11415
.LLSDACSB11415:
	.uleb128 .LEHB46-.LFB11415
	.uleb128 .LEHE46-.LEHB46
	.uleb128 .L254-.LFB11415
	.uleb128 0
	.uleb128 .LEHB47-.LFB11415
	.uleb128 .LEHE47-.LEHB47
	.uleb128 0
	.uleb128 0
.LLSDACSE11415:
	.section	.text$_ZNSt6vectorIySaIyEEC1ESt16initializer_listIyERKS0_,"x"
	.linkonce discard
	.seh_endproc
	.section	.text$_ZNSt6vectorIS_IS_IfSaIfEESaIS1_EESaIS3_EED1Ev,"x"
	.linkonce discard
	.align 2
	.globl	_ZNSt6vectorIS_IS_IfSaIfEESaIS1_EESaIS3_EED1Ev
	.def	_ZNSt6vectorIS_IS_IfSaIfEESaIS1_EESaIS3_EED1Ev;	.scl	2;	.type	32;	.endef
	.seh_proc	_ZNSt6vectorIS_IS_IfSaIfEESaIS1_EESaIS3_EED1Ev
_ZNSt6vectorIS_IS_IfSaIfEESaIS1_EESaIS3_EED1Ev:
.LFB11418:
	pushq	%rbp
	.seh_pushreg	%rbp
	movq	%rsp, %rbp
	.seh_setframe	%rbp, 0
	subq	$64, %rsp
	.seh_stackalloc	64
	.seh_endprologue
	movq	%rcx, 16(%rbp)
	movq	16(%rbp), %rax
	movq	%rax, %rcx
	call	_ZNSt12_Vector_baseISt6vectorIS0_IfSaIfEESaIS2_EESaIS4_EE19_M_get_Tp_allocatorEv
	movq	16(%rbp), %rdx
	movq	8(%rdx), %rdx
	movq	16(%rbp), %rcx
	movq	(%rcx), %rcx
	movq	%rcx, -8(%rbp)
	movq	%rdx, -16(%rbp)
	movq	%rax, -24(%rbp)
	movq	-16(%rbp), %rdx
	movq	-8(%rbp), %rax
	movq	%rax, %rcx
	call	_ZSt8_DestroyIPSt6vectorIS0_IfSaIfEESaIS2_EEEvT_S6_
	nop
	movq	16(%rbp), %rax
	movq	%rax, %rcx
	call	_ZNSt12_Vector_baseISt6vectorIS0_IfSaIfEESaIS2_EESaIS4_EED2Ev
	nop
	addq	$64, %rsp
	popq	%rbp
	ret
	.seh_handler	__gxx_personality_seh0, @unwind, @except
	.seh_handlerdata
.LLSDA11418:
	.byte	0xff
	.byte	0xff
	.byte	0x1
	.uleb128 .LLSDACSE11418-.LLSDACSB11418
.LLSDACSB11418:
.LLSDACSE11418:
	.section	.text$_ZNSt6vectorIS_IS_IfSaIfEESaIS1_EESaIS3_EED1Ev,"x"
	.linkonce discard
	.seh_endproc
	.section	.text$_ZNSt6vectorIS_IfSaIfEESaIS1_EED1Ev,"x"
	.linkonce discard
	.align 2
	.globl	_ZNSt6vectorIS_IfSaIfEESaIS1_EED1Ev
	.def	_ZNSt6vectorIS_IfSaIfEESaIS1_EED1Ev;	.scl	2;	.type	32;	.endef
	.seh_proc	_ZNSt6vectorIS_IfSaIfEESaIS1_EED1Ev
_ZNSt6vectorIS_IfSaIfEESaIS1_EED1Ev:
.LFB11421:
	pushq	%rbp
	.seh_pushreg	%rbp
	movq	%rsp, %rbp
	.seh_setframe	%rbp, 0
	subq	$64, %rsp
	.seh_stackalloc	64
	.seh_endprologue
	movq	%rcx, 16(%rbp)
	movq	16(%rbp), %rax
	movq	%rax, %rcx
	call	_ZNSt12_Vector_baseISt6vectorIfSaIfEESaIS2_EE19_M_get_Tp_allocatorEv
	movq	16(%rbp), %rdx
	movq	8(%rdx), %rdx
	movq	16(%rbp), %rcx
	movq	(%rcx), %rcx
	movq	%rcx, -8(%rbp)
	movq	%rdx, -16(%rbp)
	movq	%rax, -24(%rbp)
	movq	-16(%rbp), %rdx
	movq	-8(%rbp), %rax
	movq	%rax, %rcx
	call	_ZSt8_DestroyIPSt6vectorIfSaIfEEEvT_S4_
	nop
	movq	16(%rbp), %rax
	movq	%rax, %rcx
	call	_ZNSt12_Vector_baseISt6vectorIfSaIfEESaIS2_EED2Ev
	nop
	addq	$64, %rsp
	popq	%rbp
	ret
	.seh_handler	__gxx_personality_seh0, @unwind, @except
	.seh_handlerdata
.LLSDA11421:
	.byte	0xff
	.byte	0xff
	.byte	0x1
	.uleb128 .LLSDACSE11421-.LLSDACSB11421
.LLSDACSB11421:
.LLSDACSE11421:
	.section	.text$_ZNSt6vectorIS_IfSaIfEESaIS1_EED1Ev,"x"
	.linkonce discard
	.seh_endproc
	.section	.text$_ZNSt6vectorIySaIyEEC1ERKS1_,"x"
	.linkonce discard
	.align 2
	.globl	_ZNSt6vectorIySaIyEEC1ERKS1_
	.def	_ZNSt6vectorIySaIyEEC1ERKS1_;	.scl	2;	.type	32;	.endef
	.seh_proc	_ZNSt6vectorIySaIyEEC1ERKS1_
_ZNSt6vectorIySaIyEEC1ERKS1_:
.LFB11424:
	pushq	%rbp
	.seh_pushreg	%rbp
	pushq	%rdi
	.seh_pushreg	%rdi
	pushq	%rsi
	.seh_pushreg	%rsi
	pushq	%rbx
	.seh_pushreg	%rbx
	subq	$104, %rsp
	.seh_stackalloc	104
	leaq	96(%rsp), %rbp
	.seh_setframe	%rbp, 96
	.seh_endprologue
	movq	%rcx, 48(%rbp)
	movq	%rdx, 56(%rbp)
	movq	48(%rbp), %rbx
	movq	56(%rbp), %rax
	movq	%rax, %rcx
	call	_ZNKSt12_Vector_baseIySaIyEE19_M_get_Tp_allocatorEv
	movq	%rax, -8(%rbp)
	leaq	-49(%rbp), %rax
	movq	-8(%rbp), %rdx
	movq	%rdx, -16(%rbp)
	movq	%rax, -24(%rbp)
	movq	-16(%rbp), %rax
	movq	%rax, -32(%rbp)
	movq	-24(%rbp), %rax
	movq	%rax, -40(%rbp)
	movq	-32(%rbp), %rax
	movq	%rax, -48(%rbp)
	nop
	nop
	nop
	nop
	movq	56(%rbp), %rax
	movq	%rax, %rcx
	call	_ZNKSt6vectorIySaIyEE4sizeEv
	leaq	-49(%rbp), %rdx
	movq	%rdx, %r8
	movq	%rax, %rdx
	movq	%rbx, %rcx
.LEHB48:
	call	_ZNSt12_Vector_baseIySaIyEEC2EyRKS0_
.LEHE48:
	leaq	-49(%rbp), %rax
	movq	%rax, %rcx
	call	_ZNSt15__new_allocatorIyED2Ev
	nop
	movq	48(%rbp), %rax
	movq	%rax, %rcx
	call	_ZNSt12_Vector_baseIySaIyEE19_M_get_Tp_allocatorEv
	movq	%rax, %rsi
	movq	48(%rbp), %rax
	movq	(%rax), %rdi
	movq	56(%rbp), %rax
	movq	%rax, %rcx
	call	_ZNKSt6vectorIySaIyEE3endEv
	movq	%rax, %rbx
	movq	56(%rbp), %rax
	movq	%rax, %rcx
	call	_ZNKSt6vectorIySaIyEE5beginEv
	movq	%rsi, %r9
	movq	%rdi, %r8
	movq	%rbx, %rdx
	movq	%rax, %rcx
.LEHB49:
	call	_ZSt22__uninitialized_copy_aIN9__gnu_cxx17__normal_iteratorIPKySt6vectorIySaIyEEEES7_PyyET1_T_T0_S9_RSaIT2_E
.LEHE49:
	movq	48(%rbp), %rdx
	movq	%rax, 8(%rdx)
	jmp	.L265
.L263:
	movq	%rax, %rbx
	leaq	-49(%rbp), %rax
	movq	%rax, %rcx
	call	_ZNSt15__new_allocatorIyED2Ev
	nop
	movq	%rbx, %rax
	movq	%rax, %rcx
.LEHB50:
	call	_Unwind_Resume
.L264:
	movq	%rax, %rbx
	movq	48(%rbp), %rax
	movq	%rax, %rcx
	call	_ZNSt12_Vector_baseIySaIyEED2Ev
	movq	%rbx, %rax
	movq	%rax, %rcx
	call	_Unwind_Resume
	nop
.LEHE50:
.L265:
	addq	$104, %rsp
	popq	%rbx
	popq	%rsi
	popq	%rdi
	popq	%rbp
	ret
	.seh_handler	__gxx_personality_seh0, @unwind, @except
	.seh_handlerdata
.LLSDA11424:
	.byte	0xff
	.byte	0xff
	.byte	0x1
	.uleb128 .LLSDACSE11424-.LLSDACSB11424
.LLSDACSB11424:
	.uleb128 .LEHB48-.LFB11424
	.uleb128 .LEHE48-.LEHB48
	.uleb128 .L263-.LFB11424
	.uleb128 0
	.uleb128 .LEHB49-.LFB11424
	.uleb128 .LEHE49-.LEHB49
	.uleb128 .L264-.LFB11424
	.uleb128 0
	.uleb128 .LEHB50-.LFB11424
	.uleb128 .LEHE50-.LEHB50
	.uleb128 0
	.uleb128 0
.LLSDACSE11424:
	.section	.text$_ZNSt6vectorIySaIyEEC1ERKS1_,"x"
	.linkonce discard
	.seh_endproc
	.section	.text$_ZNSt12_Vector_baseISt6vectorIS0_IfSaIfEESaIS2_EESaIS4_EE12_Vector_implC1Ev,"x"
	.linkonce discard
	.align 2
	.globl	_ZNSt12_Vector_baseISt6vectorIS0_IfSaIfEESaIS2_EESaIS4_EE12_Vector_implC1Ev
	.def	_ZNSt12_Vector_baseISt6vectorIS0_IfSaIfEESaIS2_EESaIS4_EE12_Vector_implC1Ev;	.scl	2;	.type	32;	.endef
	.seh_proc	_ZNSt12_Vector_baseISt6vectorIS0_IfSaIfEESaIS2_EESaIS4_EE12_Vector_implC1Ev
_ZNSt12_Vector_baseISt6vectorIS0_IfSaIfEESaIS2_EESaIS4_EE12_Vector_implC1Ev:
.LFB11427:
	pushq	%rbp
	.seh_pushreg	%rbp
	movq	%rsp, %rbp
	.seh_setframe	%rbp, 0
	subq	$48, %rsp
	.seh_stackalloc	48
	.seh_endprologue
	movq	%rcx, 16(%rbp)
	movq	16(%rbp), %rax
	movq	%rax, -8(%rbp)
	movq	-8(%rbp), %rax
	movq	%rax, -16(%rbp)
	nop
	nop
	movq	16(%rbp), %rax
	movq	%rax, %rcx
	call	_ZNSt12_Vector_baseISt6vectorIS0_IfSaIfEESaIS2_EESaIS4_EE17_Vector_impl_dataC2Ev
	nop
	addq	$48, %rsp
	popq	%rbp
	ret
	.seh_endproc
	.section	.text$_ZNSt12_Vector_baseISt6vectorIS0_IfSaIfEESaIS2_EESaIS4_EED2Ev,"x"
	.linkonce discard
	.align 2
	.globl	_ZNSt12_Vector_baseISt6vectorIS0_IfSaIfEESaIS2_EESaIS4_EED2Ev
	.def	_ZNSt12_Vector_baseISt6vectorIS0_IfSaIfEESaIS2_EESaIS4_EED2Ev;	.scl	2;	.type	32;	.endef
	.seh_proc	_ZNSt12_Vector_baseISt6vectorIS0_IfSaIfEESaIS2_EESaIS4_EED2Ev
_ZNSt12_Vector_baseISt6vectorIS0_IfSaIfEESaIS2_EESaIS4_EED2Ev:
.LFB11432:
	pushq	%rbp
	.seh_pushreg	%rbp
	movq	%rsp, %rbp
	.seh_setframe	%rbp, 0
	subq	$32, %rsp
	.seh_stackalloc	32
	.seh_endprologue
	movq	%rcx, 16(%rbp)
	movq	16(%rbp), %rax
	movq	16(%rax), %rdx
	movq	16(%rbp), %rax
	movq	(%rax), %rax
	subq	%rax, %rdx
	sarq	$3, %rdx
	movabsq	$-6148914691236517205, %rax
	imulq	%rdx, %rax
	movq	%rax, %rcx
	movq	16(%rbp), %rax
	movq	(%rax), %rdx
	movq	16(%rbp), %rax
	movq	%rcx, %r8
	movq	%rax, %rcx
	call	_ZNSt12_Vector_baseISt6vectorIS0_IfSaIfEESaIS2_EESaIS4_EE13_M_deallocateEPS4_y
	movq	16(%rbp), %rax
	movq	%rax, %rcx
	call	_ZNSt12_Vector_baseISt6vectorIS0_IfSaIfEESaIS2_EESaIS4_EE12_Vector_implD1Ev
	nop
	addq	$32, %rsp
	popq	%rbp
	ret
	.seh_handler	__gxx_personality_seh0, @unwind, @except
	.seh_handlerdata
.LLSDA11432:
	.byte	0xff
	.byte	0xff
	.byte	0x1
	.uleb128 .LLSDACSE11432-.LLSDACSB11432
.LLSDACSB11432:
.LLSDACSE11432:
	.section	.text$_ZNSt12_Vector_baseISt6vectorIS0_IfSaIfEESaIS2_EESaIS4_EED2Ev,"x"
	.linkonce discard
	.seh_endproc
	.section	.text$_ZNSt12_Vector_baseISt6vectorIfSaIfEESaIS2_EE12_Vector_implC1Ev,"x"
	.linkonce discard
	.align 2
	.globl	_ZNSt12_Vector_baseISt6vectorIfSaIfEESaIS2_EE12_Vector_implC1Ev
	.def	_ZNSt12_Vector_baseISt6vectorIfSaIfEESaIS2_EE12_Vector_implC1Ev;	.scl	2;	.type	32;	.endef
	.seh_proc	_ZNSt12_Vector_baseISt6vectorIfSaIfEESaIS2_EE12_Vector_implC1Ev
_ZNSt12_Vector_baseISt6vectorIfSaIfEESaIS2_EE12_Vector_implC1Ev:
.LFB11436:
	pushq	%rbp
	.seh_pushreg	%rbp
	movq	%rsp, %rbp
	.seh_setframe	%rbp, 0
	subq	$48, %rsp
	.seh_stackalloc	48
	.seh_endprologue
	movq	%rcx, 16(%rbp)
	movq	16(%rbp), %rax
	movq	%rax, -8(%rbp)
	movq	-8(%rbp), %rax
	movq	%rax, -16(%rbp)
	nop
	nop
	movq	16(%rbp), %rax
	movq	%rax, %rcx
	call	_ZNSt12_Vector_baseISt6vectorIfSaIfEESaIS2_EE17_Vector_impl_dataC2Ev
	nop
	addq	$48, %rsp
	popq	%rbp
	ret
	.seh_endproc
	.section	.text$_ZNSt12_Vector_baseISt6vectorIfSaIfEESaIS2_EED2Ev,"x"
	.linkonce discard
	.align 2
	.globl	_ZNSt12_Vector_baseISt6vectorIfSaIfEESaIS2_EED2Ev
	.def	_ZNSt12_Vector_baseISt6vectorIfSaIfEESaIS2_EED2Ev;	.scl	2;	.type	32;	.endef
	.seh_proc	_ZNSt12_Vector_baseISt6vectorIfSaIfEESaIS2_EED2Ev
_ZNSt12_Vector_baseISt6vectorIfSaIfEESaIS2_EED2Ev:
.LFB11441:
	pushq	%rbp
	.seh_pushreg	%rbp
	movq	%rsp, %rbp
	.seh_setframe	%rbp, 0
	subq	$32, %rsp
	.seh_stackalloc	32
	.seh_endprologue
	movq	%rcx, 16(%rbp)
	movq	16(%rbp), %rax
	movq	16(%rax), %rdx
	movq	16(%rbp), %rax
	movq	(%rax), %rax
	subq	%rax, %rdx
	sarq	$3, %rdx
	movabsq	$-6148914691236517205, %rax
	imulq	%rdx, %rax
	movq	%rax, %rcx
	movq	16(%rbp), %rax
	movq	(%rax), %rdx
	movq	16(%rbp), %rax
	movq	%rcx, %r8
	movq	%rax, %rcx
	call	_ZNSt12_Vector_baseISt6vectorIfSaIfEESaIS2_EE13_M_deallocateEPS2_y
	movq	16(%rbp), %rax
	movq	%rax, %rcx
	call	_ZNSt12_Vector_baseISt6vectorIfSaIfEESaIS2_EE12_Vector_implD1Ev
	nop
	addq	$32, %rsp
	popq	%rbp
	ret
	.seh_handler	__gxx_personality_seh0, @unwind, @except
	.seh_handlerdata
.LLSDA11441:
	.byte	0xff
	.byte	0xff
	.byte	0x1
	.uleb128 .LLSDACSE11441-.LLSDACSB11441
.LLSDACSB11441:
.LLSDACSE11441:
	.section	.text$_ZNSt12_Vector_baseISt6vectorIfSaIfEESaIS2_EED2Ev,"x"
	.linkonce discard
	.seh_endproc
	.section	.text$_ZNSt23mersenne_twister_engineIjLy32ELy624ELy397ELy31ELj2567483615ELy11ELj4294967295ELy7ELj2636928640ELy15ELj4022730752ELy18ELj1812433253EEC1Ej,"x"
	.linkonce discard
	.align 2
	.globl	_ZNSt23mersenne_twister_engineIjLy32ELy624ELy397ELy31ELj2567483615ELy11ELj4294967295ELy7ELj2636928640ELy15ELj4022730752ELy18ELj1812433253EEC1Ej
	.def	_ZNSt23mersenne_twister_engineIjLy32ELy624ELy397ELy31ELj2567483615ELy11ELj4294967295ELy7ELj2636928640ELy15ELj4022730752ELy18ELj1812433253EEC1Ej;	.scl	2;	.type	32;	.endef
	.seh_proc	_ZNSt23mersenne_twister_engineIjLy32ELy624ELy397ELy31ELj2567483615ELy11ELj4294967295ELy7ELj2636928640ELy15ELj4022730752ELy18ELj1812433253EEC1Ej
_ZNSt23mersenne_twister_engineIjLy32ELy624ELy397ELy31ELj2567483615ELy11ELj4294967295ELy7ELj2636928640ELy15ELj4022730752ELy18ELj1812433253EEC1Ej:
.LFB11445:
	pushq	%rbp
	.seh_pushreg	%rbp
	movq	%rsp, %rbp
	.seh_setframe	%rbp, 0
	subq	$32, %rsp
	.seh_stackalloc	32
	.seh_endprologue
	movq	%rcx, 16(%rbp)
	movl	%edx, 24(%rbp)
	movl	24(%rbp), %edx
	movq	16(%rbp), %rax
	movq	%rax, %rcx
	call	_ZNSt23mersenne_twister_engineIjLy32ELy624ELy397ELy31ELj2567483615ELy11ELj4294967295ELy7ELj2636928640ELy15ELj4022730752ELy18ELj1812433253EE4seedEj
	nop
	addq	$32, %rsp
	popq	%rbp
	ret
	.seh_endproc
	.section	.text$_ZNKSt6vectorIySaIyEE4sizeEv,"x"
	.linkonce discard
	.align 2
	.globl	_ZNKSt6vectorIySaIyEE4sizeEv
	.def	_ZNKSt6vectorIySaIyEE4sizeEv;	.scl	2;	.type	32;	.endef
	.seh_proc	_ZNKSt6vectorIySaIyEE4sizeEv
_ZNKSt6vectorIySaIyEE4sizeEv:
.LFB11446:
	pushq	%rbp
	.seh_pushreg	%rbp
	movq	%rsp, %rbp
	.seh_setframe	%rbp, 0
	subq	$16, %rsp
	.seh_stackalloc	16
	.seh_endprologue
	movq	%rcx, 16(%rbp)
	movq	16(%rbp), %rax
	movq	8(%rax), %rdx
	movq	16(%rbp), %rax
	movq	(%rax), %rax
	subq	%rax, %rdx
	movq	%rdx, %rax
	sarq	$3, %rax
	movq	%rax, -8(%rbp)
	cmpq	$0, -8(%rbp)
	movq	-8(%rbp), %rax
	addq	$16, %rsp
	popq	%rbp
	ret
	.seh_endproc
	.section	.text$_ZNSt6vectorIySaIyEE5beginEv,"x"
	.linkonce discard
	.align 2
	.globl	_ZNSt6vectorIySaIyEE5beginEv
	.def	_ZNSt6vectorIySaIyEE5beginEv;	.scl	2;	.type	32;	.endef
	.seh_proc	_ZNSt6vectorIySaIyEE5beginEv
_ZNSt6vectorIySaIyEE5beginEv:
.LFB11447:
	pushq	%rbp
	.seh_pushreg	%rbp
	movq	%rsp, %rbp
	.seh_setframe	%rbp, 0
	subq	$16, %rsp
	.seh_stackalloc	16
	.seh_endprologue
	movq	%rcx, 16(%rbp)
	movq	16(%rbp), %rax
	movq	%rax, -8(%rbp)
	movq	-8(%rbp), %rax
	movq	(%rax), %rax
	movq	%rax, -16(%rbp)
	nop
	movq	-16(%rbp), %rax
	addq	$16, %rsp
	popq	%rbp
	ret
	.seh_endproc
	.section	.text$_ZNSt6vectorIySaIyEE3endEv,"x"
	.linkonce discard
	.align 2
	.globl	_ZNSt6vectorIySaIyEE3endEv
	.def	_ZNSt6vectorIySaIyEE3endEv;	.scl	2;	.type	32;	.endef
	.seh_proc	_ZNSt6vectorIySaIyEE3endEv
_ZNSt6vectorIySaIyEE3endEv:
.LFB11448:
	pushq	%rbp
	.seh_pushreg	%rbp
	movq	%rsp, %rbp
	.seh_setframe	%rbp, 0
	subq	$16, %rsp
	.seh_stackalloc	16
	.seh_endprologue
	movq	%rcx, 16(%rbp)
	movq	16(%rbp), %rax
	addq	$8, %rax
	movq	%rax, -8(%rbp)
	movq	-8(%rbp), %rax
	movq	(%rax), %rax
	movq	%rax, -16(%rbp)
	nop
	movq	-16(%rbp), %rax
	addq	$16, %rsp
	popq	%rbp
	ret
	.seh_endproc
	.section	.text$_ZNKSt6vectorIySaIyEE5beginEv,"x"
	.linkonce discard
	.align 2
	.globl	_ZNKSt6vectorIySaIyEE5beginEv
	.def	_ZNKSt6vectorIySaIyEE5beginEv;	.scl	2;	.type	32;	.endef
	.seh_proc	_ZNKSt6vectorIySaIyEE5beginEv
_ZNKSt6vectorIySaIyEE5beginEv:
.LFB11460:
	pushq	%rbp
	.seh_pushreg	%rbp
	movq	%rsp, %rbp
	.seh_setframe	%rbp, 0
	subq	$16, %rsp
	.seh_stackalloc	16
	.seh_endprologue
	movq	%rcx, 16(%rbp)
	movq	16(%rbp), %rax
	movq	%rax, -8(%rbp)
	movq	-8(%rbp), %rax
	movq	(%rax), %rax
	movq	%rax, -16(%rbp)
	nop
	movq	-16(%rbp), %rax
	addq	$16, %rsp
	popq	%rbp
	ret
	.seh_endproc
	.section	.text$_ZNKSt6vectorIySaIyEE3endEv,"x"
	.linkonce discard
	.align 2
	.globl	_ZNKSt6vectorIySaIyEE3endEv
	.def	_ZNKSt6vectorIySaIyEE3endEv;	.scl	2;	.type	32;	.endef
	.seh_proc	_ZNKSt6vectorIySaIyEE3endEv
_ZNKSt6vectorIySaIyEE3endEv:
.LFB11461:
	pushq	%rbp
	.seh_pushreg	%rbp
	movq	%rsp, %rbp
	.seh_setframe	%rbp, 0
	subq	$16, %rsp
	.seh_stackalloc	16
	.seh_endprologue
	movq	%rcx, 16(%rbp)
	movq	16(%rbp), %rax
	addq	$8, %rax
	movq	%rax, -8(%rbp)
	movq	-8(%rbp), %rax
	movq	(%rax), %rax
	movq	%rax, -16(%rbp)
	nop
	movq	-16(%rbp), %rax
	addq	$16, %rsp
	popq	%rbp
	ret
	.seh_endproc
	.section	.text$_ZNSt6vectorIySaIyEEC1EyRKS0_,"x"
	.linkonce discard
	.align 2
	.globl	_ZNSt6vectorIySaIyEEC1EyRKS0_
	.def	_ZNSt6vectorIySaIyEEC1EyRKS0_;	.scl	2;	.type	32;	.endef
	.seh_proc	_ZNSt6vectorIySaIyEEC1EyRKS0_
_ZNSt6vectorIySaIyEEC1EyRKS0_:
.LFB11481:
	pushq	%rbp
	.seh_pushreg	%rbp
	pushq	%rbx
	.seh_pushreg	%rbx
	subq	$40, %rsp
	.seh_stackalloc	40
	leaq	32(%rsp), %rbp
	.seh_setframe	%rbp, 32
	.seh_endprologue
	movq	%rcx, 32(%rbp)
	movq	%rdx, 40(%rbp)
	movq	%r8, 48(%rbp)
	movq	32(%rbp), %rbx
	movq	48(%rbp), %rdx
	movq	40(%rbp), %rax
	movq	%rax, %rcx
.LEHB51:
	call	_ZNSt6vectorIySaIyEE17_S_check_init_lenEyRKS0_
	movq	48(%rbp), %rdx
	movq	%rdx, %r8
	movq	%rax, %rdx
	movq	%rbx, %rcx
	call	_ZNSt12_Vector_baseIySaIyEEC2EyRKS0_
.LEHE51:
	movq	40(%rbp), %rdx
	movq	32(%rbp), %rax
	movq	%rax, %rcx
.LEHB52:
	call	_ZNSt6vectorIySaIyEE21_M_default_initializeEy
.LEHE52:
	jmp	.L285
.L284:
	movq	%rax, %rbx
	movq	32(%rbp), %rax
	movq	%rax, %rcx
	call	_ZNSt12_Vector_baseIySaIyEED2Ev
	movq	%rbx, %rax
	movq	%rax, %rcx
.LEHB53:
	call	_Unwind_Resume
	nop
.LEHE53:
.L285:
	addq	$40, %rsp
	popq	%rbx
	popq	%rbp
	ret
	.seh_handler	__gxx_personality_seh0, @unwind, @except
	.seh_handlerdata
.LLSDA11481:
	.byte	0xff
	.byte	0xff
	.byte	0x1
	.uleb128 .LLSDACSE11481-.LLSDACSB11481
.LLSDACSB11481:
	.uleb128 .LEHB51-.LFB11481
	.uleb128 .LEHE51-.LEHB51
	.uleb128 0
	.uleb128 0
	.uleb128 .LEHB52-.LFB11481
	.uleb128 .LEHE52-.LEHB52
	.uleb128 .L284-.LFB11481
	.uleb128 0
	.uleb128 .LEHB53-.LFB11481
	.uleb128 .LEHE53-.LEHB53
	.uleb128 0
	.uleb128 0
.LLSDACSE11481:
	.section	.text$_ZNSt6vectorIySaIyEEC1EyRKS0_,"x"
	.linkonce discard
	.seh_endproc
	.section .rdata,"dr"
.LC14:
	.ascii "__n < this->size()\0"
	.align 8
.LC15:
	.ascii "std::vector<_Tp, _Alloc>::reference std::vector<_Tp, _Alloc>::operator[](size_type) [with _Tp = long long unsigned int; _Alloc = std::allocator<long long unsigned int>; reference = long long unsigned int&; size_type = long long unsigned int]\0"
	.align 8
.LC16:
	.ascii "C:/msys64/ucrt64/include/c++/15.2.0/bits/stl_vector.h\0"
	.section	.text$_ZNSt6vectorIySaIyEEixEy,"x"
	.linkonce discard
	.align 2
	.globl	_ZNSt6vectorIySaIyEEixEy
	.def	_ZNSt6vectorIySaIyEEixEy;	.scl	2;	.type	32;	.endef
	.seh_proc	_ZNSt6vectorIySaIyEEixEy
_ZNSt6vectorIySaIyEEixEy:
.LFB11482:
	pushq	%rbp
	.seh_pushreg	%rbp
	movq	%rsp, %rbp
	.seh_setframe	%rbp, 0
	subq	$32, %rsp
	.seh_stackalloc	32
	.seh_endprologue
	movq	%rcx, 16(%rbp)
	movq	%rdx, 24(%rbp)
	movq	16(%rbp), %rax
	movq	%rax, %rcx
	call	_ZNKSt6vectorIySaIyEE4sizeEv
	cmpq	%rax, 24(%rbp)
	setnb	%al
	movzbl	%al, %eax
	testl	%eax, %eax
	setne	%al
	testb	%al, %al
	je	.L287
	leaq	.LC14(%rip), %rcx
	leaq	.LC15(%rip), %rdx
	leaq	.LC16(%rip), %rax
	movq	%rcx, %r9
	movq	%rdx, %r8
	movl	$1263, %edx
	movq	%rax, %rcx
	call	_ZSt21__glibcxx_assert_failPKciS0_S0_
.L287:
	movq	16(%rbp), %rax
	movq	(%rax), %rax
	movq	24(%rbp), %rdx
	salq	$3, %rdx
	addq	%rdx, %rax
	addq	$32, %rsp
	popq	%rbp
	ret
	.seh_endproc
	.section	.text$_ZNSt6vectorIySaIyEEaSERKS1_,"x"
	.linkonce discard
	.align 2
	.globl	_ZNSt6vectorIySaIyEEaSERKS1_
	.def	_ZNSt6vectorIySaIyEEaSERKS1_;	.scl	2;	.type	32;	.endef
	.seh_proc	_ZNSt6vectorIySaIyEEaSERKS1_
_ZNSt6vectorIySaIyEEaSERKS1_:
.LFB11483:
	pushq	%rbp
	.seh_pushreg	%rbp
	pushq	%r12
	.seh_pushreg	%r12
	pushq	%rdi
	.seh_pushreg	%rdi
	pushq	%rsi
	.seh_pushreg	%rsi
	pushq	%rbx
	.seh_pushreg	%rbx
	subq	$144, %rsp
	.seh_stackalloc	144
	leaq	144(%rsp), %rbp
	.seh_setframe	%rbp, 144
	.seh_endprologue
	movq	%rcx, 48(%rbp)
	movq	%rdx, 56(%rbp)
	movq	56(%rbp), %rax
	movq	%rax, -24(%rbp)
	movq	-24(%rbp), %rax
	cmpq	%rax, 48(%rbp)
	setne	%al
	testb	%al, %al
	je	.L291
	movl	$0, %eax
	testb	%al, %al
	je	.L293
	movl	$1, %eax
	xorl	$1, %eax
	testb	%al, %al
	je	.L295
	movq	56(%rbp), %rax
	movq	%rax, %rcx
	call	_ZNKSt12_Vector_baseIySaIyEE19_M_get_Tp_allocatorEv
	movq	%rax, %rbx
	movq	48(%rbp), %rax
	movq	%rax, %rcx
	call	_ZNSt12_Vector_baseIySaIyEE19_M_get_Tp_allocatorEv
	movq	%rax, -32(%rbp)
	movq	%rbx, -40(%rbp)
	movl	$0, %eax
	testb	%al, %al
	je	.L295
	movl	$1, %eax
	jmp	.L297
.L295:
	movl	$0, %eax
.L297:
	testb	%al, %al
	je	.L298
	movq	48(%rbp), %rax
	movq	%rax, %rcx
	call	_ZNSt6vectorIySaIyEE5clearEv
	movq	48(%rbp), %rax
	movq	48(%rbp), %rdx
	movq	16(%rdx), %rcx
	movq	48(%rbp), %rdx
	movq	(%rdx), %rdx
	subq	%rdx, %rcx
	sarq	$3, %rcx
	movq	%rcx, %rdx
	movq	%rdx, %rcx
	movq	48(%rbp), %rdx
	movq	(%rdx), %rdx
	movq	%rcx, %r8
	movq	%rax, %rcx
	call	_ZNSt12_Vector_baseIySaIyEE13_M_deallocateEPyy
	movq	48(%rbp), %rax
	movq	$0, (%rax)
	movq	48(%rbp), %rax
	movq	$0, 8(%rax)
	movq	48(%rbp), %rax
	movq	$0, 16(%rax)
.L298:
	movq	56(%rbp), %rax
	movq	%rax, %rcx
	call	_ZNKSt12_Vector_baseIySaIyEE19_M_get_Tp_allocatorEv
	movq	%rax, %rbx
	movq	48(%rbp), %rax
	movq	%rax, %rcx
	call	_ZNSt12_Vector_baseIySaIyEE19_M_get_Tp_allocatorEv
	movq	%rax, -48(%rbp)
	movq	%rbx, -56(%rbp)
	nop
.L293:
	movq	56(%rbp), %rax
	movq	%rax, %rcx
	call	_ZNKSt6vectorIySaIyEE4sizeEv
	movq	%rax, -8(%rbp)
	movq	48(%rbp), %rax
	movq	%rax, %rcx
	call	_ZNKSt6vectorIySaIyEE8capacityEv
	cmpq	-8(%rbp), %rax
	setb	%al
	testb	%al, %al
	je	.L299
	movq	56(%rbp), %rax
	movq	%rax, %rcx
	call	_ZNKSt6vectorIySaIyEE3endEv
	movq	%rax, %rbx
	movq	56(%rbp), %rax
	movq	%rax, %rcx
	call	_ZNKSt6vectorIySaIyEE5beginEv
	movq	%rax, %rcx
	movq	-8(%rbp), %rdx
	movq	48(%rbp), %rax
	movq	%rbx, %r9
	movq	%rcx, %r8
	movq	%rax, %rcx
	call	_ZNSt6vectorIySaIyEE20_M_allocate_and_copyIN9__gnu_cxx17__normal_iteratorIPKyS1_EEEEPyyT_S9_
	movq	%rax, -16(%rbp)
	movq	48(%rbp), %rax
	movq	%rax, %rcx
	call	_ZNSt12_Vector_baseIySaIyEE19_M_get_Tp_allocatorEv
	movq	48(%rbp), %rdx
	movq	8(%rdx), %rdx
	movq	48(%rbp), %rcx
	movq	(%rcx), %rcx
	movq	%rcx, -64(%rbp)
	movq	%rdx, -72(%rbp)
	movq	%rax, -80(%rbp)
	movq	-72(%rbp), %rdx
	movq	-64(%rbp), %rax
	movq	%rax, %rcx
	call	_ZSt8_DestroyIPyEvT_S1_
	nop
	movq	48(%rbp), %rax
	movq	48(%rbp), %rdx
	movq	16(%rdx), %rcx
	movq	48(%rbp), %rdx
	movq	(%rdx), %rdx
	subq	%rdx, %rcx
	sarq	$3, %rcx
	movq	%rcx, %rdx
	movq	%rdx, %rcx
	movq	48(%rbp), %rdx
	movq	(%rdx), %rdx
	movq	%rcx, %r8
	movq	%rax, %rcx
	call	_ZNSt12_Vector_baseIySaIyEE13_M_deallocateEPyy
	movq	48(%rbp), %rax
	movq	-16(%rbp), %rdx
	movq	%rdx, (%rax)
	movq	48(%rbp), %rax
	movq	(%rax), %rax
	movq	-8(%rbp), %rdx
	salq	$3, %rdx
	addq	%rax, %rdx
	movq	48(%rbp), %rax
	movq	%rdx, 16(%rax)
	jmp	.L300
.L299:
	movq	48(%rbp), %rax
	movq	%rax, %rcx
	call	_ZNKSt6vectorIySaIyEE4sizeEv
	cmpq	-8(%rbp), %rax
	setnb	%al
	testb	%al, %al
	je	.L301
	movq	48(%rbp), %rax
	movq	%rax, %rcx
	call	_ZNSt12_Vector_baseIySaIyEE19_M_get_Tp_allocatorEv
	movq	%rax, %rbx
	movq	48(%rbp), %rax
	movq	%rax, %rcx
	call	_ZNSt6vectorIySaIyEE3endEv
	movq	%rax, %rsi
	movq	48(%rbp), %rax
	movq	%rax, %rcx
	call	_ZNSt6vectorIySaIyEE5beginEv
	movq	%rax, %r12
	movq	56(%rbp), %rax
	movq	%rax, %rcx
	call	_ZNKSt6vectorIySaIyEE3endEv
	movq	%rax, %rdi
	movq	56(%rbp), %rax
	movq	%rax, %rcx
	call	_ZNKSt6vectorIySaIyEE5beginEv
	movq	%r12, %r8
	movq	%rdi, %rdx
	movq	%rax, %rcx
	call	_ZSt4copyIN9__gnu_cxx17__normal_iteratorIPKySt6vectorIySaIyEEEENS1_IPyS6_EEET0_T_SB_SA_
	movq	%rax, -96(%rbp)
	movq	%rsi, -104(%rbp)
	movq	%rbx, -88(%rbp)
	movq	-104(%rbp), %rdx
	movq	-96(%rbp), %rax
	movq	%rax, %rcx
	call	_ZSt8_DestroyIN9__gnu_cxx17__normal_iteratorIPySt6vectorIySaIyEEEEEvT_S7_
	jmp	.L300
.L301:
	movq	48(%rbp), %rax
	movq	(%rax), %rsi
	movq	56(%rbp), %rax
	movq	(%rax), %rbx
	movq	48(%rbp), %rax
	movq	%rax, %rcx
	call	_ZNKSt6vectorIySaIyEE4sizeEv
	salq	$3, %rax
	leaq	(%rbx,%rax), %rdx
	movq	56(%rbp), %rax
	movq	(%rax), %rax
	movq	%rsi, %r8
	movq	%rax, %rcx
	call	_ZSt4copyIPyS0_ET0_T_S2_S1_
	movq	48(%rbp), %rax
	movq	%rax, %rcx
	call	_ZNSt12_Vector_baseIySaIyEE19_M_get_Tp_allocatorEv
	movq	%rax, %rsi
	movq	48(%rbp), %rax
	movq	8(%rax), %r12
	movq	56(%rbp), %rax
	movq	8(%rax), %rbx
	movq	56(%rbp), %rax
	movq	(%rax), %rdi
	movq	48(%rbp), %rax
	movq	%rax, %rcx
	call	_ZNKSt6vectorIySaIyEE4sizeEv
	salq	$3, %rax
	addq	%rdi, %rax
	movq	%rsi, %r9
	movq	%r12, %r8
	movq	%rbx, %rdx
	movq	%rax, %rcx
	call	_ZSt22__uninitialized_copy_aIPyS0_S0_yET1_T_T0_S1_RSaIT2_E
.L300:
	movq	48(%rbp), %rax
	movq	(%rax), %rax
	movq	-8(%rbp), %rdx
	salq	$3, %rdx
	addq	%rax, %rdx
	movq	48(%rbp), %rax
	movq	%rdx, 8(%rax)
.L291:
	movq	48(%rbp), %rax
	addq	$144, %rsp
	popq	%rbx
	popq	%rsi
	popq	%rdi
	popq	%r12
	popq	%rbp
	ret
	.seh_endproc
	.section	.text$_ZNSt6vectorIS_IS_IfSaIfEESaIS1_EESaIS3_EE6assignEyRKS3_,"x"
	.linkonce discard
	.align 2
	.globl	_ZNSt6vectorIS_IS_IfSaIfEESaIS1_EESaIS3_EE6assignEyRKS3_
	.def	_ZNSt6vectorIS_IS_IfSaIfEESaIS1_EESaIS3_EE6assignEyRKS3_;	.scl	2;	.type	32;	.endef
	.seh_proc	_ZNSt6vectorIS_IS_IfSaIfEESaIS1_EESaIS3_EE6assignEyRKS3_
_ZNSt6vectorIS_IS_IfSaIfEESaIS1_EESaIS3_EE6assignEyRKS3_:
.LFB11486:
	pushq	%rbp
	.seh_pushreg	%rbp
	movq	%rsp, %rbp
	.seh_setframe	%rbp, 0
	subq	$32, %rsp
	.seh_stackalloc	32
	.seh_endprologue
	movq	%rcx, 16(%rbp)
	movq	%rdx, 24(%rbp)
	movq	%r8, 32(%rbp)
	movq	32(%rbp), %rcx
	movq	24(%rbp), %rdx
	movq	16(%rbp), %rax
	movq	%rcx, %r8
	movq	%rax, %rcx
	call	_ZNSt6vectorIS_IS_IfSaIfEESaIS1_EESaIS3_EE14_M_fill_assignEyRKS3_
	nop
	addq	$32, %rsp
	popq	%rbp
	ret
	.seh_endproc
	.section	.text$_ZNSt12_Vector_baseIfSaIfEE12_Vector_implC1Ev,"x"
	.linkonce discard
	.align 2
	.globl	_ZNSt12_Vector_baseIfSaIfEE12_Vector_implC1Ev
	.def	_ZNSt12_Vector_baseIfSaIfEE12_Vector_implC1Ev;	.scl	2;	.type	32;	.endef
	.seh_proc	_ZNSt12_Vector_baseIfSaIfEE12_Vector_implC1Ev
_ZNSt12_Vector_baseIfSaIfEE12_Vector_implC1Ev:
.LFB11489:
	pushq	%rbp
	.seh_pushreg	%rbp
	movq	%rsp, %rbp
	.seh_setframe	%rbp, 0
	subq	$48, %rsp
	.seh_stackalloc	48
	.seh_endprologue
	movq	%rcx, 16(%rbp)
	movq	16(%rbp), %rax
	movq	%rax, -8(%rbp)
	movq	-8(%rbp), %rax
	movq	%rax, -16(%rbp)
	nop
	nop
	movq	16(%rbp), %rax
	movq	%rax, %rcx
	call	_ZNSt12_Vector_baseIfSaIfEE17_Vector_impl_dataC2Ev
	nop
	addq	$48, %rsp
	popq	%rbp
	ret
	.seh_endproc
	.section	.text$_ZNSt12_Vector_baseIfSaIfEED2Ev,"x"
	.linkonce discard
	.align 2
	.globl	_ZNSt12_Vector_baseIfSaIfEED2Ev
	.def	_ZNSt12_Vector_baseIfSaIfEED2Ev;	.scl	2;	.type	32;	.endef
	.seh_proc	_ZNSt12_Vector_baseIfSaIfEED2Ev
_ZNSt12_Vector_baseIfSaIfEED2Ev:
.LFB11494:
	pushq	%rbp
	.seh_pushreg	%rbp
	movq	%rsp, %rbp
	.seh_setframe	%rbp, 0
	subq	$32, %rsp
	.seh_stackalloc	32
	.seh_endprologue
	movq	%rcx, 16(%rbp)
	movq	16(%rbp), %rax
	movq	16(%rax), %rdx
	movq	16(%rbp), %rax
	movq	(%rax), %rax
	subq	%rax, %rdx
	movq	%rdx, %rax
	sarq	$2, %rax
	movq	%rax, %rcx
	movq	16(%rbp), %rax
	movq	(%rax), %rdx
	movq	16(%rbp), %rax
	movq	%rcx, %r8
	movq	%rax, %rcx
	call	_ZNSt12_Vector_baseIfSaIfEE13_M_deallocateEPfy
	movq	16(%rbp), %rax
	movq	%rax, %rcx
	call	_ZNSt12_Vector_baseIfSaIfEE12_Vector_implD1Ev
	nop
	addq	$32, %rsp
	popq	%rbp
	ret
	.seh_handler	__gxx_personality_seh0, @unwind, @except
	.seh_handlerdata
.LLSDA11494:
	.byte	0xff
	.byte	0xff
	.byte	0x1
	.uleb128 .LLSDACSE11494-.LLSDACSB11494
.LLSDACSB11494:
.LLSDACSE11494:
	.section	.text$_ZNSt12_Vector_baseIfSaIfEED2Ev,"x"
	.linkonce discard
	.seh_endproc
	.section	.text$_ZNSt6vectorIfSaIfEED1Ev,"x"
	.linkonce discard
	.align 2
	.globl	_ZNSt6vectorIfSaIfEED1Ev
	.def	_ZNSt6vectorIfSaIfEED1Ev;	.scl	2;	.type	32;	.endef
	.seh_proc	_ZNSt6vectorIfSaIfEED1Ev
_ZNSt6vectorIfSaIfEED1Ev:
.LFB11498:
	pushq	%rbp
	.seh_pushreg	%rbp
	movq	%rsp, %rbp
	.seh_setframe	%rbp, 0
	subq	$64, %rsp
	.seh_stackalloc	64
	.seh_endprologue
	movq	%rcx, 16(%rbp)
	movq	16(%rbp), %rax
	movq	%rax, %rcx
	call	_ZNSt12_Vector_baseIfSaIfEE19_M_get_Tp_allocatorEv
	movq	16(%rbp), %rdx
	movq	8(%rdx), %rdx
	movq	16(%rbp), %rcx
	movq	(%rcx), %rcx
	movq	%rcx, -8(%rbp)
	movq	%rdx, -16(%rbp)
	movq	%rax, -24(%rbp)
	movq	-16(%rbp), %rdx
	movq	-8(%rbp), %rax
	movq	%rax, %rcx
	call	_ZSt8_DestroyIPfEvT_S1_
	nop
	movq	16(%rbp), %rax
	movq	%rax, %rcx
	call	_ZNSt12_Vector_baseIfSaIfEED2Ev
	nop
	addq	$64, %rsp
	popq	%rbp
	ret
	.seh_endproc
	.section	.text$_ZNSt6vectorIS_IfSaIfEESaIS1_EE6assignEyRKS1_,"x"
	.linkonce discard
	.align 2
	.globl	_ZNSt6vectorIS_IfSaIfEESaIS1_EE6assignEyRKS1_
	.def	_ZNSt6vectorIS_IfSaIfEESaIS1_EE6assignEyRKS1_;	.scl	2;	.type	32;	.endef
	.seh_proc	_ZNSt6vectorIS_IfSaIfEESaIS1_EE6assignEyRKS1_
_ZNSt6vectorIS_IfSaIfEESaIS1_EE6assignEyRKS1_:
.LFB11499:
	pushq	%rbp
	.seh_pushreg	%rbp
	movq	%rsp, %rbp
	.seh_setframe	%rbp, 0
	subq	$32, %rsp
	.seh_stackalloc	32
	.seh_endprologue
	movq	%rcx, 16(%rbp)
	movq	%rdx, 24(%rbp)
	movq	%r8, 32(%rbp)
	movq	32(%rbp), %rcx
	movq	24(%rbp), %rdx
	movq	16(%rbp), %rax
	movq	%rcx, %r8
	movq	%rax, %rcx
	call	_ZNSt6vectorIS_IfSaIfEESaIS1_EE14_M_fill_assignEyRKS1_
	nop
	addq	$32, %rsp
	popq	%rbp
	ret
	.seh_endproc
	.section	.text$_ZSteqIcSt11char_traitsIcESaIcEEbRKNSt7__cxx1112basic_stringIT_T0_T1_EEPKS5_,"x"
	.linkonce discard
	.globl	_ZSteqIcSt11char_traitsIcESaIcEEbRKNSt7__cxx1112basic_stringIT_T0_T1_EEPKS5_
	.def	_ZSteqIcSt11char_traitsIcESaIcEEbRKNSt7__cxx1112basic_stringIT_T0_T1_EEPKS5_;	.scl	2;	.type	32;	.endef
	.seh_proc	_ZSteqIcSt11char_traitsIcESaIcEEbRKNSt7__cxx1112basic_stringIT_T0_T1_EEPKS5_
_ZSteqIcSt11char_traitsIcESaIcEEbRKNSt7__cxx1112basic_stringIT_T0_T1_EEPKS5_:
.LFB11500:
	pushq	%rbp
	.seh_pushreg	%rbp
	pushq	%rbx
	.seh_pushreg	%rbx
	subq	$40, %rsp
	.seh_stackalloc	40
	leaq	32(%rsp), %rbp
	.seh_setframe	%rbp, 32
	.seh_endprologue
	movq	%rcx, 32(%rbp)
	movq	%rdx, 40(%rbp)
	movq	32(%rbp), %rax
	movq	%rax, %rcx
	call	_ZNKSt7__cxx1112basic_stringIcSt11char_traitsIcESaIcEE4sizeEv
	movq	%rax, %rbx
	movq	40(%rbp), %rax
	movq	%rax, %rcx
	call	_ZNSt11char_traitsIcE6lengthEPKc
	cmpq	%rax, %rbx
	jne	.L309
	movq	32(%rbp), %rax
	movq	%rax, %rcx
	call	_ZNKSt7__cxx1112basic_stringIcSt11char_traitsIcESaIcEE4sizeEv
	movq	%rax, %rbx
	movq	32(%rbp), %rax
	movq	%rax, %rcx
	call	_ZNKSt7__cxx1112basic_stringIcSt11char_traitsIcESaIcEE4dataEv
	movq	%rax, %rcx
	movq	40(%rbp), %rax
	movq	%rbx, %r8
	movq	%rax, %rdx
	call	_ZNSt11char_traitsIcE7compareEPKcS2_y
	testl	%eax, %eax
	jne	.L309
	movl	$1, %eax
	jmp	.L310
.L309:
	movl	$0, %eax
.L310:
	addq	$40, %rsp
	popq	%rbx
	popq	%rbp
	ret
	.seh_endproc
	.section	.text$_ZNKSt7__cxx1112basic_stringIcSt11char_traitsIcESaIcEE5emptyEv,"x"
	.linkonce discard
	.align 2
	.globl	_ZNKSt7__cxx1112basic_stringIcSt11char_traitsIcESaIcEE5emptyEv
	.def	_ZNKSt7__cxx1112basic_stringIcSt11char_traitsIcESaIcEE5emptyEv;	.scl	2;	.type	32;	.endef
	.seh_proc	_ZNKSt7__cxx1112basic_stringIcSt11char_traitsIcESaIcEE5emptyEv
_ZNKSt7__cxx1112basic_stringIcSt11char_traitsIcESaIcEE5emptyEv:
.LFB11502:
	pushq	%rbp
	.seh_pushreg	%rbp
	movq	%rsp, %rbp
	.seh_setframe	%rbp, 0
	.seh_endprologue
	movq	%rcx, 16(%rbp)
	movq	16(%rbp), %rax
	movq	8(%rax), %rax
	testq	%rax, %rax
	sete	%al
	popq	%rbp
	ret
	.seh_endproc
	.section	.text$_ZNKSt7__cxx1112basic_stringIcSt11char_traitsIcESaIcEE17find_first_not_ofEPKcy,"x"
	.linkonce discard
	.align 2
	.globl	_ZNKSt7__cxx1112basic_stringIcSt11char_traitsIcESaIcEE17find_first_not_ofEPKcy
	.def	_ZNKSt7__cxx1112basic_stringIcSt11char_traitsIcESaIcEE17find_first_not_ofEPKcy;	.scl	2;	.type	32;	.endef
	.seh_proc	_ZNKSt7__cxx1112basic_stringIcSt11char_traitsIcESaIcEE17find_first_not_ofEPKcy
_ZNKSt7__cxx1112basic_stringIcSt11char_traitsIcESaIcEE17find_first_not_ofEPKcy:
.LFB11503:
	pushq	%rbp
	.seh_pushreg	%rbp
	movq	%rsp, %rbp
	.seh_setframe	%rbp, 0
	subq	$32, %rsp
	.seh_stackalloc	32
	.seh_endprologue
	movq	%rcx, 16(%rbp)
	movq	%rdx, 24(%rbp)
	movq	%r8, 32(%rbp)
	movq	24(%rbp), %rax
	movq	%rax, %rcx
	call	_ZNSt11char_traitsIcE6lengthEPKc
	movq	%rax, %rcx
	movq	32(%rbp), %r8
	movq	24(%rbp), %rdx
	movq	16(%rbp), %rax
	movq	%rcx, %r9
	movq	%rax, %rcx
	call	_ZNKSt7__cxx1112basic_stringIcSt11char_traitsIcESaIcEE17find_first_not_ofEPKcyy
	addq	$32, %rsp
	popq	%rbp
	ret
	.seh_handler	__gxx_personality_seh0, @unwind, @except
	.seh_handlerdata
.LLSDA11503:
	.byte	0xff
	.byte	0xff
	.byte	0x1
	.uleb128 .LLSDACSE11503-.LLSDACSB11503
.LLSDACSB11503:
.LLSDACSE11503:
	.section	.text$_ZNKSt7__cxx1112basic_stringIcSt11char_traitsIcESaIcEE17find_first_not_ofEPKcy,"x"
	.linkonce discard
	.seh_endproc
	.section .rdata,"dr"
	.align 8
.LC17:
	.ascii "std::vector<_Tp, _Alloc>::reference std::vector<_Tp, _Alloc>::operator[](size_type) [with _Tp = std::vector<std::vector<float> >; _Alloc = std::allocator<std::vector<std::vector<float> > >; reference = std::vector<std::vector<float> >&; size_type = long long unsigned int]\0"
	.section	.text$_ZNSt6vectorIS_IS_IfSaIfEESaIS1_EESaIS3_EEixEy,"x"
	.linkonce discard
	.align 2
	.globl	_ZNSt6vectorIS_IS_IfSaIfEESaIS1_EESaIS3_EEixEy
	.def	_ZNSt6vectorIS_IS_IfSaIfEESaIS1_EESaIS3_EEixEy;	.scl	2;	.type	32;	.endef
	.seh_proc	_ZNSt6vectorIS_IS_IfSaIfEESaIS1_EESaIS3_EEixEy
_ZNSt6vectorIS_IS_IfSaIfEESaIS1_EESaIS3_EEixEy:
.LFB11504:
	pushq	%rbp
	.seh_pushreg	%rbp
	movq	%rsp, %rbp
	.seh_setframe	%rbp, 0
	subq	$32, %rsp
	.seh_stackalloc	32
	.seh_endprologue
	movq	%rcx, 16(%rbp)
	movq	%rdx, 24(%rbp)
	movq	16(%rbp), %rax
	movq	%rax, %rcx
	call	_ZNKSt6vectorIS_IS_IfSaIfEESaIS1_EESaIS3_EE4sizeEv
	cmpq	%rax, 24(%rbp)
	setnb	%al
	movzbl	%al, %eax
	testl	%eax, %eax
	setne	%al
	testb	%al, %al
	je	.L317
	leaq	.LC14(%rip), %rcx
	leaq	.LC17(%rip), %rdx
	leaq	.LC16(%rip), %rax
	movq	%rcx, %r9
	movq	%rdx, %r8
	movl	$1263, %edx
	movq	%rax, %rcx
	call	_ZSt21__glibcxx_assert_failPKciS0_S0_
.L317:
	movq	16(%rbp), %rax
	movq	(%rax), %rcx
	movq	24(%rbp), %rdx
	movq	%rdx, %rax
	addq	%rax, %rax
	addq	%rdx, %rax
	salq	$3, %rax
	addq	%rcx, %rax
	addq	$32, %rsp
	popq	%rbp
	ret
	.seh_endproc
	.section	.text$_ZNSt6vectorIfSaIfEEC1EyRKfRKS0_,"x"
	.linkonce discard
	.align 2
	.globl	_ZNSt6vectorIfSaIfEEC1EyRKfRKS0_
	.def	_ZNSt6vectorIfSaIfEEC1EyRKfRKS0_;	.scl	2;	.type	32;	.endef
	.seh_proc	_ZNSt6vectorIfSaIfEEC1EyRKfRKS0_
_ZNSt6vectorIfSaIfEEC1EyRKfRKS0_:
.LFB11510:
	pushq	%rbp
	.seh_pushreg	%rbp
	pushq	%rbx
	.seh_pushreg	%rbx
	subq	$40, %rsp
	.seh_stackalloc	40
	leaq	32(%rsp), %rbp
	.seh_setframe	%rbp, 32
	.seh_endprologue
	movq	%rcx, 32(%rbp)
	movq	%rdx, 40(%rbp)
	movq	%r8, 48(%rbp)
	movq	%r9, 56(%rbp)
	movq	32(%rbp), %rbx
	movq	56(%rbp), %rdx
	movq	40(%rbp), %rax
	movq	%rax, %rcx
.LEHB54:
	call	_ZNSt6vectorIfSaIfEE17_S_check_init_lenEyRKS0_
	movq	56(%rbp), %rdx
	movq	%rdx, %r8
	movq	%rax, %rdx
	movq	%rbx, %rcx
	call	_ZNSt12_Vector_baseIfSaIfEEC2EyRKS0_
.LEHE54:
	movq	48(%rbp), %rcx
	movq	40(%rbp), %rdx
	movq	32(%rbp), %rax
	movq	%rcx, %r8
	movq	%rax, %rcx
.LEHB55:
	call	_ZNSt6vectorIfSaIfEE18_M_fill_initializeEyRKf
.LEHE55:
	jmp	.L322
.L321:
	movq	%rax, %rbx
	movq	32(%rbp), %rax
	movq	%rax, %rcx
	call	_ZNSt12_Vector_baseIfSaIfEED2Ev
	movq	%rbx, %rax
	movq	%rax, %rcx
.LEHB56:
	call	_Unwind_Resume
	nop
.LEHE56:
.L322:
	addq	$40, %rsp
	popq	%rbx
	popq	%rbp
	ret
	.seh_handler	__gxx_personality_seh0, @unwind, @except
	.seh_handlerdata
.LLSDA11510:
	.byte	0xff
	.byte	0xff
	.byte	0x1
	.uleb128 .LLSDACSE11510-.LLSDACSB11510
.LLSDACSB11510:
	.uleb128 .LEHB54-.LFB11510
	.uleb128 .LEHE54-.LEHB54
	.uleb128 0
	.uleb128 0
	.uleb128 .LEHB55-.LFB11510
	.uleb128 .LEHE55-.LEHB55
	.uleb128 .L321-.LFB11510
	.uleb128 0
	.uleb128 .LEHB56-.LFB11510
	.uleb128 .LEHE56-.LEHB56
	.uleb128 0
	.uleb128 0
.LLSDACSE11510:
	.section	.text$_ZNSt6vectorIfSaIfEEC1EyRKfRKS0_,"x"
	.linkonce discard
	.seh_endproc
	.section .rdata,"dr"
	.align 8
.LC18:
	.ascii "std::vector<_Tp, _Alloc>::reference std::vector<_Tp, _Alloc>::operator[](size_type) [with _Tp = std::vector<float>; _Alloc = std::allocator<std::vector<float> >; reference = std::vector<float>&; size_type = long long unsigned int]\0"
	.section	.text$_ZNSt6vectorIS_IfSaIfEESaIS1_EEixEy,"x"
	.linkonce discard
	.align 2
	.globl	_ZNSt6vectorIS_IfSaIfEESaIS1_EEixEy
	.def	_ZNSt6vectorIS_IfSaIfEESaIS1_EEixEy;	.scl	2;	.type	32;	.endef
	.seh_proc	_ZNSt6vectorIS_IfSaIfEESaIS1_EEixEy
_ZNSt6vectorIS_IfSaIfEESaIS1_EEixEy:
.LFB11511:
	pushq	%rbp
	.seh_pushreg	%rbp
	movq	%rsp, %rbp
	.seh_setframe	%rbp, 0
	subq	$32, %rsp
	.seh_stackalloc	32
	.seh_endprologue
	movq	%rcx, 16(%rbp)
	movq	%rdx, 24(%rbp)
	movq	16(%rbp), %rax
	movq	%rax, %rcx
	call	_ZNKSt6vectorIS_IfSaIfEESaIS1_EE4sizeEv
	cmpq	%rax, 24(%rbp)
	setnb	%al
	movzbl	%al, %eax
	testl	%eax, %eax
	setne	%al
	testb	%al, %al
	je	.L324
	leaq	.LC14(%rip), %rcx
	leaq	.LC18(%rip), %rdx
	leaq	.LC16(%rip), %rax
	movq	%rcx, %r9
	movq	%rdx, %r8
	movl	$1263, %edx
	movq	%rax, %rcx
	call	_ZSt21__glibcxx_assert_failPKciS0_S0_
.L324:
	movq	16(%rbp), %rax
	movq	(%rax), %rcx
	movq	24(%rbp), %rdx
	movq	%rdx, %rax
	addq	%rax, %rax
	addq	%rdx, %rax
	salq	$3, %rax
	addq	%rcx, %rax
	addq	$32, %rsp
	popq	%rbp
	ret
	.seh_endproc
	.section .rdata,"dr"
	.align 8
.LC19:
	.ascii "std::vector<_Tp, _Alloc>::reference std::vector<_Tp, _Alloc>::operator[](size_type) [with _Tp = float; _Alloc = std::allocator<float>; reference = float&; size_type = long long unsigned int]\0"
	.section	.text$_ZNSt6vectorIfSaIfEEixEy,"x"
	.linkonce discard
	.align 2
	.globl	_ZNSt6vectorIfSaIfEEixEy
	.def	_ZNSt6vectorIfSaIfEEixEy;	.scl	2;	.type	32;	.endef
	.seh_proc	_ZNSt6vectorIfSaIfEEixEy
_ZNSt6vectorIfSaIfEEixEy:
.LFB11512:
	pushq	%rbp
	.seh_pushreg	%rbp
	movq	%rsp, %rbp
	.seh_setframe	%rbp, 0
	subq	$32, %rsp
	.seh_stackalloc	32
	.seh_endprologue
	movq	%rcx, 16(%rbp)
	movq	%rdx, 24(%rbp)
	movq	16(%rbp), %rax
	movq	%rax, %rcx
	call	_ZNKSt6vectorIfSaIfEE4sizeEv
	cmpq	%rax, 24(%rbp)
	setnb	%al
	movzbl	%al, %eax
	testl	%eax, %eax
	setne	%al
	testb	%al, %al
	je	.L327
	leaq	.LC14(%rip), %rcx
	leaq	.LC19(%rip), %rdx
	leaq	.LC16(%rip), %rax
	movq	%rcx, %r9
	movq	%rdx, %r8
	movl	$1263, %edx
	movq	%rax, %rcx
	call	_ZSt21__glibcxx_assert_failPKciS0_S0_
.L327:
	movq	16(%rbp), %rax
	movq	(%rax), %rax
	movq	24(%rbp), %rdx
	salq	$2, %rdx
	addq	%rdx, %rax
	addq	$32, %rsp
	popq	%rbp
	ret
	.seh_endproc
	.section	.text$_ZNSt6vectorIfSaIfEE6assignEyRKf,"x"
	.linkonce discard
	.align 2
	.globl	_ZNSt6vectorIfSaIfEE6assignEyRKf
	.def	_ZNSt6vectorIfSaIfEE6assignEyRKf;	.scl	2;	.type	32;	.endef
	.seh_proc	_ZNSt6vectorIfSaIfEE6assignEyRKf
_ZNSt6vectorIfSaIfEE6assignEyRKf:
.LFB11514:
	pushq	%rbp
	.seh_pushreg	%rbp
	movq	%rsp, %rbp
	.seh_setframe	%rbp, 0
	subq	$32, %rsp
	.seh_stackalloc	32
	.seh_endprologue
	movq	%rcx, 16(%rbp)
	movq	%rdx, 24(%rbp)
	movq	%r8, 32(%rbp)
	movq	32(%rbp), %rcx
	movq	24(%rbp), %rdx
	movq	16(%rbp), %rax
	movq	%rcx, %r8
	movq	%rax, %rcx
	call	_ZNSt6vectorIfSaIfEE14_M_fill_assignEyRKf
	nop
	addq	$32, %rsp
	popq	%rbp
	ret
	.seh_endproc
	.section	.text$_ZNKSt6vectorIfSaIfEE4sizeEv,"x"
	.linkonce discard
	.align 2
	.globl	_ZNKSt6vectorIfSaIfEE4sizeEv
	.def	_ZNKSt6vectorIfSaIfEE4sizeEv;	.scl	2;	.type	32;	.endef
	.seh_proc	_ZNKSt6vectorIfSaIfEE4sizeEv
_ZNKSt6vectorIfSaIfEE4sizeEv:
.LFB11519:
	pushq	%rbp
	.seh_pushreg	%rbp
	movq	%rsp, %rbp
	.seh_setframe	%rbp, 0
	subq	$16, %rsp
	.seh_stackalloc	16
	.seh_endprologue
	movq	%rcx, 16(%rbp)
	movq	16(%rbp), %rax
	movq	8(%rax), %rdx
	movq	16(%rbp), %rax
	movq	(%rax), %rax
	subq	%rax, %rdx
	movq	%rdx, %rax
	sarq	$2, %rax
	movq	%rax, -8(%rbp)
	cmpq	$0, -8(%rbp)
	movq	-8(%rbp), %rax
	addq	$16, %rsp
	popq	%rbp
	ret
	.seh_endproc
	.section	.text$_ZNKSt6vectorIfSaIfEE5beginEv,"x"
	.linkonce discard
	.align 2
	.globl	_ZNKSt6vectorIfSaIfEE5beginEv
	.def	_ZNKSt6vectorIfSaIfEE5beginEv;	.scl	2;	.type	32;	.endef
	.seh_proc	_ZNKSt6vectorIfSaIfEE5beginEv
_ZNKSt6vectorIfSaIfEE5beginEv:
.LFB11521:
	pushq	%rbp
	.seh_pushreg	%rbp
	movq	%rsp, %rbp
	.seh_setframe	%rbp, 0
	subq	$16, %rsp
	.seh_stackalloc	16
	.seh_endprologue
	movq	%rcx, 16(%rbp)
	movq	16(%rbp), %rax
	movq	%rax, -8(%rbp)
	movq	-8(%rbp), %rax
	movq	(%rax), %rax
	movq	%rax, -16(%rbp)
	nop
	movq	-16(%rbp), %rax
	addq	$16, %rsp
	popq	%rbp
	ret
	.seh_endproc
	.section	.text$_ZNKSt6vectorIfSaIfEE3endEv,"x"
	.linkonce discard
	.align 2
	.globl	_ZNKSt6vectorIfSaIfEE3endEv
	.def	_ZNKSt6vectorIfSaIfEE3endEv;	.scl	2;	.type	32;	.endef
	.seh_proc	_ZNKSt6vectorIfSaIfEE3endEv
_ZNKSt6vectorIfSaIfEE3endEv:
.LFB11522:
	pushq	%rbp
	.seh_pushreg	%rbp
	movq	%rsp, %rbp
	.seh_setframe	%rbp, 0
	subq	$16, %rsp
	.seh_stackalloc	16
	.seh_endprologue
	movq	%rcx, 16(%rbp)
	movq	16(%rbp), %rax
	addq	$8, %rax
	movq	%rax, -8(%rbp)
	movq	-8(%rbp), %rax
	movq	(%rax), %rax
	movq	%rax, -16(%rbp)
	nop
	movq	-16(%rbp), %rax
	addq	$16, %rsp
	popq	%rbp
	ret
	.seh_endproc
	.section	.text$_ZNSt12_Vector_baseIfSaIfEE12_Vector_implC1EOS2_,"x"
	.linkonce discard
	.align 2
	.globl	_ZNSt12_Vector_baseIfSaIfEE12_Vector_implC1EOS2_
	.def	_ZNSt12_Vector_baseIfSaIfEE12_Vector_implC1EOS2_;	.scl	2;	.type	32;	.endef
	.seh_proc	_ZNSt12_Vector_baseIfSaIfEE12_Vector_implC1EOS2_
_ZNSt12_Vector_baseIfSaIfEE12_Vector_implC1EOS2_:
.LFB11529:
	pushq	%rbp
	.seh_pushreg	%rbp
	movq	%rsp, %rbp
	.seh_setframe	%rbp, 0
	subq	$80, %rsp
	.seh_stackalloc	80
	.seh_endprologue
	movq	%rcx, 16(%rbp)
	movq	%rdx, 24(%rbp)
	movq	24(%rbp), %rax
	movq	%rax, -48(%rbp)
	movq	-48(%rbp), %rax
	movq	16(%rbp), %rdx
	movq	%rdx, -16(%rbp)
	movq	%rax, -24(%rbp)
	movq	-16(%rbp), %rax
	movq	%rax, -32(%rbp)
	movq	-24(%rbp), %rax
	movq	%rax, -40(%rbp)
	nop
	nop
	movq	16(%rbp), %rax
	movq	24(%rbp), %rdx
	movq	%rdx, -8(%rbp)
	movq	-8(%rbp), %rdx
	movq	%rax, %rcx
	call	_ZNSt12_Vector_baseIfSaIfEE17_Vector_impl_dataC2EOS2_
	nop
	addq	$80, %rsp
	popq	%rbp
	ret
	.seh_endproc
	.section	.text$_ZNSt25uniform_real_distributionIfEC1Eff,"x"
	.linkonce discard
	.align 2
	.globl	_ZNSt25uniform_real_distributionIfEC1Eff
	.def	_ZNSt25uniform_real_distributionIfEC1Eff;	.scl	2;	.type	32;	.endef
	.seh_proc	_ZNSt25uniform_real_distributionIfEC1Eff
_ZNSt25uniform_real_distributionIfEC1Eff:
.LFB11532:
	pushq	%rbp
	.seh_pushreg	%rbp
	movq	%rsp, %rbp
	.seh_setframe	%rbp, 0
	subq	$32, %rsp
	.seh_stackalloc	32
	.seh_endprologue
	movq	%rcx, 16(%rbp)
	movss	%xmm1, 24(%rbp)
	movss	%xmm2, 32(%rbp)
	movq	16(%rbp), %rax
	movss	32(%rbp), %xmm1
	movss	24(%rbp), %xmm0
	movaps	%xmm1, %xmm2
	movaps	%xmm0, %xmm1
	movq	%rax, %rcx
	call	_ZNSt25uniform_real_distributionIfE10param_typeC1Eff
	nop
	addq	$32, %rsp
	popq	%rbp
	ret
	.seh_endproc
	.section	.text$_ZNSt6vectorIS_IS_IfSaIfEESaIS1_EESaIS3_EE6resizeEy,"x"
	.linkonce discard
	.align 2
	.globl	_ZNSt6vectorIS_IS_IfSaIfEESaIS1_EESaIS3_EE6resizeEy
	.def	_ZNSt6vectorIS_IS_IfSaIfEESaIS1_EESaIS3_EE6resizeEy;	.scl	2;	.type	32;	.endef
	.seh_proc	_ZNSt6vectorIS_IS_IfSaIfEESaIS1_EESaIS3_EE6resizeEy
_ZNSt6vectorIS_IS_IfSaIfEESaIS1_EESaIS3_EE6resizeEy:
.LFB11533:
	pushq	%rbp
	.seh_pushreg	%rbp
	movq	%rsp, %rbp
	.seh_setframe	%rbp, 0
	subq	$32, %rsp
	.seh_stackalloc	32
	.seh_endprologue
	movq	%rcx, 16(%rbp)
	movq	%rdx, 24(%rbp)
	movq	16(%rbp), %rax
	movq	%rax, %rcx
	call	_ZNKSt6vectorIS_IS_IfSaIfEESaIS1_EESaIS3_EE4sizeEv
	cmpq	24(%rbp), %rax
	setb	%al
	testb	%al, %al
	je	.L342
	movq	16(%rbp), %rax
	movq	%rax, %rcx
	call	_ZNKSt6vectorIS_IS_IfSaIfEESaIS1_EESaIS3_EE4sizeEv
	movq	24(%rbp), %rdx
	subq	%rax, %rdx
	movq	16(%rbp), %rax
	movq	%rax, %rcx
	call	_ZNSt6vectorIS_IS_IfSaIfEESaIS1_EESaIS3_EE17_M_default_appendEy
	jmp	.L344
.L342:
	movq	16(%rbp), %rax
	movq	%rax, %rcx
	call	_ZNKSt6vectorIS_IS_IfSaIfEESaIS1_EESaIS3_EE4sizeEv
	cmpq	%rax, 24(%rbp)
	setb	%al
	testb	%al, %al
	je	.L344
	movq	16(%rbp), %rax
	movq	(%rax), %rcx
	movq	24(%rbp), %rdx
	movq	%rdx, %rax
	addq	%rax, %rax
	addq	%rdx, %rax
	salq	$3, %rax
	leaq	(%rcx,%rax), %rdx
	movq	16(%rbp), %rax
	movq	%rax, %rcx
	call	_ZNSt6vectorIS_IS_IfSaIfEESaIS1_EESaIS3_EE15_M_erase_at_endEPS3_
.L344:
	nop
	addq	$32, %rsp
	popq	%rbp
	ret
	.seh_endproc
	.section	.text$_ZNSt6vectorIS_IfSaIfEESaIS1_EE6resizeEy,"x"
	.linkonce discard
	.align 2
	.globl	_ZNSt6vectorIS_IfSaIfEESaIS1_EE6resizeEy
	.def	_ZNSt6vectorIS_IfSaIfEESaIS1_EE6resizeEy;	.scl	2;	.type	32;	.endef
	.seh_proc	_ZNSt6vectorIS_IfSaIfEESaIS1_EE6resizeEy
_ZNSt6vectorIS_IfSaIfEESaIS1_EE6resizeEy:
.LFB11534:
	pushq	%rbp
	.seh_pushreg	%rbp
	movq	%rsp, %rbp
	.seh_setframe	%rbp, 0
	subq	$32, %rsp
	.seh_stackalloc	32
	.seh_endprologue
	movq	%rcx, 16(%rbp)
	movq	%rdx, 24(%rbp)
	movq	16(%rbp), %rax
	movq	%rax, %rcx
	call	_ZNKSt6vectorIS_IfSaIfEESaIS1_EE4sizeEv
	cmpq	24(%rbp), %rax
	setb	%al
	testb	%al, %al
	je	.L346
	movq	16(%rbp), %rax
	movq	%rax, %rcx
	call	_ZNKSt6vectorIS_IfSaIfEESaIS1_EE4sizeEv
	movq	24(%rbp), %rdx
	subq	%rax, %rdx
	movq	16(%rbp), %rax
	movq	%rax, %rcx
	call	_ZNSt6vectorIS_IfSaIfEESaIS1_EE17_M_default_appendEy
	jmp	.L348
.L346:
	movq	16(%rbp), %rax
	movq	%rax, %rcx
	call	_ZNKSt6vectorIS_IfSaIfEESaIS1_EE4sizeEv
	cmpq	%rax, 24(%rbp)
	setb	%al
	testb	%al, %al
	je	.L348
	movq	16(%rbp), %rax
	movq	(%rax), %rcx
	movq	24(%rbp), %rdx
	movq	%rdx, %rax
	addq	%rax, %rax
	addq	%rdx, %rax
	salq	$3, %rax
	leaq	(%rcx,%rax), %rdx
	movq	16(%rbp), %rax
	movq	%rax, %rcx
	call	_ZNSt6vectorIS_IfSaIfEESaIS1_EE15_M_erase_at_endEPS1_
.L348:
	nop
	addq	$32, %rsp
	popq	%rbp
	ret
	.seh_endproc
	.section	.text$_ZNSt25uniform_real_distributionIfEclISt23mersenne_twister_engineIjLy32ELy624ELy397ELy31ELj2567483615ELy11ELj4294967295ELy7ELj2636928640ELy15ELj4022730752ELy18ELj1812433253EEEEfRT_,"x"
	.linkonce discard
	.align 2
	.globl	_ZNSt25uniform_real_distributionIfEclISt23mersenne_twister_engineIjLy32ELy624ELy397ELy31ELj2567483615ELy11ELj4294967295ELy7ELj2636928640ELy15ELj4022730752ELy18ELj1812433253EEEEfRT_
	.def	_ZNSt25uniform_real_distributionIfEclISt23mersenne_twister_engineIjLy32ELy624ELy397ELy31ELj2567483615ELy11ELj4294967295ELy7ELj2636928640ELy15ELj4022730752ELy18ELj1812433253EEEEfRT_;	.scl	2;	.type	32;	.endef
	.seh_proc	_ZNSt25uniform_real_distributionIfEclISt23mersenne_twister_engineIjLy32ELy624ELy397ELy31ELj2567483615ELy11ELj4294967295ELy7ELj2636928640ELy15ELj4022730752ELy18ELj1812433253EEEEfRT_
_ZNSt25uniform_real_distributionIfEclISt23mersenne_twister_engineIjLy32ELy624ELy397ELy31ELj2567483615ELy11ELj4294967295ELy7ELj2636928640ELy15ELj4022730752ELy18ELj1812433253EEEEfRT_:
.LFB11535:
	pushq	%rbp
	.seh_pushreg	%rbp
	movq	%rsp, %rbp
	.seh_setframe	%rbp, 0
	subq	$32, %rsp
	.seh_stackalloc	32
	.seh_endprologue
	movq	%rcx, 16(%rbp)
	movq	%rdx, 24(%rbp)
	movq	16(%rbp), %rcx
	movq	24(%rbp), %rdx
	movq	16(%rbp), %rax
	movq	%rcx, %r8
	movq	%rax, %rcx
	call	_ZNSt25uniform_real_distributionIfEclISt23mersenne_twister_engineIjLy32ELy624ELy397ELy31ELj2567483615ELy11ELj4294967295ELy7ELj2636928640ELy15ELj4022730752ELy18ELj1812433253EEEEfRT_RKNS0_10param_typeE
	addq	$32, %rsp
	popq	%rbp
	ret
	.seh_endproc
	.section	.text$_ZNSt6vectorIS_IfSaIfEESaIS1_EEC1EyRKS1_RKS2_,"x"
	.linkonce discard
	.align 2
	.globl	_ZNSt6vectorIS_IfSaIfEESaIS1_EEC1EyRKS1_RKS2_
	.def	_ZNSt6vectorIS_IfSaIfEESaIS1_EEC1EyRKS1_RKS2_;	.scl	2;	.type	32;	.endef
	.seh_proc	_ZNSt6vectorIS_IfSaIfEESaIS1_EEC1EyRKS1_RKS2_
_ZNSt6vectorIS_IfSaIfEESaIS1_EEC1EyRKS1_RKS2_:
.LFB11543:
	pushq	%rbp
	.seh_pushreg	%rbp
	pushq	%rbx
	.seh_pushreg	%rbx
	subq	$40, %rsp
	.seh_stackalloc	40
	leaq	32(%rsp), %rbp
	.seh_setframe	%rbp, 32
	.seh_endprologue
	movq	%rcx, 32(%rbp)
	movq	%rdx, 40(%rbp)
	movq	%r8, 48(%rbp)
	movq	%r9, 56(%rbp)
	movq	32(%rbp), %rbx
	movq	56(%rbp), %rdx
	movq	40(%rbp), %rax
	movq	%rax, %rcx
.LEHB57:
	call	_ZNSt6vectorIS_IfSaIfEESaIS1_EE17_S_check_init_lenEyRKS2_
	movq	56(%rbp), %rdx
	movq	%rdx, %r8
	movq	%rax, %rdx
	movq	%rbx, %rcx
	call	_ZNSt12_Vector_baseISt6vectorIfSaIfEESaIS2_EEC2EyRKS3_
.LEHE57:
	movq	48(%rbp), %rcx
	movq	40(%rbp), %rdx
	movq	32(%rbp), %rax
	movq	%rcx, %r8
	movq	%rax, %rcx
.LEHB58:
	call	_ZNSt6vectorIS_IfSaIfEESaIS1_EE18_M_fill_initializeEyRKS1_
.LEHE58:
	jmp	.L354
.L353:
	movq	%rax, %rbx
	movq	32(%rbp), %rax
	movq	%rax, %rcx
	call	_ZNSt12_Vector_baseISt6vectorIfSaIfEESaIS2_EED2Ev
	movq	%rbx, %rax
	movq	%rax, %rcx
.LEHB59:
	call	_Unwind_Resume
	nop
.LEHE59:
.L354:
	addq	$40, %rsp
	popq	%rbx
	popq	%rbp
	ret
	.seh_handler	__gxx_personality_seh0, @unwind, @except
	.seh_handlerdata
.LLSDA11543:
	.byte	0xff
	.byte	0xff
	.byte	0x1
	.uleb128 .LLSDACSE11543-.LLSDACSB11543
.LLSDACSB11543:
	.uleb128 .LEHB57-.LFB11543
	.uleb128 .LEHE57-.LEHB57
	.uleb128 0
	.uleb128 0
	.uleb128 .LEHB58-.LFB11543
	.uleb128 .LEHE58-.LEHB58
	.uleb128 .L353-.LFB11543
	.uleb128 0
	.uleb128 .LEHB59-.LFB11543
	.uleb128 .LEHE59-.LEHB59
	.uleb128 0
	.uleb128 0
.LLSDACSE11543:
	.section	.text$_ZNSt6vectorIS_IfSaIfEESaIS1_EEC1EyRKS1_RKS2_,"x"
	.linkonce discard
	.seh_endproc
	.section	.text$_ZNKSt6vectorIS_IfSaIfEESaIS1_EE5beginEv,"x"
	.linkonce discard
	.align 2
	.globl	_ZNKSt6vectorIS_IfSaIfEESaIS1_EE5beginEv
	.def	_ZNKSt6vectorIS_IfSaIfEESaIS1_EE5beginEv;	.scl	2;	.type	32;	.endef
	.seh_proc	_ZNKSt6vectorIS_IfSaIfEESaIS1_EE5beginEv
_ZNKSt6vectorIS_IfSaIfEESaIS1_EE5beginEv:
.LFB11544:
	pushq	%rbp
	.seh_pushreg	%rbp
	movq	%rsp, %rbp
	.seh_setframe	%rbp, 0
	subq	$16, %rsp
	.seh_stackalloc	16
	.seh_endprologue
	movq	%rcx, 16(%rbp)
	movq	16(%rbp), %rax
	movq	%rax, -8(%rbp)
	movq	-8(%rbp), %rax
	movq	(%rax), %rax
	movq	%rax, -16(%rbp)
	nop
	movq	-16(%rbp), %rax
	addq	$16, %rsp
	popq	%rbp
	ret
	.seh_endproc
	.section	.text$_ZNKSt6vectorIS_IfSaIfEESaIS1_EE3endEv,"x"
	.linkonce discard
	.align 2
	.globl	_ZNKSt6vectorIS_IfSaIfEESaIS1_EE3endEv
	.def	_ZNKSt6vectorIS_IfSaIfEESaIS1_EE3endEv;	.scl	2;	.type	32;	.endef
	.seh_proc	_ZNKSt6vectorIS_IfSaIfEESaIS1_EE3endEv
_ZNKSt6vectorIS_IfSaIfEESaIS1_EE3endEv:
.LFB11545:
	pushq	%rbp
	.seh_pushreg	%rbp
	movq	%rsp, %rbp
	.seh_setframe	%rbp, 0
	subq	$16, %rsp
	.seh_stackalloc	16
	.seh_endprologue
	movq	%rcx, 16(%rbp)
	movq	16(%rbp), %rax
	addq	$8, %rax
	movq	%rax, -8(%rbp)
	movq	-8(%rbp), %rax
	movq	(%rax), %rax
	movq	%rax, -16(%rbp)
	nop
	movq	-16(%rbp), %rax
	addq	$16, %rsp
	popq	%rbp
	ret
	.seh_endproc
	.section	.text$_ZN9__gnu_cxx11char_traitsIcE2eqERKcS3_,"x"
	.linkonce discard
	.globl	_ZN9__gnu_cxx11char_traitsIcE2eqERKcS3_
	.def	_ZN9__gnu_cxx11char_traitsIcE2eqERKcS3_;	.scl	2;	.type	32;	.endef
	.seh_proc	_ZN9__gnu_cxx11char_traitsIcE2eqERKcS3_
_ZN9__gnu_cxx11char_traitsIcE2eqERKcS3_:
.LFB11573:
	pushq	%rbp
	.seh_pushreg	%rbp
	movq	%rsp, %rbp
	.seh_setframe	%rbp, 0
	.seh_endprologue
	movq	%rcx, 16(%rbp)
	movq	%rdx, 24(%rbp)
	movq	16(%rbp), %rax
	movzbl	(%rax), %edx
	movq	24(%rbp), %rax
	movzbl	(%rax), %eax
	cmpb	%al, %dl
	sete	%al
	popq	%rbp
	ret
	.seh_endproc
	.section	.text$_ZNKSt7__cxx1112basic_stringIcSt11char_traitsIcESaIcEE7_M_dataEv,"x"
	.linkonce discard
	.align 2
	.globl	_ZNKSt7__cxx1112basic_stringIcSt11char_traitsIcESaIcEE7_M_dataEv
	.def	_ZNKSt7__cxx1112basic_stringIcSt11char_traitsIcESaIcEE7_M_dataEv;	.scl	2;	.type	32;	.endef
	.seh_proc	_ZNKSt7__cxx1112basic_stringIcSt11char_traitsIcESaIcEE7_M_dataEv
_ZNKSt7__cxx1112basic_stringIcSt11char_traitsIcESaIcEE7_M_dataEv:
.LFB11576:
	pushq	%rbp
	.seh_pushreg	%rbp
	movq	%rsp, %rbp
	.seh_setframe	%rbp, 0
	.seh_endprologue
	movq	%rcx, 16(%rbp)
	movq	16(%rbp), %rax
	movq	(%rax), %rax
	popq	%rbp
	ret
	.seh_endproc
	.section	.text$_ZNSt7__cxx1112basic_stringIcSt11char_traitsIcESaIcEE13_M_local_dataEv,"x"
	.linkonce discard
	.align 2
	.globl	_ZNSt7__cxx1112basic_stringIcSt11char_traitsIcESaIcEE13_M_local_dataEv
	.def	_ZNSt7__cxx1112basic_stringIcSt11char_traitsIcESaIcEE13_M_local_dataEv;	.scl	2;	.type	32;	.endef
	.seh_proc	_ZNSt7__cxx1112basic_stringIcSt11char_traitsIcESaIcEE13_M_local_dataEv
_ZNSt7__cxx1112basic_stringIcSt11char_traitsIcESaIcEE13_M_local_dataEv:
.LFB11577:
	pushq	%rbp
	.seh_pushreg	%rbp
	movq	%rsp, %rbp
	.seh_setframe	%rbp, 0
	subq	$32, %rsp
	.seh_stackalloc	32
	.seh_endprologue
	movq	%rcx, 16(%rbp)
	movq	16(%rbp), %rax
	addq	$16, %rax
	movq	%rax, %rcx
	call	_ZNSt19__ptr_traits_ptr_toIPccLb0EE10pointer_toERc
	addq	$32, %rsp
	popq	%rbp
	ret
	.seh_endproc
	.section	.text$_ZNSt7__cxx1112basic_stringIcSt11char_traitsIcESaIcEE12_Alloc_hiderC1EPcOS3_,"x"
	.linkonce discard
	.align 2
	.globl	_ZNSt7__cxx1112basic_stringIcSt11char_traitsIcESaIcEE12_Alloc_hiderC1EPcOS3_
	.def	_ZNSt7__cxx1112basic_stringIcSt11char_traitsIcESaIcEE12_Alloc_hiderC1EPcOS3_;	.scl	2;	.type	32;	.endef
	.seh_proc	_ZNSt7__cxx1112basic_stringIcSt11char_traitsIcESaIcEE12_Alloc_hiderC1EPcOS3_
_ZNSt7__cxx1112basic_stringIcSt11char_traitsIcESaIcEE12_Alloc_hiderC1EPcOS3_:
.LFB11580:
	pushq	%rbp
	.seh_pushreg	%rbp
	movq	%rsp, %rbp
	.seh_setframe	%rbp, 0
	subq	$48, %rsp
	.seh_stackalloc	48
	.seh_endprologue
	movq	%rcx, 16(%rbp)
	movq	%rdx, 24(%rbp)
	movq	%r8, 32(%rbp)
	movq	32(%rbp), %rax
	movq	%rax, -40(%rbp)
	movq	-40(%rbp), %rax
	movq	16(%rbp), %rdx
	movq	%rdx, -8(%rbp)
	movq	%rax, -16(%rbp)
	movq	-8(%rbp), %rax
	movq	%rax, -24(%rbp)
	movq	-16(%rbp), %rax
	movq	%rax, -32(%rbp)
	nop
	nop
	movq	16(%rbp), %rax
	movq	24(%rbp), %rdx
	movq	%rdx, (%rax)
	nop
	addq	$48, %rsp
	popq	%rbp
	ret
	.seh_endproc
	.section	.text$_ZNSt7__cxx1112basic_stringIcSt11char_traitsIcESaIcEE13_M_set_lengthEy,"x"
	.linkonce discard
	.align 2
	.globl	_ZNSt7__cxx1112basic_stringIcSt11char_traitsIcESaIcEE13_M_set_lengthEy
	.def	_ZNSt7__cxx1112basic_stringIcSt11char_traitsIcESaIcEE13_M_set_lengthEy;	.scl	2;	.type	32;	.endef
	.seh_proc	_ZNSt7__cxx1112basic_stringIcSt11char_traitsIcESaIcEE13_M_set_lengthEy
_ZNSt7__cxx1112basic_stringIcSt11char_traitsIcESaIcEE13_M_set_lengthEy:
.LFB11582:
	pushq	%rbp
	.seh_pushreg	%rbp
	movq	%rsp, %rbp
	.seh_setframe	%rbp, 0
	subq	$48, %rsp
	.seh_stackalloc	48
	.seh_endprologue
	movq	%rcx, 16(%rbp)
	movq	%rdx, 24(%rbp)
	movq	24(%rbp), %rdx
	movq	16(%rbp), %rax
	movq	%rax, %rcx
	call	_ZNSt7__cxx1112basic_stringIcSt11char_traitsIcESaIcEE9_M_lengthEy
	movb	$0, -1(%rbp)
	movq	16(%rbp), %rax
	movq	%rax, %rcx
	call	_ZNKSt7__cxx1112basic_stringIcSt11char_traitsIcESaIcEE7_M_dataEv
	movq	24(%rbp), %rdx
	leaq	(%rax,%rdx), %rcx
	leaq	-1(%rbp), %rax
	movq	%rax, %rdx
	call	_ZNSt11char_traitsIcE6assignERcRKc
	nop
	addq	$48, %rsp
	popq	%rbp
	ret
	.seh_endproc
	.section	.text$_ZNSt7__cxx1112basic_stringIcSt11char_traitsIcESaIcEE10_M_disposeEv,"x"
	.linkonce discard
	.align 2
	.globl	_ZNSt7__cxx1112basic_stringIcSt11char_traitsIcESaIcEE10_M_disposeEv
	.def	_ZNSt7__cxx1112basic_stringIcSt11char_traitsIcESaIcEE10_M_disposeEv;	.scl	2;	.type	32;	.endef
	.seh_proc	_ZNSt7__cxx1112basic_stringIcSt11char_traitsIcESaIcEE10_M_disposeEv
_ZNSt7__cxx1112basic_stringIcSt11char_traitsIcESaIcEE10_M_disposeEv:
.LFB11583:
	pushq	%rbp
	.seh_pushreg	%rbp
	movq	%rsp, %rbp
	.seh_setframe	%rbp, 0
	subq	$32, %rsp
	.seh_stackalloc	32
	.seh_endprologue
	movq	%rcx, 16(%rbp)
	movq	16(%rbp), %rax
	movq	%rax, %rcx
	call	_ZNKSt7__cxx1112basic_stringIcSt11char_traitsIcESaIcEE11_M_is_localEv
	xorl	$1, %eax
	testb	%al, %al
	je	.L370
	movq	16(%rbp), %rax
	movq	16(%rax), %rdx
	movq	16(%rbp), %rax
	movq	%rax, %rcx
	call	_ZNSt7__cxx1112basic_stringIcSt11char_traitsIcESaIcEE10_M_destroyEy
.L370:
	nop
	addq	$32, %rsp
	popq	%rbp
	ret
	.seh_endproc
	.section	.text$_ZNSt7__cxx1112basic_stringIcSt11char_traitsIcESaIcEE16_M_get_allocatorEv,"x"
	.linkonce discard
	.align 2
	.globl	_ZNSt7__cxx1112basic_stringIcSt11char_traitsIcESaIcEE16_M_get_allocatorEv
	.def	_ZNSt7__cxx1112basic_stringIcSt11char_traitsIcESaIcEE16_M_get_allocatorEv;	.scl	2;	.type	32;	.endef
	.seh_proc	_ZNSt7__cxx1112basic_stringIcSt11char_traitsIcESaIcEE16_M_get_allocatorEv
_ZNSt7__cxx1112basic_stringIcSt11char_traitsIcESaIcEE16_M_get_allocatorEv:
.LFB11586:
	pushq	%rbp
	.seh_pushreg	%rbp
	movq	%rsp, %rbp
	.seh_setframe	%rbp, 0
	.seh_endprologue
	movq	%rcx, 16(%rbp)
	movq	16(%rbp), %rax
	popq	%rbp
	ret
	.seh_endproc
	.section	.text$_ZNKSt7__cxx1112basic_stringIcSt11char_traitsIcESaIcEE11_M_is_localEv,"x"
	.linkonce discard
	.align 2
	.globl	_ZNKSt7__cxx1112basic_stringIcSt11char_traitsIcESaIcEE11_M_is_localEv
	.def	_ZNKSt7__cxx1112basic_stringIcSt11char_traitsIcESaIcEE11_M_is_localEv;	.scl	2;	.type	32;	.endef
	.seh_proc	_ZNKSt7__cxx1112basic_stringIcSt11char_traitsIcESaIcEE11_M_is_localEv
_ZNKSt7__cxx1112basic_stringIcSt11char_traitsIcESaIcEE11_M_is_localEv:
.LFB11588:
	pushq	%rbp
	.seh_pushreg	%rbp
	pushq	%rbx
	.seh_pushreg	%rbx
	subq	$40, %rsp
	.seh_stackalloc	40
	leaq	32(%rsp), %rbp
	.seh_setframe	%rbp, 32
	.seh_endprologue
	movq	%rcx, 32(%rbp)
	movq	32(%rbp), %rax
	movq	%rax, %rcx
	call	_ZNKSt7__cxx1112basic_stringIcSt11char_traitsIcESaIcEE7_M_dataEv
	movq	%rax, %rbx
	movq	32(%rbp), %rax
	movq	%rax, %rcx
	call	_ZNKSt7__cxx1112basic_stringIcSt11char_traitsIcESaIcEE13_M_local_dataEv
	cmpq	%rax, %rbx
	sete	%al
	testb	%al, %al
	je	.L374
	movq	32(%rbp), %rax
	movq	8(%rax), %rax
	cmpq	$15, %rax
	movl	$1, %eax
	jmp	.L376
.L374:
	movl	$0, %eax
.L376:
	addq	$40, %rsp
	popq	%rbx
	popq	%rbp
	ret
	.seh_endproc
	.section	.text$_ZNSt7__cxx1112basic_stringIcSt11char_traitsIcESaIcEE7_M_dataEPc,"x"
	.linkonce discard
	.align 2
	.globl	_ZNSt7__cxx1112basic_stringIcSt11char_traitsIcESaIcEE7_M_dataEPc
	.def	_ZNSt7__cxx1112basic_stringIcSt11char_traitsIcESaIcEE7_M_dataEPc;	.scl	2;	.type	32;	.endef
	.seh_proc	_ZNSt7__cxx1112basic_stringIcSt11char_traitsIcESaIcEE7_M_dataEPc
_ZNSt7__cxx1112basic_stringIcSt11char_traitsIcESaIcEE7_M_dataEPc:
.LFB11590:
	pushq	%rbp
	.seh_pushreg	%rbp
	movq	%rsp, %rbp
	.seh_setframe	%rbp, 0
	.seh_endprologue
	movq	%rcx, 16(%rbp)
	movq	%rdx, 24(%rbp)
	movq	16(%rbp), %rax
	movq	24(%rbp), %rdx
	movq	%rdx, (%rax)
	nop
	popq	%rbp
	ret
	.seh_endproc
	.section	.text$_ZNSt7__cxx1112basic_stringIcSt11char_traitsIcESaIcEE11_M_capacityEy,"x"
	.linkonce discard
	.align 2
	.globl	_ZNSt7__cxx1112basic_stringIcSt11char_traitsIcESaIcEE11_M_capacityEy
	.def	_ZNSt7__cxx1112basic_stringIcSt11char_traitsIcESaIcEE11_M_capacityEy;	.scl	2;	.type	32;	.endef
	.seh_proc	_ZNSt7__cxx1112basic_stringIcSt11char_traitsIcESaIcEE11_M_capacityEy
_ZNSt7__cxx1112basic_stringIcSt11char_traitsIcESaIcEE11_M_capacityEy:
.LFB11591:
	pushq	%rbp
	.seh_pushreg	%rbp
	movq	%rsp, %rbp
	.seh_setframe	%rbp, 0
	.seh_endprologue
	movq	%rcx, 16(%rbp)
	movq	%rdx, 24(%rbp)
	movq	16(%rbp), %rax
	movq	24(%rbp), %rdx
	movq	%rdx, 16(%rax)
	nop
	popq	%rbp
	ret
	.seh_endproc
	.section	.text$_ZNSt7__cxx1112basic_stringIcSt11char_traitsIcESaIcEE9_M_lengthEy,"x"
	.linkonce discard
	.align 2
	.globl	_ZNSt7__cxx1112basic_stringIcSt11char_traitsIcESaIcEE9_M_lengthEy
	.def	_ZNSt7__cxx1112basic_stringIcSt11char_traitsIcESaIcEE9_M_lengthEy;	.scl	2;	.type	32;	.endef
	.seh_proc	_ZNSt7__cxx1112basic_stringIcSt11char_traitsIcESaIcEE9_M_lengthEy
_ZNSt7__cxx1112basic_stringIcSt11char_traitsIcESaIcEE9_M_lengthEy:
.LFB11592:
	pushq	%rbp
	.seh_pushreg	%rbp
	movq	%rsp, %rbp
	.seh_setframe	%rbp, 0
	.seh_endprologue
	movq	%rcx, 16(%rbp)
	movq	%rdx, 24(%rbp)
	movq	16(%rbp), %rax
	movq	24(%rbp), %rdx
	movq	%rdx, 8(%rax)
	nop
	popq	%rbp
	ret
	.seh_endproc
	.section	.text$_ZNKSt7__cxx1112basic_stringIcSt11char_traitsIcESaIcEE4dataEv,"x"
	.linkonce discard
	.align 2
	.globl	_ZNKSt7__cxx1112basic_stringIcSt11char_traitsIcESaIcEE4dataEv
	.def	_ZNKSt7__cxx1112basic_stringIcSt11char_traitsIcESaIcEE4dataEv;	.scl	2;	.type	32;	.endef
	.seh_proc	_ZNKSt7__cxx1112basic_stringIcSt11char_traitsIcESaIcEE4dataEv
_ZNKSt7__cxx1112basic_stringIcSt11char_traitsIcESaIcEE4dataEv:
.LFB11622:
	pushq	%rbp
	.seh_pushreg	%rbp
	movq	%rsp, %rbp
	.seh_setframe	%rbp, 0
	subq	$32, %rsp
	.seh_stackalloc	32
	.seh_endprologue
	movq	%rcx, 16(%rbp)
	movq	16(%rbp), %rax
	movq	%rax, %rcx
	call	_ZNKSt7__cxx1112basic_stringIcSt11char_traitsIcESaIcEE7_M_dataEv
	addq	$32, %rsp
	popq	%rbp
	ret
	.seh_endproc
	.section	.text$_ZNKSt7__cxx1112basic_stringIcSt11char_traitsIcESaIcEE4sizeEv,"x"
	.linkonce discard
	.align 2
	.globl	_ZNKSt7__cxx1112basic_stringIcSt11char_traitsIcESaIcEE4sizeEv
	.def	_ZNKSt7__cxx1112basic_stringIcSt11char_traitsIcESaIcEE4sizeEv;	.scl	2;	.type	32;	.endef
	.seh_proc	_ZNKSt7__cxx1112basic_stringIcSt11char_traitsIcESaIcEE4sizeEv
_ZNKSt7__cxx1112basic_stringIcSt11char_traitsIcESaIcEE4sizeEv:
.LFB11623:
	pushq	%rbp
	.seh_pushreg	%rbp
	movq	%rsp, %rbp
	.seh_setframe	%rbp, 0
	subq	$48, %rsp
	.seh_stackalloc	48
	.seh_endprologue
	movq	%rcx, 16(%rbp)
	movq	16(%rbp), %rax
	movq	8(%rax), %rax
	movq	%rax, -8(%rbp)
	movq	16(%rbp), %rax
	movq	%rax, %rcx
	call	_ZNKSt7__cxx1112basic_stringIcSt11char_traitsIcESaIcEE8max_sizeEv
	cmpq	-8(%rbp), %rax
	setb	%al
	testb	%al, %al
	movq	-8(%rbp), %rax
	addq	$48, %rsp
	popq	%rbp
	ret
	.seh_endproc
	.section	.text$_ZNSt15__new_allocatorIcED2Ev,"x"
	.linkonce discard
	.align 2
	.globl	_ZNSt15__new_allocatorIcED2Ev
	.def	_ZNSt15__new_allocatorIcED2Ev;	.scl	2;	.type	32;	.endef
	.seh_proc	_ZNSt15__new_allocatorIcED2Ev
_ZNSt15__new_allocatorIcED2Ev:
.LFB11628:
	pushq	%rbp
	.seh_pushreg	%rbp
	movq	%rsp, %rbp
	.seh_setframe	%rbp, 0
	.seh_endprologue
	movq	%rcx, 16(%rbp)
	nop
	popq	%rbp
	ret
	.seh_endproc
	.section	.text$_ZNSt7__cxx1112basic_stringIcSt11char_traitsIcESaIcEE12_Alloc_hiderC1EPcRKS3_,"x"
	.linkonce discard
	.align 2
	.globl	_ZNSt7__cxx1112basic_stringIcSt11char_traitsIcESaIcEE12_Alloc_hiderC1EPcRKS3_
	.def	_ZNSt7__cxx1112basic_stringIcSt11char_traitsIcESaIcEE12_Alloc_hiderC1EPcRKS3_;	.scl	2;	.type	32;	.endef
	.seh_proc	_ZNSt7__cxx1112basic_stringIcSt11char_traitsIcESaIcEE12_Alloc_hiderC1EPcRKS3_
_ZNSt7__cxx1112basic_stringIcSt11char_traitsIcESaIcEE12_Alloc_hiderC1EPcRKS3_:
.LFB11632:
	pushq	%rbp
	.seh_pushreg	%rbp
	movq	%rsp, %rbp
	.seh_setframe	%rbp, 0
	subq	$32, %rsp
	.seh_stackalloc	32
	.seh_endprologue
	movq	%rcx, 16(%rbp)
	movq	%rdx, 24(%rbp)
	movq	%r8, 32(%rbp)
	movq	16(%rbp), %rax
	movq	%rax, -8(%rbp)
	movq	32(%rbp), %rax
	movq	%rax, -16(%rbp)
	movq	-8(%rbp), %rax
	movq	%rax, -24(%rbp)
	movq	-16(%rbp), %rax
	movq	%rax, -32(%rbp)
	nop
	nop
	movq	16(%rbp), %rax
	movq	24(%rbp), %rdx
	movq	%rdx, (%rax)
	nop
	addq	$32, %rsp
	popq	%rbp
	ret
	.seh_endproc
	.section	.text$_ZZNSt7__cxx1112basic_stringIcSt11char_traitsIcESaIcEE12_M_constructIPKcEEvT_S8_St20forward_iterator_tagEN6_GuardC1EPS4_,"x"
	.linkonce discard
	.align 2
	.globl	_ZZNSt7__cxx1112basic_stringIcSt11char_traitsIcESaIcEE12_M_constructIPKcEEvT_S8_St20forward_iterator_tagEN6_GuardC1EPS4_
	.def	_ZZNSt7__cxx1112basic_stringIcSt11char_traitsIcESaIcEE12_M_constructIPKcEEvT_S8_St20forward_iterator_tagEN6_GuardC1EPS4_;	.scl	2;	.type	32;	.endef
	.seh_proc	_ZZNSt7__cxx1112basic_stringIcSt11char_traitsIcESaIcEE12_M_constructIPKcEEvT_S8_St20forward_iterator_tagEN6_GuardC1EPS4_
_ZZNSt7__cxx1112basic_stringIcSt11char_traitsIcESaIcEE12_M_constructIPKcEEvT_S8_St20forward_iterator_tagEN6_GuardC1EPS4_:
.LFB11636:
	pushq	%rbp
	.seh_pushreg	%rbp
	movq	%rsp, %rbp
	.seh_setframe	%rbp, 0
	.seh_endprologue
	movq	%rcx, 16(%rbp)
	movq	%rdx, 24(%rbp)
	movq	16(%rbp), %rax
	movq	24(%rbp), %rdx
	movq	%rdx, (%rax)
	nop
	popq	%rbp
	ret
	.seh_endproc
	.section	.text$_ZZNSt7__cxx1112basic_stringIcSt11char_traitsIcESaIcEE12_M_constructIPKcEEvT_S8_St20forward_iterator_tagEN6_GuardD1Ev,"x"
	.linkonce discard
	.align 2
	.globl	_ZZNSt7__cxx1112basic_stringIcSt11char_traitsIcESaIcEE12_M_constructIPKcEEvT_S8_St20forward_iterator_tagEN6_GuardD1Ev
	.def	_ZZNSt7__cxx1112basic_stringIcSt11char_traitsIcESaIcEE12_M_constructIPKcEEvT_S8_St20forward_iterator_tagEN6_GuardD1Ev;	.scl	2;	.type	32;	.endef
	.seh_proc	_ZZNSt7__cxx1112basic_stringIcSt11char_traitsIcESaIcEE12_M_constructIPKcEEvT_S8_St20forward_iterator_tagEN6_GuardD1Ev
_ZZNSt7__cxx1112basic_stringIcSt11char_traitsIcESaIcEE12_M_constructIPKcEEvT_S8_St20forward_iterator_tagEN6_GuardD1Ev:
.LFB11639:
	pushq	%rbp
	.seh_pushreg	%rbp
	movq	%rsp, %rbp
	.seh_setframe	%rbp, 0
	subq	$32, %rsp
	.seh_stackalloc	32
	.seh_endprologue
	movq	%rcx, 16(%rbp)
	movq	16(%rbp), %rax
	movq	(%rax), %rax
	testq	%rax, %rax
	je	.L390
	movq	16(%rbp), %rax
	movq	(%rax), %rax
	movq	%rax, %rcx
	call	_ZNSt7__cxx1112basic_stringIcSt11char_traitsIcESaIcEE10_M_disposeEv
.L390:
	nop
	addq	$32, %rsp
	popq	%rbp
	ret
	.seh_handler	__gxx_personality_seh0, @unwind, @except
	.seh_handlerdata
.LLSDA11639:
	.byte	0xff
	.byte	0xff
	.byte	0x1
	.uleb128 .LLSDACSE11639-.LLSDACSB11639
.LLSDACSB11639:
.LLSDACSE11639:
	.section	.text$_ZZNSt7__cxx1112basic_stringIcSt11char_traitsIcESaIcEE12_M_constructIPKcEEvT_S8_St20forward_iterator_tagEN6_GuardD1Ev,"x"
	.linkonce discard
	.seh_endproc
	.section	.text$_ZNSt7__cxx1112basic_stringIcSt11char_traitsIcESaIcEE12_M_constructIPKcEEvT_S8_St20forward_iterator_tag,"x"
	.linkonce discard
	.align 2
	.globl	_ZNSt7__cxx1112basic_stringIcSt11char_traitsIcESaIcEE12_M_constructIPKcEEvT_S8_St20forward_iterator_tag
	.def	_ZNSt7__cxx1112basic_stringIcSt11char_traitsIcESaIcEE12_M_constructIPKcEEvT_S8_St20forward_iterator_tag;	.scl	2;	.type	32;	.endef
	.seh_proc	_ZNSt7__cxx1112basic_stringIcSt11char_traitsIcESaIcEE12_M_constructIPKcEEvT_S8_St20forward_iterator_tag
_ZNSt7__cxx1112basic_stringIcSt11char_traitsIcESaIcEE12_M_constructIPKcEEvT_S8_St20forward_iterator_tag:
.LFB11633:
	pushq	%rbp
	.seh_pushreg	%rbp
	movq	%rsp, %rbp
	.seh_setframe	%rbp, 0
	subq	$96, %rsp
	.seh_stackalloc	96
	.seh_endprologue
	movq	%rcx, 16(%rbp)
	movq	%rdx, 24(%rbp)
	movq	%r8, 32(%rbp)
	movq	24(%rbp), %rax
	movq	%rax, -56(%rbp)
	movq	32(%rbp), %rax
	movq	%rax, -8(%rbp)
	nop
	movq	-56(%rbp), %rax
	movq	%rax, -16(%rbp)
	movq	-8(%rbp), %rax
	movq	%rax, -24(%rbp)
	movq	-24(%rbp), %rax
	subq	-16(%rbp), %rax
	nop
	movq	%rax, -40(%rbp)
	movq	-40(%rbp), %rax
	cmpq	$15, %rax
	jbe	.L395
	leaq	-40(%rbp), %rdx
	movq	16(%rbp), %rax
	movl	$0, %r8d
	movq	%rax, %rcx
	call	_ZNSt7__cxx1112basic_stringIcSt11char_traitsIcESaIcEE9_M_createERyy
	movq	%rax, %rdx
	movq	16(%rbp), %rax
	movq	%rax, %rcx
	call	_ZNSt7__cxx1112basic_stringIcSt11char_traitsIcESaIcEE7_M_dataEPc
	movq	-40(%rbp), %rdx
	movq	16(%rbp), %rax
	movq	%rax, %rcx
	call	_ZNSt7__cxx1112basic_stringIcSt11char_traitsIcESaIcEE11_M_capacityEy
	jmp	.L396
.L395:
	movq	16(%rbp), %rax
	movq	%rax, -32(%rbp)
	nop
.L396:
	movq	16(%rbp), %rdx
	leaq	-48(%rbp), %rax
	movq	%rax, %rcx
	call	_ZZNSt7__cxx1112basic_stringIcSt11char_traitsIcESaIcEE12_M_constructIPKcEEvT_S8_St20forward_iterator_tagEN6_GuardC1EPS4_
	movq	16(%rbp), %rax
	movq	%rax, %rcx
	call	_ZNKSt7__cxx1112basic_stringIcSt11char_traitsIcESaIcEE7_M_dataEv
	movq	%rax, %rcx
	movq	32(%rbp), %rdx
	movq	24(%rbp), %rax
	movq	%rdx, %r8
	movq	%rax, %rdx
	call	_ZNSt7__cxx1112basic_stringIcSt11char_traitsIcESaIcEE13_S_copy_charsIPKcEEvPcT_S9_
	movq	$0, -48(%rbp)
	movq	-40(%rbp), %rdx
	movq	16(%rbp), %rax
	movq	%rax, %rcx
	call	_ZNSt7__cxx1112basic_stringIcSt11char_traitsIcESaIcEE13_M_set_lengthEy
	leaq	-48(%rbp), %rax
	movq	%rax, %rcx
	call	_ZZNSt7__cxx1112basic_stringIcSt11char_traitsIcESaIcEE12_M_constructIPKcEEvT_S8_St20forward_iterator_tagEN6_GuardD1Ev
	nop
	addq	$96, %rsp
	popq	%rbp
	ret
	.seh_endproc
	.section	.text$_ZNSt12_Vector_baseIySaIyEE17_Vector_impl_dataC2Ev,"x"
	.linkonce discard
	.align 2
	.globl	_ZNSt12_Vector_baseIySaIyEE17_Vector_impl_dataC2Ev
	.def	_ZNSt12_Vector_baseIySaIyEE17_Vector_impl_dataC2Ev;	.scl	2;	.type	32;	.endef
	.seh_proc	_ZNSt12_Vector_baseIySaIyEE17_Vector_impl_dataC2Ev
_ZNSt12_Vector_baseIySaIyEE17_Vector_impl_dataC2Ev:
.LFB11888:
	pushq	%rbp
	.seh_pushreg	%rbp
	movq	%rsp, %rbp
	.seh_setframe	%rbp, 0
	.seh_endprologue
	movq	%rcx, 16(%rbp)
	movq	16(%rbp), %rax
	movq	$0, (%rax)
	movq	16(%rbp), %rax
	movq	$0, 8(%rax)
	movq	16(%rbp), %rax
	movq	$0, 16(%rax)
	nop
	popq	%rbp
	ret
	.seh_endproc
	.section	.text$_ZNSt15__new_allocatorIyED2Ev,"x"
	.linkonce discard
	.align 2
	.globl	_ZNSt15__new_allocatorIyED2Ev
	.def	_ZNSt15__new_allocatorIyED2Ev;	.scl	2;	.type	32;	.endef
	.seh_proc	_ZNSt15__new_allocatorIyED2Ev
_ZNSt15__new_allocatorIyED2Ev:
.LFB11891:
	pushq	%rbp
	.seh_pushreg	%rbp
	movq	%rsp, %rbp
	.seh_setframe	%rbp, 0
	.seh_endprologue
	movq	%rcx, 16(%rbp)
	nop
	popq	%rbp
	ret
	.seh_endproc
	.section	.text$_ZNSt12_Vector_baseIySaIyEE13_M_deallocateEPyy,"x"
	.linkonce discard
	.align 2
	.globl	_ZNSt12_Vector_baseIySaIyEE13_M_deallocateEPyy
	.def	_ZNSt12_Vector_baseIySaIyEE13_M_deallocateEPyy;	.scl	2;	.type	32;	.endef
	.seh_proc	_ZNSt12_Vector_baseIySaIyEE13_M_deallocateEPyy
_ZNSt12_Vector_baseIySaIyEE13_M_deallocateEPyy:
.LFB11893:
	pushq	%rbp
	.seh_pushreg	%rbp
	movq	%rsp, %rbp
	.seh_setframe	%rbp, 0
	subq	$64, %rsp
	.seh_stackalloc	64
	.seh_endprologue
	movq	%rcx, 16(%rbp)
	movq	%rdx, 24(%rbp)
	movq	%r8, 32(%rbp)
	cmpq	$0, 24(%rbp)
	je	.L401
	movq	16(%rbp), %rax
	movq	%rax, -8(%rbp)
	movq	24(%rbp), %rax
	movq	%rax, -16(%rbp)
	movq	32(%rbp), %rax
	movq	%rax, -24(%rbp)
	movq	-24(%rbp), %rcx
	movq	-16(%rbp), %rdx
	movq	-8(%rbp), %rax
	movq	%rcx, %r8
	movq	%rax, %rcx
	call	_ZNSt15__new_allocatorIyE10deallocateEPyy
	nop
.L401:
	nop
	addq	$64, %rsp
	popq	%rbp
	ret
	.seh_endproc
	.section	.text$_ZNSt12_Vector_baseIySaIyEE19_M_get_Tp_allocatorEv,"x"
	.linkonce discard
	.align 2
	.globl	_ZNSt12_Vector_baseIySaIyEE19_M_get_Tp_allocatorEv
	.def	_ZNSt12_Vector_baseIySaIyEE19_M_get_Tp_allocatorEv;	.scl	2;	.type	32;	.endef
	.seh_proc	_ZNSt12_Vector_baseIySaIyEE19_M_get_Tp_allocatorEv
_ZNSt12_Vector_baseIySaIyEE19_M_get_Tp_allocatorEv:
.LFB11894:
	pushq	%rbp
	.seh_pushreg	%rbp
	movq	%rsp, %rbp
	.seh_setframe	%rbp, 0
	.seh_endprologue
	movq	%rcx, 16(%rbp)
	movq	16(%rbp), %rax
	popq	%rbp
	ret
	.seh_endproc
	.section	.text$_ZNSt12_Vector_baseIySaIyEEC2ERKS0_,"x"
	.linkonce discard
	.align 2
	.globl	_ZNSt12_Vector_baseIySaIyEEC2ERKS0_
	.def	_ZNSt12_Vector_baseIySaIyEEC2ERKS0_;	.scl	2;	.type	32;	.endef
	.seh_proc	_ZNSt12_Vector_baseIySaIyEEC2ERKS0_
_ZNSt12_Vector_baseIySaIyEEC2ERKS0_:
.LFB11997:
	pushq	%rbp
	.seh_pushreg	%rbp
	movq	%rsp, %rbp
	.seh_setframe	%rbp, 0
	subq	$32, %rsp
	.seh_stackalloc	32
	.seh_endprologue
	movq	%rcx, 16(%rbp)
	movq	%rdx, 24(%rbp)
	movq	16(%rbp), %rax
	movq	24(%rbp), %rdx
	movq	%rax, %rcx
	call	_ZNSt12_Vector_baseIySaIyEE12_Vector_implC1ERKS0_
	nop
	addq	$32, %rsp
	popq	%rbp
	ret
	.seh_endproc
	.section	.text$_ZNKSt16initializer_listIyE5beginEv,"x"
	.linkonce discard
	.align 2
	.globl	_ZNKSt16initializer_listIyE5beginEv
	.def	_ZNKSt16initializer_listIyE5beginEv;	.scl	2;	.type	32;	.endef
	.seh_proc	_ZNKSt16initializer_listIyE5beginEv
_ZNKSt16initializer_listIyE5beginEv:
.LFB11999:
	pushq	%rbp
	.seh_pushreg	%rbp
	movq	%rsp, %rbp
	.seh_setframe	%rbp, 0
	.seh_endprologue
	movq	%rcx, 16(%rbp)
	movq	16(%rbp), %rax
	movq	(%rax), %rax
	popq	%rbp
	ret
	.seh_endproc
	.section	.text$_ZNKSt16initializer_listIyE3endEv,"x"
	.linkonce discard
	.align 2
	.globl	_ZNKSt16initializer_listIyE3endEv
	.def	_ZNKSt16initializer_listIyE3endEv;	.scl	2;	.type	32;	.endef
	.seh_proc	_ZNKSt16initializer_listIyE3endEv
_ZNKSt16initializer_listIyE3endEv:
.LFB12000:
	pushq	%rbp
	.seh_pushreg	%rbp
	pushq	%rbx
	.seh_pushreg	%rbx
	subq	$40, %rsp
	.seh_stackalloc	40
	leaq	32(%rsp), %rbp
	.seh_setframe	%rbp, 32
	.seh_endprologue
	movq	%rcx, 32(%rbp)
	movq	32(%rbp), %rax
	movq	%rax, %rcx
	call	_ZNKSt16initializer_listIyE5beginEv
	movq	%rax, %rbx
	movq	32(%rbp), %rax
	movq	%rax, %rcx
	call	_ZNKSt16initializer_listIyE4sizeEv
	salq	$3, %rax
	addq	%rbx, %rax
	addq	$40, %rsp
	popq	%rbx
	popq	%rbp
	ret
	.seh_endproc
	.section	.text$_ZNKSt16initializer_listIyE4sizeEv,"x"
	.linkonce discard
	.align 2
	.globl	_ZNKSt16initializer_listIyE4sizeEv
	.def	_ZNKSt16initializer_listIyE4sizeEv;	.scl	2;	.type	32;	.endef
	.seh_proc	_ZNKSt16initializer_listIyE4sizeEv
_ZNKSt16initializer_listIyE4sizeEv:
.LFB12001:
	pushq	%rbp
	.seh_pushreg	%rbp
	movq	%rsp, %rbp
	.seh_setframe	%rbp, 0
	.seh_endprologue
	movq	%rcx, 16(%rbp)
	movq	16(%rbp), %rax
	movq	8(%rax), %rax
	popq	%rbp
	ret
	.seh_endproc
	.section	.text$_ZNSt6vectorIySaIyEE21_M_range_initialize_nIPKyS4_EEvT_T0_y,"x"
	.linkonce discard
	.align 2
	.globl	_ZNSt6vectorIySaIyEE21_M_range_initialize_nIPKyS4_EEvT_T0_y
	.def	_ZNSt6vectorIySaIyEE21_M_range_initialize_nIPKyS4_EEvT_T0_y;	.scl	2;	.type	32;	.endef
	.seh_proc	_ZNSt6vectorIySaIyEE21_M_range_initialize_nIPKyS4_EEvT_T0_y
_ZNSt6vectorIySaIyEE21_M_range_initialize_nIPKyS4_EEvT_T0_y:
.LFB12002:
	pushq	%rbp
	.seh_pushreg	%rbp
	pushq	%rbx
	.seh_pushreg	%rbx
	subq	$56, %rsp
	.seh_stackalloc	56
	leaq	48(%rsp), %rbp
	.seh_setframe	%rbp, 48
	.seh_endprologue
	movq	%rcx, 32(%rbp)
	movq	%rdx, 40(%rbp)
	movq	%r8, 48(%rbp)
	movq	%r9, 56(%rbp)
	movq	32(%rbp), %rbx
	movq	32(%rbp), %rax
	movq	%rax, %rcx
	call	_ZNSt12_Vector_baseIySaIyEE19_M_get_Tp_allocatorEv
	movq	%rax, %rdx
	movq	56(%rbp), %rax
	movq	%rax, %rcx
	call	_ZNSt6vectorIySaIyEE17_S_check_init_lenEyRKS0_
	movq	%rax, %rdx
	movq	%rbx, %rcx
	call	_ZNSt12_Vector_baseIySaIyEE11_M_allocateEy
	movq	%rax, -8(%rbp)
	movq	32(%rbp), %rax
	movq	-8(%rbp), %rdx
	movq	%rdx, 8(%rax)
	movq	32(%rbp), %rax
	movq	8(%rax), %rdx
	movq	32(%rbp), %rax
	movq	%rdx, (%rax)
	movq	56(%rbp), %rax
	leaq	0(,%rax,8), %rdx
	movq	-8(%rbp), %rax
	addq	%rax, %rdx
	movq	32(%rbp), %rax
	movq	%rdx, 16(%rax)
	movq	32(%rbp), %rax
	movq	%rax, %rcx
	call	_ZNSt12_Vector_baseIySaIyEE19_M_get_Tp_allocatorEv
	movq	%rax, %rcx
	leaq	40(%rbp), %rax
	movq	(%rax), %rax
	movq	-8(%rbp), %r8
	movq	48(%rbp), %rdx
	movq	%rcx, %r9
	movq	%rax, %rcx
	call	_ZSt22__uninitialized_copy_aIPKyS1_PyyET1_T_T0_S3_RSaIT2_E
	movq	32(%rbp), %rdx
	movq	%rax, 8(%rdx)
	nop
	addq	$56, %rsp
	popq	%rbx
	popq	%rbp
	ret
	.seh_endproc
	.section	.text$_ZNSt12_Vector_baseISt6vectorIS0_IfSaIfEESaIS2_EESaIS4_EE19_M_get_Tp_allocatorEv,"x"
	.linkonce discard
	.align 2
	.globl	_ZNSt12_Vector_baseISt6vectorIS0_IfSaIfEESaIS2_EESaIS4_EE19_M_get_Tp_allocatorEv
	.def	_ZNSt12_Vector_baseISt6vectorIS0_IfSaIfEESaIS2_EESaIS4_EE19_M_get_Tp_allocatorEv;	.scl	2;	.type	32;	.endef
	.seh_proc	_ZNSt12_Vector_baseISt6vectorIS0_IfSaIfEESaIS2_EESaIS4_EE19_M_get_Tp_allocatorEv
_ZNSt12_Vector_baseISt6vectorIS0_IfSaIfEESaIS2_EESaIS4_EE19_M_get_Tp_allocatorEv:
.LFB12003:
	pushq	%rbp
	.seh_pushreg	%rbp
	movq	%rsp, %rbp
	.seh_setframe	%rbp, 0
	.seh_endprologue
	movq	%rcx, 16(%rbp)
	movq	16(%rbp), %rax
	popq	%rbp
	ret
	.seh_endproc
	.section	.text$_ZNSt12_Vector_baseISt6vectorIfSaIfEESaIS2_EE19_M_get_Tp_allocatorEv,"x"
	.linkonce discard
	.align 2
	.globl	_ZNSt12_Vector_baseISt6vectorIfSaIfEESaIS2_EE19_M_get_Tp_allocatorEv
	.def	_ZNSt12_Vector_baseISt6vectorIfSaIfEESaIS2_EE19_M_get_Tp_allocatorEv;	.scl	2;	.type	32;	.endef
	.seh_proc	_ZNSt12_Vector_baseISt6vectorIfSaIfEESaIS2_EE19_M_get_Tp_allocatorEv
_ZNSt12_Vector_baseISt6vectorIfSaIfEESaIS2_EE19_M_get_Tp_allocatorEv:
.LFB12005:
	pushq	%rbp
	.seh_pushreg	%rbp
	movq	%rsp, %rbp
	.seh_setframe	%rbp, 0
	.seh_endprologue
	movq	%rcx, 16(%rbp)
	movq	16(%rbp), %rax
	popq	%rbp
	ret
	.seh_endproc
	.section	.text$_ZNKSt12_Vector_baseIySaIyEE19_M_get_Tp_allocatorEv,"x"
	.linkonce discard
	.align 2
	.globl	_ZNKSt12_Vector_baseIySaIyEE19_M_get_Tp_allocatorEv
	.def	_ZNKSt12_Vector_baseIySaIyEE19_M_get_Tp_allocatorEv;	.scl	2;	.type	32;	.endef
	.seh_proc	_ZNKSt12_Vector_baseIySaIyEE19_M_get_Tp_allocatorEv
_ZNKSt12_Vector_baseIySaIyEE19_M_get_Tp_allocatorEv:
.LFB12007:
	pushq	%rbp
	.seh_pushreg	%rbp
	movq	%rsp, %rbp
	.seh_setframe	%rbp, 0
	.seh_endprologue
	movq	%rcx, 16(%rbp)
	movq	16(%rbp), %rax
	popq	%rbp
	ret
	.seh_endproc
	.section	.text$_ZNSt12_Vector_baseIySaIyEEC2EyRKS0_,"x"
	.linkonce discard
	.align 2
	.globl	_ZNSt12_Vector_baseIySaIyEEC2EyRKS0_
	.def	_ZNSt12_Vector_baseIySaIyEEC2EyRKS0_;	.scl	2;	.type	32;	.endef
	.seh_proc	_ZNSt12_Vector_baseIySaIyEEC2EyRKS0_
_ZNSt12_Vector_baseIySaIyEEC2EyRKS0_:
.LFB12010:
	pushq	%rbp
	.seh_pushreg	%rbp
	pushq	%rbx
	.seh_pushreg	%rbx
	subq	$40, %rsp
	.seh_stackalloc	40
	leaq	32(%rsp), %rbp
	.seh_setframe	%rbp, 32
	.seh_endprologue
	movq	%rcx, 32(%rbp)
	movq	%rdx, 40(%rbp)
	movq	%r8, 48(%rbp)
	movq	32(%rbp), %rax
	movq	48(%rbp), %rdx
	movq	%rax, %rcx
	call	_ZNSt12_Vector_baseIySaIyEE12_Vector_implC1ERKS0_
	movq	40(%rbp), %rdx
	movq	32(%rbp), %rax
	movq	%rax, %rcx
.LEHB60:
	call	_ZNSt12_Vector_baseIySaIyEE17_M_create_storageEy
.LEHE60:
	jmp	.L422
.L421:
	movq	%rax, %rbx
	movq	32(%rbp), %rax
	movq	%rax, %rcx
	call	_ZNSt12_Vector_baseIySaIyEE12_Vector_implD1Ev
	movq	%rbx, %rax
	movq	%rax, %rcx
.LEHB61:
	call	_Unwind_Resume
	nop
.LEHE61:
.L422:
	addq	$40, %rsp
	popq	%rbx
	popq	%rbp
	ret
	.seh_handler	__gxx_personality_seh0, @unwind, @except
	.seh_handlerdata
.LLSDA12010:
	.byte	0xff
	.byte	0xff
	.byte	0x1
	.uleb128 .LLSDACSE12010-.LLSDACSB12010
.LLSDACSB12010:
	.uleb128 .LEHB60-.LFB12010
	.uleb128 .LEHE60-.LEHB60
	.uleb128 .L421-.LFB12010
	.uleb128 0
	.uleb128 .LEHB61-.LFB12010
	.uleb128 .LEHE61-.LEHB61
	.uleb128 0
	.uleb128 0
.LLSDACSE12010:
	.section	.text$_ZNSt12_Vector_baseIySaIyEEC2EyRKS0_,"x"
	.linkonce discard
	.seh_endproc
	.section	.text$_ZSt22__uninitialized_copy_aIN9__gnu_cxx17__normal_iteratorIPKySt6vectorIySaIyEEEES7_PyyET1_T_T0_S9_RSaIT2_E,"x"
	.linkonce discard
	.globl	_ZSt22__uninitialized_copy_aIN9__gnu_cxx17__normal_iteratorIPKySt6vectorIySaIyEEEES7_PyyET1_T_T0_S9_RSaIT2_E
	.def	_ZSt22__uninitialized_copy_aIN9__gnu_cxx17__normal_iteratorIPKySt6vectorIySaIyEEEES7_PyyET1_T_T0_S9_RSaIT2_E;	.scl	2;	.type	32;	.endef
	.seh_proc	_ZSt22__uninitialized_copy_aIN9__gnu_cxx17__normal_iteratorIPKySt6vectorIySaIyEEEES7_PyyET1_T_T0_S9_RSaIT2_E
_ZSt22__uninitialized_copy_aIN9__gnu_cxx17__normal_iteratorIPKySt6vectorIySaIyEEEES7_PyyET1_T_T0_S9_RSaIT2_E:
.LFB12012:
	pushq	%rbp
	.seh_pushreg	%rbp
	movq	%rsp, %rbp
	.seh_setframe	%rbp, 0
	subq	$32, %rsp
	.seh_stackalloc	32
	.seh_endprologue
	movq	%rcx, 16(%rbp)
	movq	%rdx, 24(%rbp)
	movq	%r8, 32(%rbp)
	movq	%r9, 40(%rbp)
	movq	32(%rbp), %rcx
	movq	24(%rbp), %rdx
	movq	16(%rbp), %rax
	movq	%rcx, %r8
	movq	%rax, %rcx
	call	_ZSt18uninitialized_copyIN9__gnu_cxx17__normal_iteratorIPKySt6vectorIySaIyEEEEPyET0_T_SA_S9_
	addq	$32, %rsp
	popq	%rbp
	ret
	.seh_endproc
	.section	.text$_ZNSt12_Vector_baseISt6vectorIS0_IfSaIfEESaIS2_EESaIS4_EE17_Vector_impl_dataC2Ev,"x"
	.linkonce discard
	.align 2
	.globl	_ZNSt12_Vector_baseISt6vectorIS0_IfSaIfEESaIS2_EESaIS4_EE17_Vector_impl_dataC2Ev
	.def	_ZNSt12_Vector_baseISt6vectorIS0_IfSaIfEESaIS2_EESaIS4_EE17_Vector_impl_dataC2Ev;	.scl	2;	.type	32;	.endef
	.seh_proc	_ZNSt12_Vector_baseISt6vectorIS0_IfSaIfEESaIS2_EESaIS4_EE17_Vector_impl_dataC2Ev
_ZNSt12_Vector_baseISt6vectorIS0_IfSaIfEESaIS2_EESaIS4_EE17_Vector_impl_dataC2Ev:
.LFB12017:
	pushq	%rbp
	.seh_pushreg	%rbp
	movq	%rsp, %rbp
	.seh_setframe	%rbp, 0
	.seh_endprologue
	movq	%rcx, 16(%rbp)
	movq	16(%rbp), %rax
	movq	$0, (%rax)
	movq	16(%rbp), %rax
	movq	$0, 8(%rax)
	movq	16(%rbp), %rax
	movq	$0, 16(%rax)
	nop
	popq	%rbp
	ret
	.seh_endproc
	.section	.text$_ZNSt12_Vector_baseISt6vectorIS0_IfSaIfEESaIS2_EESaIS4_EE17_Vector_impl_dataC1Ev,"x"
	.linkonce discard
	.align 2
	.globl	_ZNSt12_Vector_baseISt6vectorIS0_IfSaIfEESaIS2_EESaIS4_EE17_Vector_impl_dataC1Ev
	.def	_ZNSt12_Vector_baseISt6vectorIS0_IfSaIfEESaIS2_EESaIS4_EE17_Vector_impl_dataC1Ev;	.scl	2;	.type	32;	.endef
	.seh_proc	_ZNSt12_Vector_baseISt6vectorIS0_IfSaIfEESaIS2_EESaIS4_EE17_Vector_impl_dataC1Ev
_ZNSt12_Vector_baseISt6vectorIS0_IfSaIfEESaIS2_EESaIS4_EE17_Vector_impl_dataC1Ev:
.LFB12018:
	pushq	%rbp
	.seh_pushreg	%rbp
	movq	%rsp, %rbp
	.seh_setframe	%rbp, 0
	.seh_endprologue
	movq	%rcx, 16(%rbp)
	movq	16(%rbp), %rax
	movq	$0, (%rax)
	movq	16(%rbp), %rax
	movq	$0, 8(%rax)
	movq	16(%rbp), %rax
	movq	$0, 16(%rax)
	nop
	popq	%rbp
	ret
	.seh_endproc
	.section	.text$_ZNSt15__new_allocatorISt6vectorIS0_IfSaIfEESaIS2_EEED2Ev,"x"
	.linkonce discard
	.align 2
	.globl	_ZNSt15__new_allocatorISt6vectorIS0_IfSaIfEESaIS2_EEED2Ev
	.def	_ZNSt15__new_allocatorISt6vectorIS0_IfSaIfEESaIS2_EEED2Ev;	.scl	2;	.type	32;	.endef
	.seh_proc	_ZNSt15__new_allocatorISt6vectorIS0_IfSaIfEESaIS2_EEED2Ev
_ZNSt15__new_allocatorISt6vectorIS0_IfSaIfEESaIS2_EEED2Ev:
.LFB12020:
	pushq	%rbp
	.seh_pushreg	%rbp
	movq	%rsp, %rbp
	.seh_setframe	%rbp, 0
	.seh_endprologue
	movq	%rcx, 16(%rbp)
	nop
	popq	%rbp
	ret
	.seh_endproc
	.section	.text$_ZNSt12_Vector_baseISt6vectorIS0_IfSaIfEESaIS2_EESaIS4_EE13_M_deallocateEPS4_y,"x"
	.linkonce discard
	.align 2
	.globl	_ZNSt12_Vector_baseISt6vectorIS0_IfSaIfEESaIS2_EESaIS4_EE13_M_deallocateEPS4_y
	.def	_ZNSt12_Vector_baseISt6vectorIS0_IfSaIfEESaIS2_EESaIS4_EE13_M_deallocateEPS4_y;	.scl	2;	.type	32;	.endef
	.seh_proc	_ZNSt12_Vector_baseISt6vectorIS0_IfSaIfEESaIS2_EESaIS4_EE13_M_deallocateEPS4_y
_ZNSt12_Vector_baseISt6vectorIS0_IfSaIfEESaIS2_EESaIS4_EE13_M_deallocateEPS4_y:
.LFB12022:
	pushq	%rbp
	.seh_pushreg	%rbp
	movq	%rsp, %rbp
	.seh_setframe	%rbp, 0
	subq	$64, %rsp
	.seh_stackalloc	64
	.seh_endprologue
	movq	%rcx, 16(%rbp)
	movq	%rdx, 24(%rbp)
	movq	%r8, 32(%rbp)
	cmpq	$0, 24(%rbp)
	je	.L430
	movq	16(%rbp), %rax
	movq	%rax, -8(%rbp)
	movq	24(%rbp), %rax
	movq	%rax, -16(%rbp)
	movq	32(%rbp), %rax
	movq	%rax, -24(%rbp)
	movq	-24(%rbp), %rcx
	movq	-16(%rbp), %rdx
	movq	-8(%rbp), %rax
	movq	%rcx, %r8
	movq	%rax, %rcx
	call	_ZNSt15__new_allocatorISt6vectorIS0_IfSaIfEESaIS2_EEE10deallocateEPS4_y
	nop
.L430:
	nop
	addq	$64, %rsp
	popq	%rbp
	ret
	.seh_endproc
	.section	.text$_ZNSt12_Vector_baseISt6vectorIfSaIfEESaIS2_EE17_Vector_impl_dataC2Ev,"x"
	.linkonce discard
	.align 2
	.globl	_ZNSt12_Vector_baseISt6vectorIfSaIfEESaIS2_EE17_Vector_impl_dataC2Ev
	.def	_ZNSt12_Vector_baseISt6vectorIfSaIfEESaIS2_EE17_Vector_impl_dataC2Ev;	.scl	2;	.type	32;	.endef
	.seh_proc	_ZNSt12_Vector_baseISt6vectorIfSaIfEESaIS2_EE17_Vector_impl_dataC2Ev
_ZNSt12_Vector_baseISt6vectorIfSaIfEESaIS2_EE17_Vector_impl_dataC2Ev:
.LFB12024:
	pushq	%rbp
	.seh_pushreg	%rbp
	movq	%rsp, %rbp
	.seh_setframe	%rbp, 0
	.seh_endprologue
	movq	%rcx, 16(%rbp)
	movq	16(%rbp), %rax
	movq	$0, (%rax)
	movq	16(%rbp), %rax
	movq	$0, 8(%rax)
	movq	16(%rbp), %rax
	movq	$0, 16(%rax)
	nop
	popq	%rbp
	ret
	.seh_endproc
	.section	.text$_ZNSt12_Vector_baseISt6vectorIfSaIfEESaIS2_EE17_Vector_impl_dataC1Ev,"x"
	.linkonce discard
	.align 2
	.globl	_ZNSt12_Vector_baseISt6vectorIfSaIfEESaIS2_EE17_Vector_impl_dataC1Ev
	.def	_ZNSt12_Vector_baseISt6vectorIfSaIfEESaIS2_EE17_Vector_impl_dataC1Ev;	.scl	2;	.type	32;	.endef
	.seh_proc	_ZNSt12_Vector_baseISt6vectorIfSaIfEESaIS2_EE17_Vector_impl_dataC1Ev
_ZNSt12_Vector_baseISt6vectorIfSaIfEESaIS2_EE17_Vector_impl_dataC1Ev:
.LFB12025:
	pushq	%rbp
	.seh_pushreg	%rbp
	movq	%rsp, %rbp
	.seh_setframe	%rbp, 0
	.seh_endprologue
	movq	%rcx, 16(%rbp)
	movq	16(%rbp), %rax
	movq	$0, (%rax)
	movq	16(%rbp), %rax
	movq	$0, 8(%rax)
	movq	16(%rbp), %rax
	movq	$0, 16(%rax)
	nop
	popq	%rbp
	ret
	.seh_endproc
	.section	.text$_ZNSt15__new_allocatorISt6vectorIfSaIfEEED2Ev,"x"
	.linkonce discard
	.align 2
	.globl	_ZNSt15__new_allocatorISt6vectorIfSaIfEEED2Ev
	.def	_ZNSt15__new_allocatorISt6vectorIfSaIfEEED2Ev;	.scl	2;	.type	32;	.endef
	.seh_proc	_ZNSt15__new_allocatorISt6vectorIfSaIfEEED2Ev
_ZNSt15__new_allocatorISt6vectorIfSaIfEEED2Ev:
.LFB12027:
	pushq	%rbp
	.seh_pushreg	%rbp
	movq	%rsp, %rbp
	.seh_setframe	%rbp, 0
	.seh_endprologue
	movq	%rcx, 16(%rbp)
	nop
	popq	%rbp
	ret
	.seh_endproc
	.section	.text$_ZNSt12_Vector_baseISt6vectorIfSaIfEESaIS2_EE13_M_deallocateEPS2_y,"x"
	.linkonce discard
	.align 2
	.globl	_ZNSt12_Vector_baseISt6vectorIfSaIfEESaIS2_EE13_M_deallocateEPS2_y
	.def	_ZNSt12_Vector_baseISt6vectorIfSaIfEESaIS2_EE13_M_deallocateEPS2_y;	.scl	2;	.type	32;	.endef
	.seh_proc	_ZNSt12_Vector_baseISt6vectorIfSaIfEESaIS2_EE13_M_deallocateEPS2_y
_ZNSt12_Vector_baseISt6vectorIfSaIfEESaIS2_EE13_M_deallocateEPS2_y:
.LFB12029:
	pushq	%rbp
	.seh_pushreg	%rbp
	movq	%rsp, %rbp
	.seh_setframe	%rbp, 0
	subq	$64, %rsp
	.seh_stackalloc	64
	.seh_endprologue
	movq	%rcx, 16(%rbp)
	movq	%rdx, 24(%rbp)
	movq	%r8, 32(%rbp)
	cmpq	$0, 24(%rbp)
	je	.L436
	movq	16(%rbp), %rax
	movq	%rax, -8(%rbp)
	movq	24(%rbp), %rax
	movq	%rax, -16(%rbp)
	movq	32(%rbp), %rax
	movq	%rax, -24(%rbp)
	movq	-24(%rbp), %rcx
	movq	-16(%rbp), %rdx
	movq	-8(%rbp), %rax
	movq	%rcx, %r8
	movq	%rax, %rcx
	call	_ZNSt15__new_allocatorISt6vectorIfSaIfEEE10deallocateEPS2_y
	nop
.L436:
	nop
	addq	$64, %rsp
	popq	%rbp
	ret
	.seh_endproc
	.section	.text$_ZNSt23mersenne_twister_engineIjLy32ELy624ELy397ELy31ELj2567483615ELy11ELj4294967295ELy7ELj2636928640ELy15ELj4022730752ELy18ELj1812433253EE4seedEj,"x"
	.linkonce discard
	.align 2
	.globl	_ZNSt23mersenne_twister_engineIjLy32ELy624ELy397ELy31ELj2567483615ELy11ELj4294967295ELy7ELj2636928640ELy15ELj4022730752ELy18ELj1812433253EE4seedEj
	.def	_ZNSt23mersenne_twister_engineIjLy32ELy624ELy397ELy31ELj2567483615ELy11ELj4294967295ELy7ELj2636928640ELy15ELj4022730752ELy18ELj1812433253EE4seedEj;	.scl	2;	.type	32;	.endef
	.seh_proc	_ZNSt23mersenne_twister_engineIjLy32ELy624ELy397ELy31ELj2567483615ELy11ELj4294967295ELy7ELj2636928640ELy15ELj4022730752ELy18ELj1812433253EE4seedEj
_ZNSt23mersenne_twister_engineIjLy32ELy624ELy397ELy31ELj2567483615ELy11ELj4294967295ELy7ELj2636928640ELy15ELj4022730752ELy18ELj1812433253EE4seedEj:
.LFB12030:
	pushq	%rbp
	.seh_pushreg	%rbp
	movq	%rsp, %rbp
	.seh_setframe	%rbp, 0
	subq	$48, %rsp
	.seh_stackalloc	48
	.seh_endprologue
	movq	%rcx, 16(%rbp)
	movl	%edx, 24(%rbp)
	movl	24(%rbp), %eax
	movl	%eax, %ecx
	call	_ZNSt8__detail5__modIjLj0ELj1ELj0EEET_S1_
	movq	16(%rbp), %rdx
	movl	%eax, (%rdx)
	movq	$1, -8(%rbp)
	jmp	.L438
.L439:
	movq	-8(%rbp), %rax
	leaq	-1(%rax), %rdx
	movq	16(%rbp), %rax
	movl	(%rax,%rdx,4), %eax
	movl	%eax, -12(%rbp)
	movl	-12(%rbp), %eax
	shrl	$30, %eax
	xorl	%eax, -12(%rbp)
	movl	-12(%rbp), %eax
	imull	$1812433253, %eax, %eax
	movl	%eax, -12(%rbp)
	movq	-8(%rbp), %rax
	movl	%eax, %ecx
	call	_ZNSt8__detail5__modIjLj624ELj1ELj0EEET_S1_
	addl	%eax, -12(%rbp)
	movl	-12(%rbp), %eax
	movl	%eax, %ecx
	call	_ZNSt8__detail5__modIjLj0ELj1ELj0EEET_S1_
	movq	16(%rbp), %rdx
	movq	-8(%rbp), %rcx
	movl	%eax, (%rdx,%rcx,4)
	addq	$1, -8(%rbp)
.L438:
	cmpq	$623, -8(%rbp)
	jbe	.L439
	movq	16(%rbp), %rax
	movq	$624, 2496(%rax)
	nop
	addq	$48, %rsp
	popq	%rbp
	ret
	.seh_endproc
	.section	.text$_ZNKSt6vectorIS_IS_IfSaIfEESaIS1_EESaIS3_EE4sizeEv,"x"
	.linkonce discard
	.align 2
	.globl	_ZNKSt6vectorIS_IS_IfSaIfEESaIS1_EESaIS3_EE4sizeEv
	.def	_ZNKSt6vectorIS_IS_IfSaIfEESaIS1_EESaIS3_EE4sizeEv;	.scl	2;	.type	32;	.endef
	.seh_proc	_ZNKSt6vectorIS_IS_IfSaIfEESaIS1_EESaIS3_EE4sizeEv
_ZNKSt6vectorIS_IS_IfSaIfEESaIS1_EESaIS3_EE4sizeEv:
.LFB12058:
	pushq	%rbp
	.seh_pushreg	%rbp
	movq	%rsp, %rbp
	.seh_setframe	%rbp, 0
	subq	$16, %rsp
	.seh_stackalloc	16
	.seh_endprologue
	movq	%rcx, 16(%rbp)
	movq	16(%rbp), %rax
	movq	8(%rax), %rdx
	movq	16(%rbp), %rax
	movq	(%rax), %rax
	subq	%rax, %rdx
	sarq	$3, %rdx
	movabsq	$-6148914691236517205, %rax
	imulq	%rdx, %rax
	movq	%rax, -8(%rbp)
	cmpq	$0, -8(%rbp)
	movq	-8(%rbp), %rax
	addq	$16, %rsp
	popq	%rbp
	ret
	.seh_endproc
	.section	.text$_ZNKSt6vectorIS_IfSaIfEESaIS1_EE4sizeEv,"x"
	.linkonce discard
	.align 2
	.globl	_ZNKSt6vectorIS_IfSaIfEESaIS1_EE4sizeEv
	.def	_ZNKSt6vectorIS_IfSaIfEESaIS1_EE4sizeEv;	.scl	2;	.type	32;	.endef
	.seh_proc	_ZNKSt6vectorIS_IfSaIfEESaIS1_EE4sizeEv
_ZNKSt6vectorIS_IfSaIfEESaIS1_EE4sizeEv:
.LFB12059:
	pushq	%rbp
	.seh_pushreg	%rbp
	movq	%rsp, %rbp
	.seh_setframe	%rbp, 0
	subq	$16, %rsp
	.seh_stackalloc	16
	.seh_endprologue
	movq	%rcx, 16(%rbp)
	movq	16(%rbp), %rax
	movq	8(%rax), %rdx
	movq	16(%rbp), %rax
	movq	(%rax), %rax
	subq	%rax, %rdx
	sarq	$3, %rdx
	movabsq	$-6148914691236517205, %rax
	imulq	%rdx, %rax
	movq	%rax, -8(%rbp)
	cmpq	$0, -8(%rbp)
	movq	-8(%rbp), %rax
	addq	$16, %rsp
	popq	%rbp
	ret
	.seh_endproc
	.section .rdata,"dr"
	.align 8
.LC20:
	.ascii "cannot create std::vector larger than max_size()\0"
	.section	.text$_ZNSt6vectorIySaIyEE17_S_check_init_lenEyRKS0_,"x"
	.linkonce discard
	.globl	_ZNSt6vectorIySaIyEE17_S_check_init_lenEyRKS0_
	.def	_ZNSt6vectorIySaIyEE17_S_check_init_lenEyRKS0_;	.scl	2;	.type	32;	.endef
	.seh_proc	_ZNSt6vectorIySaIyEE17_S_check_init_lenEyRKS0_
_ZNSt6vectorIySaIyEE17_S_check_init_lenEyRKS0_:
.LFB12070:
	pushq	%rbp
	.seh_pushreg	%rbp
	pushq	%rbx
	.seh_pushreg	%rbx
	subq	$72, %rsp
	.seh_stackalloc	72
	leaq	64(%rsp), %rbp
	.seh_setframe	%rbp, 64
	.seh_endprologue
	movq	%rcx, 32(%rbp)
	movq	%rdx, 40(%rbp)
	movq	40(%rbp), %rax
	movq	%rax, -8(%rbp)
	leaq	-25(%rbp), %rax
	movq	%rax, -16(%rbp)
	movq	-8(%rbp), %rax
	movq	%rax, -24(%rbp)
	nop
	nop
	leaq	-25(%rbp), %rax
	movq	%rax, %rcx
	call	_ZNSt6vectorIySaIyEE11_S_max_sizeERKS0_
	cmpq	32(%rbp), %rax
	setb	%bl
	leaq	-25(%rbp), %rax
	movq	%rax, %rcx
	call	_ZNSt15__new_allocatorIyED2Ev
	nop
	testb	%bl, %bl
	je	.L447
	leaq	.LC20(%rip), %rax
	movq	%rax, %rcx
	call	_ZSt20__throw_length_errorPKc
.L447:
	movq	32(%rbp), %rax
	addq	$72, %rsp
	popq	%rbx
	popq	%rbp
	ret
	.seh_endproc
	.section	.text$_ZNSt6vectorIySaIyEE21_M_default_initializeEy,"x"
	.linkonce discard
	.align 2
	.globl	_ZNSt6vectorIySaIyEE21_M_default_initializeEy
	.def	_ZNSt6vectorIySaIyEE21_M_default_initializeEy;	.scl	2;	.type	32;	.endef
	.seh_proc	_ZNSt6vectorIySaIyEE21_M_default_initializeEy
_ZNSt6vectorIySaIyEE21_M_default_initializeEy:
.LFB12071:
	pushq	%rbp
	.seh_pushreg	%rbp
	movq	%rsp, %rbp
	.seh_setframe	%rbp, 0
	subq	$32, %rsp
	.seh_stackalloc	32
	.seh_endprologue
	movq	%rcx, 16(%rbp)
	movq	%rdx, 24(%rbp)
	movq	16(%rbp), %rax
	movq	%rax, %rcx
	call	_ZNSt12_Vector_baseIySaIyEE19_M_get_Tp_allocatorEv
	movq	%rax, %rcx
	movq	16(%rbp), %rax
	movq	(%rax), %rax
	movq	24(%rbp), %rdx
	movq	%rcx, %r8
	movq	%rax, %rcx
	call	_ZSt27__uninitialized_default_n_aIPyyyET_S1_T0_RSaIT1_E
	movq	16(%rbp), %rdx
	movq	%rax, 8(%rdx)
	nop
	addq	$32, %rsp
	popq	%rbp
	ret
	.seh_endproc
	.section	.text$_ZNSt6vectorIySaIyEE5clearEv,"x"
	.linkonce discard
	.align 2
	.globl	_ZNSt6vectorIySaIyEE5clearEv
	.def	_ZNSt6vectorIySaIyEE5clearEv;	.scl	2;	.type	32;	.endef
	.seh_proc	_ZNSt6vectorIySaIyEE5clearEv
_ZNSt6vectorIySaIyEE5clearEv:
.LFB12074:
	pushq	%rbp
	.seh_pushreg	%rbp
	movq	%rsp, %rbp
	.seh_setframe	%rbp, 0
	subq	$32, %rsp
	.seh_stackalloc	32
	.seh_endprologue
	movq	%rcx, 16(%rbp)
	movq	16(%rbp), %rax
	movq	(%rax), %rdx
	movq	16(%rbp), %rax
	movq	%rax, %rcx
	call	_ZNSt6vectorIySaIyEE15_M_erase_at_endEPy
	nop
	addq	$32, %rsp
	popq	%rbp
	ret
	.seh_endproc
	.section	.text$_ZNKSt6vectorIySaIyEE8capacityEv,"x"
	.linkonce discard
	.align 2
	.globl	_ZNKSt6vectorIySaIyEE8capacityEv
	.def	_ZNKSt6vectorIySaIyEE8capacityEv;	.scl	2;	.type	32;	.endef
	.seh_proc	_ZNKSt6vectorIySaIyEE8capacityEv
_ZNKSt6vectorIySaIyEE8capacityEv:
.LFB12076:
	pushq	%rbp
	.seh_pushreg	%rbp
	movq	%rsp, %rbp
	.seh_setframe	%rbp, 0
	subq	$16, %rsp
	.seh_stackalloc	16
	.seh_endprologue
	movq	%rcx, 16(%rbp)
	movq	16(%rbp), %rax
	movq	16(%rax), %rdx
	movq	16(%rbp), %rax
	movq	(%rax), %rax
	subq	%rax, %rdx
	movq	%rdx, %rax
	sarq	$3, %rax
	movq	%rax, -8(%rbp)
	cmpq	$0, -8(%rbp)
	movq	-8(%rbp), %rax
	addq	$16, %rsp
	popq	%rbp
	ret
	.seh_endproc
	.section	.text$_ZNSt6vectorIySaIyEE20_M_allocate_and_copyIN9__gnu_cxx17__normal_iteratorIPKyS1_EEEEPyyT_S9_,"x"
	.linkonce discard
	.align 2
	.globl	_ZNSt6vectorIySaIyEE20_M_allocate_and_copyIN9__gnu_cxx17__normal_iteratorIPKyS1_EEEEPyyT_S9_
	.def	_ZNSt6vectorIySaIyEE20_M_allocate_and_copyIN9__gnu_cxx17__normal_iteratorIPKyS1_EEEEPyyT_S9_;	.scl	2;	.type	32;	.endef
	.seh_proc	_ZNSt6vectorIySaIyEE20_M_allocate_and_copyIN9__gnu_cxx17__normal_iteratorIPKyS1_EEEEPyyT_S9_
_ZNSt6vectorIySaIyEE20_M_allocate_and_copyIN9__gnu_cxx17__normal_iteratorIPKyS1_EEEEPyyT_S9_:
.LFB12077:
	pushq	%rbp
	.seh_pushreg	%rbp
	pushq	%rbx
	.seh_pushreg	%rbx
	subq	$72, %rsp
	.seh_stackalloc	72
	leaq	64(%rsp), %rbp
	.seh_setframe	%rbp, 64
	.seh_endprologue
	movq	%rcx, 32(%rbp)
	movq	%rdx, 40(%rbp)
	movq	%r8, 48(%rbp)
	movq	%r9, 56(%rbp)
	movq	32(%rbp), %rbx
	movq	32(%rbp), %rax
	movq	40(%rbp), %rdx
	movq	%rax, %rcx
	call	_ZNSt12_Vector_baseIySaIyEE11_M_allocateEy
	movq	%rax, %rdx
	movq	40(%rbp), %rcx
	leaq	-32(%rbp), %rax
	movq	%rbx, %r9
	movq	%rcx, %r8
	movq	%rax, %rcx
	call	_ZNSt6vectorIySaIyEE12_Guard_allocC1EPyyRSt12_Vector_baseIyS0_E
	movq	32(%rbp), %rax
	movq	%rax, %rcx
	call	_ZNSt12_Vector_baseIySaIyEE19_M_get_Tp_allocatorEv
	movq	%rax, %rcx
	movq	-32(%rbp), %r8
	movq	56(%rbp), %rdx
	movq	48(%rbp), %rax
	movq	%rcx, %r9
	movq	%rax, %rcx
	call	_ZSt22__uninitialized_copy_aIN9__gnu_cxx17__normal_iteratorIPKySt6vectorIySaIyEEEES7_PyyET1_T_T0_S9_RSaIT2_E
	leaq	-32(%rbp), %rax
	movq	%rax, %rcx
	call	_ZNSt6vectorIySaIyEE12_Guard_alloc10_M_releaseEv
	movq	%rax, %rbx
	nop
	leaq	-32(%rbp), %rax
	movq	%rax, %rcx
	call	_ZNSt6vectorIySaIyEE12_Guard_allocD1Ev
	movq	%rbx, %rax
	addq	$72, %rsp
	popq	%rbx
	popq	%rbp
	ret
	.seh_endproc
	.section	.text$_ZSt4copyIN9__gnu_cxx17__normal_iteratorIPKySt6vectorIySaIyEEEENS1_IPyS6_EEET0_T_SB_SA_,"x"
	.linkonce discard
	.globl	_ZSt4copyIN9__gnu_cxx17__normal_iteratorIPKySt6vectorIySaIyEEEENS1_IPyS6_EEET0_T_SB_SA_
	.def	_ZSt4copyIN9__gnu_cxx17__normal_iteratorIPKySt6vectorIySaIyEEEENS1_IPyS6_EEET0_T_SB_SA_;	.scl	2;	.type	32;	.endef
	.seh_proc	_ZSt4copyIN9__gnu_cxx17__normal_iteratorIPKySt6vectorIySaIyEEEENS1_IPyS6_EEET0_T_SB_SA_
_ZSt4copyIN9__gnu_cxx17__normal_iteratorIPKySt6vectorIySaIyEEEENS1_IPyS6_EEET0_T_SB_SA_:
.LFB12078:
	pushq	%rbp
	.seh_pushreg	%rbp
	pushq	%rbx
	.seh_pushreg	%rbx
	subq	$120, %rsp
	.seh_stackalloc	120
	leaq	112(%rsp), %rbp
	.seh_setframe	%rbp, 112
	.seh_endprologue
	movq	%rcx, 32(%rbp)
	movq	%rdx, 40(%rbp)
	movq	%r8, 48(%rbp)
	movq	40(%rbp), %rax
	movq	%rax, %rcx
	call	_ZSt12__miter_baseIN9__gnu_cxx17__normal_iteratorIPKySt6vectorIySaIyEEEEET_S8_
	movq	%rax, %rbx
	movq	32(%rbp), %rax
	movq	%rax, %rcx
	call	_ZSt12__miter_baseIN9__gnu_cxx17__normal_iteratorIPKySt6vectorIySaIyEEEEET_S8_
	movq	%rax, -32(%rbp)
	movq	%rbx, -40(%rbp)
	movq	48(%rbp), %rax
	movq	%rax, -48(%rbp)
	movq	-48(%rbp), %rax
	movq	%rax, -56(%rbp)
	leaq	-56(%rbp), %rax
	movq	(%rax), %rax
	movq	-40(%rbp), %rdx
	movq	%rdx, -64(%rbp)
	leaq	-64(%rbp), %rdx
	movq	(%rdx), %rdx
	movq	-32(%rbp), %rcx
	movq	%rcx, -72(%rbp)
	leaq	-72(%rbp), %rcx
	movq	(%rcx), %rcx
	movq	%rcx, -8(%rbp)
	movq	%rdx, -16(%rbp)
	movq	%rax, -24(%rbp)
	movq	-24(%rbp), %rcx
	movq	-16(%rbp), %rdx
	movq	-8(%rbp), %rax
	movq	%rcx, %r8
	movq	%rax, %rcx
	call	_ZSt14__copy_move_a2ILb0EPKyS1_PyET2_T0_T1_S3_
	movq	%rax, %rdx
	nop
	movq	-48(%rbp), %rax
	movq	%rax, %rcx
	call	_ZSt12__niter_wrapIN9__gnu_cxx17__normal_iteratorIPySt6vectorIySaIyEEEES2_ET_S7_T0_
	nop
	addq	$120, %rsp
	popq	%rbx
	popq	%rbp
	ret
	.seh_endproc
	.section	.text$_ZSt4copyIPyS0_ET0_T_S2_S1_,"x"
	.linkonce discard
	.globl	_ZSt4copyIPyS0_ET0_T_S2_S1_
	.def	_ZSt4copyIPyS0_ET0_T_S2_S1_;	.scl	2;	.type	32;	.endef
	.seh_proc	_ZSt4copyIPyS0_ET0_T_S2_S1_
_ZSt4copyIPyS0_ET0_T_S2_S1_:
.LFB12080:
	pushq	%rbp
	.seh_pushreg	%rbp
	pushq	%rbx
	.seh_pushreg	%rbx
	subq	$120, %rsp
	.seh_stackalloc	120
	leaq	112(%rsp), %rbp
	.seh_setframe	%rbp, 112
	.seh_endprologue
	movq	%rcx, 32(%rbp)
	movq	%rdx, 40(%rbp)
	movq	%r8, 48(%rbp)
	movq	40(%rbp), %rax
	movq	%rax, %rcx
	call	_ZSt12__miter_baseIPyET_S1_
	movq	%rax, %rbx
	movq	32(%rbp), %rax
	movq	%rax, %rcx
	call	_ZSt12__miter_baseIPyET_S1_
	movq	%rax, -8(%rbp)
	movq	%rbx, -16(%rbp)
	movq	48(%rbp), %rax
	movq	%rax, -80(%rbp)
	movq	-80(%rbp), %rax
	movq	%rax, -24(%rbp)
	movq	-24(%rbp), %rax
	movq	-16(%rbp), %rdx
	movq	%rdx, -32(%rbp)
	movq	-32(%rbp), %rdx
	movq	-8(%rbp), %rcx
	movq	%rcx, -40(%rbp)
	movq	-40(%rbp), %rcx
	movq	%rcx, -48(%rbp)
	movq	%rdx, -56(%rbp)
	movq	%rax, -64(%rbp)
	movq	-64(%rbp), %rcx
	movq	-56(%rbp), %rdx
	movq	-48(%rbp), %rax
	movq	%rcx, %r8
	movq	%rax, %rcx
	call	_ZSt14__copy_move_a2ILb0EPyS0_S0_ET2_T0_T1_S1_
	nop
	movq	%rax, -72(%rbp)
	movq	-72(%rbp), %rax
	nop
	addq	$120, %rsp
	popq	%rbx
	popq	%rbp
	ret
	.seh_endproc
	.section	.text$_ZSt22__uninitialized_copy_aIPyS0_S0_yET1_T_T0_S1_RSaIT2_E,"x"
	.linkonce discard
	.globl	_ZSt22__uninitialized_copy_aIPyS0_S0_yET1_T_T0_S1_RSaIT2_E
	.def	_ZSt22__uninitialized_copy_aIPyS0_S0_yET1_T_T0_S1_RSaIT2_E;	.scl	2;	.type	32;	.endef
	.seh_proc	_ZSt22__uninitialized_copy_aIPyS0_S0_yET1_T_T0_S1_RSaIT2_E
_ZSt22__uninitialized_copy_aIPyS0_S0_yET1_T_T0_S1_RSaIT2_E:
.LFB12081:
	pushq	%rbp
	.seh_pushreg	%rbp
	movq	%rsp, %rbp
	.seh_setframe	%rbp, 0
	subq	$32, %rsp
	.seh_stackalloc	32
	.seh_endprologue
	movq	%rcx, 16(%rbp)
	movq	%rdx, 24(%rbp)
	movq	%r8, 32(%rbp)
	movq	%r9, 40(%rbp)
	movq	32(%rbp), %rcx
	movq	24(%rbp), %rdx
	movq	16(%rbp), %rax
	movq	%rcx, %r8
	movq	%rax, %rcx
	call	_ZSt18uninitialized_copyIPyS0_ET0_T_S2_S1_
	addq	$32, %rsp
	popq	%rbp
	ret
	.seh_endproc
	.section	.text$_ZNSt6vectorIS_IS_IfSaIfEESaIS1_EESaIS3_EE14_M_fill_assignEyRKS3_,"x"
	.linkonce discard
	.align 2
	.globl	_ZNSt6vectorIS_IS_IfSaIfEESaIS1_EESaIS3_EE14_M_fill_assignEyRKS3_
	.def	_ZNSt6vectorIS_IS_IfSaIfEESaIS1_EESaIS3_EE14_M_fill_assignEyRKS3_;	.scl	2;	.type	32;	.endef
	.seh_proc	_ZNSt6vectorIS_IS_IfSaIfEESaIS1_EESaIS3_EE14_M_fill_assignEyRKS3_
_ZNSt6vectorIS_IS_IfSaIfEESaIS1_EESaIS3_EE14_M_fill_assignEyRKS3_:
.LFB12082:
	pushq	%rbp
	.seh_pushreg	%rbp
	pushq	%rbx
	.seh_pushreg	%rbx
	subq	$232, %rsp
	.seh_stackalloc	232
	leaq	224(%rsp), %rbp
	.seh_setframe	%rbp, 224
	.seh_endprologue
	movq	%rcx, 32(%rbp)
	movq	%rdx, 40(%rbp)
	movq	%r8, 48(%rbp)
	movq	32(%rbp), %rax
	movq	%rax, %rcx
	call	_ZNKSt6vectorIS_IS_IfSaIfEESaIS1_EESaIS3_EE4sizeEv
	movq	%rax, -8(%rbp)
	movq	32(%rbp), %rax
	movq	%rax, %rcx
	call	_ZNKSt6vectorIS_IS_IfSaIfEESaIS1_EESaIS3_EE8capacityEv
	cmpq	40(%rbp), %rax
	setb	%al
	testb	%al, %al
	je	.L477
	movq	40(%rbp), %rax
	cmpq	%rax, -8(%rbp)
	movq	32(%rbp), %rax
	movq	%rax, %rcx
	call	_ZNSt12_Vector_baseISt6vectorIS0_IfSaIfEESaIS2_EESaIS4_EE19_M_get_Tp_allocatorEv
	movq	%rax, %rcx
	movq	48(%rbp), %r8
	movq	40(%rbp), %rdx
	leaq	-128(%rbp), %rax
	movq	%rcx, %r9
	movq	%rax, %rcx
	call	_ZNSt6vectorIS_IS_IfSaIfEESaIS1_EESaIS3_EEC1EyRKS3_RKS4_
	movq	32(%rbp), %rdx
	leaq	-128(%rbp), %rax
	movq	%rax, %rcx
	call	_ZNSt12_Vector_baseISt6vectorIS0_IfSaIfEESaIS2_EESaIS4_EE17_Vector_impl_data12_M_swap_dataERS7_
	leaq	-128(%rbp), %rax
	movq	%rax, %rcx
	call	_ZNSt6vectorIS_IS_IfSaIfEESaIS1_EESaIS3_EED1Ev
	jmp	.L487
.L477:
	movq	40(%rbp), %rax
	cmpq	%rax, -8(%rbp)
	jnb	.L480
	movq	32(%rbp), %rax
	movq	%rax, %rcx
	call	_ZNSt6vectorIS_IS_IfSaIfEESaIS1_EESaIS3_EE3endEv
	movq	%rax, %rbx
	movq	32(%rbp), %rax
	movq	%rax, %rcx
	call	_ZNSt6vectorIS_IS_IfSaIfEESaIS1_EESaIS3_EE5beginEv
	movq	%rax, -152(%rbp)
	movq	%rbx, -160(%rbp)
	movq	48(%rbp), %rax
	movq	%rax, -24(%rbp)
	movq	-152(%rbp), %rax
	movq	%rax, -168(%rbp)
	movq	-160(%rbp), %rax
	movq	%rax, -176(%rbp)
	movq	-24(%rbp), %rax
	movq	%rax, -32(%rbp)
	movq	-168(%rbp), %rax
	movq	%rax, -184(%rbp)
	movq	-176(%rbp), %rax
	movq	%rax, -192(%rbp)
	movq	-32(%rbp), %rax
	movq	%rax, -40(%rbp)
	leaq	-192(%rbp), %rax
	movq	(%rax), %rdx
	leaq	-184(%rbp), %rax
	movq	(%rax), %rax
	movq	-40(%rbp), %rcx
	movq	%rcx, %r8
	movq	%rax, %rcx
	call	_ZSt9__fill_a1IPSt6vectorIS0_IfSaIfEESaIS2_EES4_EvT_S6_RKT0_
	nop
	nop
	nop
	movq	40(%rbp), %rax
	subq	-8(%rbp), %rax
	movq	%rax, -16(%rbp)
	movq	32(%rbp), %rax
	movq	%rax, %rcx
	call	_ZNSt12_Vector_baseISt6vectorIS0_IfSaIfEESaIS2_EESaIS4_EE19_M_get_Tp_allocatorEv
	movq	%rax, %rcx
	movq	32(%rbp), %rax
	movq	8(%rax), %rax
	movq	48(%rbp), %r8
	movq	-16(%rbp), %rdx
	movq	%rcx, %r9
	movq	%rax, %rcx
	call	_ZSt24__uninitialized_fill_n_aIPSt6vectorIS0_IfSaIfEESaIS2_EEyS4_S4_ET_S6_T0_RKT1_RSaIT2_E
	movq	32(%rbp), %rdx
	movq	%rax, 8(%rdx)
	jmp	.L487
.L480:
	movq	32(%rbp), %rax
	movq	(%rax), %rax
	movq	%rax, -136(%rbp)
	movq	40(%rbp), %rax
	movq	%rax, -48(%rbp)
	movq	48(%rbp), %rax
	movq	%rax, -56(%rbp)
	nop
	movq	-48(%rbp), %rax
	movq	%rax, %rcx
	call	_ZSt17__size_to_integery
	movq	-136(%rbp), %rdx
	movq	%rdx, -64(%rbp)
	movq	%rax, -72(%rbp)
	movq	-56(%rbp), %rax
	movq	%rax, -80(%rbp)
	cmpq	$0, -72(%rbp)
	jne	.L484
	movq	-64(%rbp), %rax
	jmp	.L485
.L484:
	movq	-72(%rbp), %rdx
	movq	%rdx, %rax
	addq	%rax, %rax
	addq	%rdx, %rax
	salq	$3, %rax
	movq	%rax, %rdx
	movq	-64(%rbp), %rax
	addq	%rax, %rdx
	movq	-64(%rbp), %rax
	movq	%rax, -88(%rbp)
	movq	%rdx, -96(%rbp)
	movq	-80(%rbp), %rax
	movq	%rax, -104(%rbp)
	movq	-104(%rbp), %rcx
	movq	-96(%rbp), %rdx
	movq	-88(%rbp), %rax
	movq	%rcx, %r8
	movq	%rax, %rcx
	call	_ZSt9__fill_a1IPSt6vectorIS0_IfSaIfEESaIS2_EES4_EvT_S6_RKT0_
	nop
	movq	-72(%rbp), %rdx
	movq	%rdx, %rax
	addq	%rax, %rax
	addq	%rdx, %rax
	salq	$3, %rax
	movq	%rax, %rdx
	movq	-64(%rbp), %rax
	addq	%rdx, %rax
.L485:
	nop
	movq	32(%rbp), %rcx
	movq	%rax, %rdx
	call	_ZNSt6vectorIS_IS_IfSaIfEESaIS1_EESaIS3_EE15_M_erase_at_endEPS3_
.L487:
	nop
	addq	$232, %rsp
	popq	%rbx
	popq	%rbp
	ret
	.seh_endproc
	.section	.text$_ZNSt12_Vector_baseIfSaIfEE17_Vector_impl_dataC2Ev,"x"
	.linkonce discard
	.align 2
	.globl	_ZNSt12_Vector_baseIfSaIfEE17_Vector_impl_dataC2Ev
	.def	_ZNSt12_Vector_baseIfSaIfEE17_Vector_impl_dataC2Ev;	.scl	2;	.type	32;	.endef
	.seh_proc	_ZNSt12_Vector_baseIfSaIfEE17_Vector_impl_dataC2Ev
_ZNSt12_Vector_baseIfSaIfEE17_Vector_impl_dataC2Ev:
.LFB12084:
	pushq	%rbp
	.seh_pushreg	%rbp
	movq	%rsp, %rbp
	.seh_setframe	%rbp, 0
	.seh_endprologue
	movq	%rcx, 16(%rbp)
	movq	16(%rbp), %rax
	movq	$0, (%rax)
	movq	16(%rbp), %rax
	movq	$0, 8(%rax)
	movq	16(%rbp), %rax
	movq	$0, 16(%rax)
	nop
	popq	%rbp
	ret
	.seh_endproc
	.section	.text$_ZNSt12_Vector_baseIfSaIfEE17_Vector_impl_dataC1Ev,"x"
	.linkonce discard
	.align 2
	.globl	_ZNSt12_Vector_baseIfSaIfEE17_Vector_impl_dataC1Ev
	.def	_ZNSt12_Vector_baseIfSaIfEE17_Vector_impl_dataC1Ev;	.scl	2;	.type	32;	.endef
	.seh_proc	_ZNSt12_Vector_baseIfSaIfEE17_Vector_impl_dataC1Ev
_ZNSt12_Vector_baseIfSaIfEE17_Vector_impl_dataC1Ev:
.LFB12085:
	pushq	%rbp
	.seh_pushreg	%rbp
	movq	%rsp, %rbp
	.seh_setframe	%rbp, 0
	.seh_endprologue
	movq	%rcx, 16(%rbp)
	movq	16(%rbp), %rax
	movq	$0, (%rax)
	movq	16(%rbp), %rax
	movq	$0, 8(%rax)
	movq	16(%rbp), %rax
	movq	$0, 16(%rax)
	nop
	popq	%rbp
	ret
	.seh_endproc
	.section	.text$_ZNSt15__new_allocatorIfED2Ev,"x"
	.linkonce discard
	.align 2
	.globl	_ZNSt15__new_allocatorIfED2Ev
	.def	_ZNSt15__new_allocatorIfED2Ev;	.scl	2;	.type	32;	.endef
	.seh_proc	_ZNSt15__new_allocatorIfED2Ev
_ZNSt15__new_allocatorIfED2Ev:
.LFB12087:
	pushq	%rbp
	.seh_pushreg	%rbp
	movq	%rsp, %rbp
	.seh_setframe	%rbp, 0
	.seh_endprologue
	movq	%rcx, 16(%rbp)
	nop
	popq	%rbp
	ret
	.seh_endproc
	.section	.text$_ZNSt12_Vector_baseIfSaIfEE13_M_deallocateEPfy,"x"
	.linkonce discard
	.align 2
	.globl	_ZNSt12_Vector_baseIfSaIfEE13_M_deallocateEPfy
	.def	_ZNSt12_Vector_baseIfSaIfEE13_M_deallocateEPfy;	.scl	2;	.type	32;	.endef
	.seh_proc	_ZNSt12_Vector_baseIfSaIfEE13_M_deallocateEPfy
_ZNSt12_Vector_baseIfSaIfEE13_M_deallocateEPfy:
.LFB12089:
	pushq	%rbp
	.seh_pushreg	%rbp
	movq	%rsp, %rbp
	.seh_setframe	%rbp, 0
	subq	$64, %rsp
	.seh_stackalloc	64
	.seh_endprologue
	movq	%rcx, 16(%rbp)
	movq	%rdx, 24(%rbp)
	movq	%r8, 32(%rbp)
	cmpq	$0, 24(%rbp)
	je	.L493
	movq	16(%rbp), %rax
	movq	%rax, -8(%rbp)
	movq	24(%rbp), %rax
	movq	%rax, -16(%rbp)
	movq	32(%rbp), %rax
	movq	%rax, -24(%rbp)
	movq	-24(%rbp), %rcx
	movq	-16(%rbp), %rdx
	movq	-8(%rbp), %rax
	movq	%rcx, %r8
	movq	%rax, %rcx
	call	_ZNSt15__new_allocatorIfE10deallocateEPfy
	nop
.L493:
	nop
	addq	$64, %rsp
	popq	%rbp
	ret
	.seh_endproc
	.section	.text$_ZNSt12_Vector_baseIfSaIfEE19_M_get_Tp_allocatorEv,"x"
	.linkonce discard
	.align 2
	.globl	_ZNSt12_Vector_baseIfSaIfEE19_M_get_Tp_allocatorEv
	.def	_ZNSt12_Vector_baseIfSaIfEE19_M_get_Tp_allocatorEv;	.scl	2;	.type	32;	.endef
	.seh_proc	_ZNSt12_Vector_baseIfSaIfEE19_M_get_Tp_allocatorEv
_ZNSt12_Vector_baseIfSaIfEE19_M_get_Tp_allocatorEv:
.LFB12090:
	pushq	%rbp
	.seh_pushreg	%rbp
	movq	%rsp, %rbp
	.seh_setframe	%rbp, 0
	.seh_endprologue
	movq	%rcx, 16(%rbp)
	movq	16(%rbp), %rax
	popq	%rbp
	ret
	.seh_endproc
	.section	.text$_ZNSt6vectorIS_IfSaIfEESaIS1_EE14_M_fill_assignEyRKS1_,"x"
	.linkonce discard
	.align 2
	.globl	_ZNSt6vectorIS_IfSaIfEESaIS1_EE14_M_fill_assignEyRKS1_
	.def	_ZNSt6vectorIS_IfSaIfEESaIS1_EE14_M_fill_assignEyRKS1_;	.scl	2;	.type	32;	.endef
	.seh_proc	_ZNSt6vectorIS_IfSaIfEESaIS1_EE14_M_fill_assignEyRKS1_
_ZNSt6vectorIS_IfSaIfEESaIS1_EE14_M_fill_assignEyRKS1_:
.LFB12092:
	pushq	%rbp
	.seh_pushreg	%rbp
	pushq	%rbx
	.seh_pushreg	%rbx
	subq	$232, %rsp
	.seh_stackalloc	232
	leaq	224(%rsp), %rbp
	.seh_setframe	%rbp, 224
	.seh_endprologue
	movq	%rcx, 32(%rbp)
	movq	%rdx, 40(%rbp)
	movq	%r8, 48(%rbp)
	movq	32(%rbp), %rax
	movq	%rax, %rcx
	call	_ZNKSt6vectorIS_IfSaIfEESaIS1_EE4sizeEv
	movq	%rax, -8(%rbp)
	movq	32(%rbp), %rax
	movq	%rax, %rcx
	call	_ZNKSt6vectorIS_IfSaIfEESaIS1_EE8capacityEv
	cmpq	40(%rbp), %rax
	setb	%al
	testb	%al, %al
	je	.L497
	movq	40(%rbp), %rax
	cmpq	%rax, -8(%rbp)
	movq	32(%rbp), %rax
	movq	%rax, %rcx
	call	_ZNSt12_Vector_baseISt6vectorIfSaIfEESaIS2_EE19_M_get_Tp_allocatorEv
	movq	%rax, %rcx
	movq	48(%rbp), %r8
	movq	40(%rbp), %rdx
	leaq	-128(%rbp), %rax
	movq	%rcx, %r9
	movq	%rax, %rcx
	call	_ZNSt6vectorIS_IfSaIfEESaIS1_EEC1EyRKS1_RKS2_
	movq	32(%rbp), %rdx
	leaq	-128(%rbp), %rax
	movq	%rax, %rcx
	call	_ZNSt12_Vector_baseISt6vectorIfSaIfEESaIS2_EE17_Vector_impl_data12_M_swap_dataERS5_
	leaq	-128(%rbp), %rax
	movq	%rax, %rcx
	call	_ZNSt6vectorIS_IfSaIfEESaIS1_EED1Ev
	jmp	.L507
.L497:
	movq	40(%rbp), %rax
	cmpq	%rax, -8(%rbp)
	jnb	.L500
	movq	32(%rbp), %rax
	movq	%rax, %rcx
	call	_ZNSt6vectorIS_IfSaIfEESaIS1_EE3endEv
	movq	%rax, %rbx
	movq	32(%rbp), %rax
	movq	%rax, %rcx
	call	_ZNSt6vectorIS_IfSaIfEESaIS1_EE5beginEv
	movq	%rax, -152(%rbp)
	movq	%rbx, -160(%rbp)
	movq	48(%rbp), %rax
	movq	%rax, -24(%rbp)
	movq	-152(%rbp), %rax
	movq	%rax, -168(%rbp)
	movq	-160(%rbp), %rax
	movq	%rax, -176(%rbp)
	movq	-24(%rbp), %rax
	movq	%rax, -32(%rbp)
	movq	-168(%rbp), %rax
	movq	%rax, -184(%rbp)
	movq	-176(%rbp), %rax
	movq	%rax, -192(%rbp)
	movq	-32(%rbp), %rax
	movq	%rax, -40(%rbp)
	leaq	-192(%rbp), %rax
	movq	(%rax), %rdx
	leaq	-184(%rbp), %rax
	movq	(%rax), %rax
	movq	-40(%rbp), %rcx
	movq	%rcx, %r8
	movq	%rax, %rcx
	call	_ZSt9__fill_a1IPSt6vectorIfSaIfEES2_EvT_S4_RKT0_
	nop
	nop
	nop
	movq	40(%rbp), %rax
	subq	-8(%rbp), %rax
	movq	%rax, -16(%rbp)
	movq	32(%rbp), %rax
	movq	%rax, %rcx
	call	_ZNSt12_Vector_baseISt6vectorIfSaIfEESaIS2_EE19_M_get_Tp_allocatorEv
	movq	%rax, %rcx
	movq	32(%rbp), %rax
	movq	8(%rax), %rax
	movq	48(%rbp), %r8
	movq	-16(%rbp), %rdx
	movq	%rcx, %r9
	movq	%rax, %rcx
	call	_ZSt24__uninitialized_fill_n_aIPSt6vectorIfSaIfEEyS2_S2_ET_S4_T0_RKT1_RSaIT2_E
	movq	32(%rbp), %rdx
	movq	%rax, 8(%rdx)
	jmp	.L507
.L500:
	movq	32(%rbp), %rax
	movq	(%rax), %rax
	movq	%rax, -136(%rbp)
	movq	40(%rbp), %rax
	movq	%rax, -48(%rbp)
	movq	48(%rbp), %rax
	movq	%rax, -56(%rbp)
	nop
	movq	-48(%rbp), %rax
	movq	%rax, %rcx
	call	_ZSt17__size_to_integery
	movq	-136(%rbp), %rdx
	movq	%rdx, -64(%rbp)
	movq	%rax, -72(%rbp)
	movq	-56(%rbp), %rax
	movq	%rax, -80(%rbp)
	cmpq	$0, -72(%rbp)
	jne	.L504
	movq	-64(%rbp), %rax
	jmp	.L505
.L504:
	movq	-72(%rbp), %rdx
	movq	%rdx, %rax
	addq	%rax, %rax
	addq	%rdx, %rax
	salq	$3, %rax
	movq	%rax, %rdx
	movq	-64(%rbp), %rax
	addq	%rax, %rdx
	movq	-64(%rbp), %rax
	movq	%rax, -88(%rbp)
	movq	%rdx, -96(%rbp)
	movq	-80(%rbp), %rax
	movq	%rax, -104(%rbp)
	movq	-104(%rbp), %rcx
	movq	-96(%rbp), %rdx
	movq	-88(%rbp), %rax
	movq	%rcx, %r8
	movq	%rax, %rcx
	call	_ZSt9__fill_a1IPSt6vectorIfSaIfEES2_EvT_S4_RKT0_
	nop
	movq	-72(%rbp), %rdx
	movq	%rdx, %rax
	addq	%rax, %rax
	addq	%rdx, %rax
	salq	$3, %rax
	movq	%rax, %rdx
	movq	-64(%rbp), %rax
	addq	%rdx, %rax
.L505:
	nop
	movq	32(%rbp), %rcx
	movq	%rax, %rdx
	call	_ZNSt6vectorIS_IfSaIfEESaIS1_EE15_M_erase_at_endEPS1_
.L507:
	nop
	addq	$232, %rsp
	popq	%rbx
	popq	%rbp
	ret
	.seh_endproc
	.section	.text$_ZNKSt7__cxx1112basic_stringIcSt11char_traitsIcESaIcEE17find_first_not_ofEPKcyy,"x"
	.linkonce discard
	.align 2
	.globl	_ZNKSt7__cxx1112basic_stringIcSt11char_traitsIcESaIcEE17find_first_not_ofEPKcyy
	.def	_ZNKSt7__cxx1112basic_stringIcSt11char_traitsIcESaIcEE17find_first_not_ofEPKcyy;	.scl	2;	.type	32;	.endef
	.seh_proc	_ZNKSt7__cxx1112basic_stringIcSt11char_traitsIcESaIcEE17find_first_not_ofEPKcyy
_ZNKSt7__cxx1112basic_stringIcSt11char_traitsIcESaIcEE17find_first_not_ofEPKcyy:
.LFB12093:
	pushq	%rbp
	.seh_pushreg	%rbp
	movq	%rsp, %rbp
	.seh_setframe	%rbp, 0
	subq	$32, %rsp
	.seh_stackalloc	32
	.seh_endprologue
	movq	%rcx, 16(%rbp)
	movq	%rdx, 24(%rbp)
	movq	%r8, 32(%rbp)
	movq	%r9, 40(%rbp)
	jmp	.L509
.L512:
	movq	16(%rbp), %rax
	movq	%rax, %rcx
	call	_ZNKSt7__cxx1112basic_stringIcSt11char_traitsIcESaIcEE7_M_dataEv
	movq	32(%rbp), %rdx
	leaq	(%rax,%rdx), %rcx
	movq	40(%rbp), %rdx
	movq	24(%rbp), %rax
	movq	%rcx, %r8
	movq	%rax, %rcx
	call	_ZNSt11char_traitsIcE4findEPKcyRS1_
	testq	%rax, %rax
	sete	%al
	testb	%al, %al
	je	.L510
	movq	32(%rbp), %rax
	jmp	.L511
.L510:
	addq	$1, 32(%rbp)
.L509:
	movq	16(%rbp), %rax
	movq	%rax, %rcx
	call	_ZNKSt7__cxx1112basic_stringIcSt11char_traitsIcESaIcEE4sizeEv
	cmpq	%rax, 32(%rbp)
	setb	%al
	testb	%al, %al
	jne	.L512
	movq	$-1, %rax
.L511:
	addq	$32, %rsp
	popq	%rbp
	ret
	.seh_handler	__gxx_personality_seh0, @unwind, @except
	.seh_handlerdata
.LLSDA12093:
	.byte	0xff
	.byte	0xff
	.byte	0x1
	.uleb128 .LLSDACSE12093-.LLSDACSB12093
.LLSDACSB12093:
.LLSDACSE12093:
	.section	.text$_ZNKSt7__cxx1112basic_stringIcSt11char_traitsIcESaIcEE17find_first_not_ofEPKcyy,"x"
	.linkonce discard
	.seh_endproc
	.section	.text$_ZNSt6vectorIfSaIfEE17_S_check_init_lenEyRKS0_,"x"
	.linkonce discard
	.globl	_ZNSt6vectorIfSaIfEE17_S_check_init_lenEyRKS0_
	.def	_ZNSt6vectorIfSaIfEE17_S_check_init_lenEyRKS0_;	.scl	2;	.type	32;	.endef
	.seh_proc	_ZNSt6vectorIfSaIfEE17_S_check_init_lenEyRKS0_
_ZNSt6vectorIfSaIfEE17_S_check_init_lenEyRKS0_:
.LFB12097:
	pushq	%rbp
	.seh_pushreg	%rbp
	pushq	%rbx
	.seh_pushreg	%rbx
	subq	$72, %rsp
	.seh_stackalloc	72
	leaq	64(%rsp), %rbp
	.seh_setframe	%rbp, 64
	.seh_endprologue
	movq	%rcx, 32(%rbp)
	movq	%rdx, 40(%rbp)
	movq	40(%rbp), %rax
	movq	%rax, -8(%rbp)
	leaq	-25(%rbp), %rax
	movq	%rax, -16(%rbp)
	movq	-8(%rbp), %rax
	movq	%rax, -24(%rbp)
	nop
	nop
	leaq	-25(%rbp), %rax
	movq	%rax, %rcx
	call	_ZNSt6vectorIfSaIfEE11_S_max_sizeERKS0_
	cmpq	32(%rbp), %rax
	setb	%bl
	leaq	-25(%rbp), %rax
	movq	%rax, %rcx
	call	_ZNSt15__new_allocatorIfED2Ev
	nop
	testb	%bl, %bl
	je	.L514
	leaq	.LC20(%rip), %rax
	movq	%rax, %rcx
	call	_ZSt20__throw_length_errorPKc
.L514:
	movq	32(%rbp), %rax
	addq	$72, %rsp
	popq	%rbx
	popq	%rbp
	ret
	.seh_endproc
	.section	.text$_ZNSt12_Vector_baseIfSaIfEEC2EyRKS0_,"x"
	.linkonce discard
	.align 2
	.globl	_ZNSt12_Vector_baseIfSaIfEEC2EyRKS0_
	.def	_ZNSt12_Vector_baseIfSaIfEEC2EyRKS0_;	.scl	2;	.type	32;	.endef
	.seh_proc	_ZNSt12_Vector_baseIfSaIfEEC2EyRKS0_
_ZNSt12_Vector_baseIfSaIfEEC2EyRKS0_:
.LFB12099:
	pushq	%rbp
	.seh_pushreg	%rbp
	pushq	%rbx
	.seh_pushreg	%rbx
	subq	$40, %rsp
	.seh_stackalloc	40
	leaq	32(%rsp), %rbp
	.seh_setframe	%rbp, 32
	.seh_endprologue
	movq	%rcx, 32(%rbp)
	movq	%rdx, 40(%rbp)
	movq	%r8, 48(%rbp)
	movq	32(%rbp), %rax
	movq	48(%rbp), %rdx
	movq	%rax, %rcx
	call	_ZNSt12_Vector_baseIfSaIfEE12_Vector_implC1ERKS0_
	movq	40(%rbp), %rdx
	movq	32(%rbp), %rax
	movq	%rax, %rcx
.LEHB62:
	call	_ZNSt12_Vector_baseIfSaIfEE17_M_create_storageEy
.LEHE62:
	jmp	.L519
.L518:
	movq	%rax, %rbx
	movq	32(%rbp), %rax
	movq	%rax, %rcx
	call	_ZNSt12_Vector_baseIfSaIfEE12_Vector_implD1Ev
	movq	%rbx, %rax
	movq	%rax, %rcx
.LEHB63:
	call	_Unwind_Resume
	nop
.LEHE63:
.L519:
	addq	$40, %rsp
	popq	%rbx
	popq	%rbp
	ret
	.seh_handler	__gxx_personality_seh0, @unwind, @except
	.seh_handlerdata
.LLSDA12099:
	.byte	0xff
	.byte	0xff
	.byte	0x1
	.uleb128 .LLSDACSE12099-.LLSDACSB12099
.LLSDACSB12099:
	.uleb128 .LEHB62-.LFB12099
	.uleb128 .LEHE62-.LEHB62
	.uleb128 .L518-.LFB12099
	.uleb128 0
	.uleb128 .LEHB63-.LFB12099
	.uleb128 .LEHE63-.LEHB63
	.uleb128 0
	.uleb128 0
.LLSDACSE12099:
	.section	.text$_ZNSt12_Vector_baseIfSaIfEEC2EyRKS0_,"x"
	.linkonce discard
	.seh_endproc
	.section	.text$_ZNSt6vectorIfSaIfEE18_M_fill_initializeEyRKf,"x"
	.linkonce discard
	.align 2
	.globl	_ZNSt6vectorIfSaIfEE18_M_fill_initializeEyRKf
	.def	_ZNSt6vectorIfSaIfEE18_M_fill_initializeEyRKf;	.scl	2;	.type	32;	.endef
	.seh_proc	_ZNSt6vectorIfSaIfEE18_M_fill_initializeEyRKf
_ZNSt6vectorIfSaIfEE18_M_fill_initializeEyRKf:
.LFB12101:
	pushq	%rbp
	.seh_pushreg	%rbp
	movq	%rsp, %rbp
	.seh_setframe	%rbp, 0
	subq	$32, %rsp
	.seh_stackalloc	32
	.seh_endprologue
	movq	%rcx, 16(%rbp)
	movq	%rdx, 24(%rbp)
	movq	%r8, 32(%rbp)
	movq	16(%rbp), %rax
	movq	%rax, %rcx
	call	_ZNSt12_Vector_baseIfSaIfEE19_M_get_Tp_allocatorEv
	movq	%rax, %rcx
	movq	16(%rbp), %rax
	movq	(%rax), %rax
	movq	32(%rbp), %r8
	movq	24(%rbp), %rdx
	movq	%rcx, %r9
	movq	%rax, %rcx
	call	_ZSt24__uninitialized_fill_n_aIPfyffET_S1_T0_RKT1_RSaIT2_E
	movq	16(%rbp), %rdx
	movq	%rax, 8(%rdx)
	nop
	addq	$32, %rsp
	popq	%rbp
	ret
	.seh_endproc
	.section	.text$_ZNSt6vectorIfSaIfEE14_M_fill_assignEyRKf,"x"
	.linkonce discard
	.align 2
	.globl	_ZNSt6vectorIfSaIfEE14_M_fill_assignEyRKf
	.def	_ZNSt6vectorIfSaIfEE14_M_fill_assignEyRKf;	.scl	2;	.type	32;	.endef
	.seh_proc	_ZNSt6vectorIfSaIfEE14_M_fill_assignEyRKf
_ZNSt6vectorIfSaIfEE14_M_fill_assignEyRKf:
.LFB12102:
	pushq	%rbp
	.seh_pushreg	%rbp
	pushq	%rbx
	.seh_pushreg	%rbx
	subq	$232, %rsp
	.seh_stackalloc	232
	leaq	224(%rsp), %rbp
	.seh_setframe	%rbp, 224
	.seh_endprologue
	movq	%rcx, 32(%rbp)
	movq	%rdx, 40(%rbp)
	movq	%r8, 48(%rbp)
	movq	32(%rbp), %rax
	movq	%rax, %rcx
	call	_ZNKSt6vectorIfSaIfEE4sizeEv
	movq	%rax, -8(%rbp)
	movq	32(%rbp), %rax
	movq	%rax, %rcx
	call	_ZNKSt6vectorIfSaIfEE8capacityEv
	cmpq	40(%rbp), %rax
	setb	%al
	testb	%al, %al
	je	.L522
	movq	40(%rbp), %rax
	cmpq	%rax, -8(%rbp)
	movq	32(%rbp), %rax
	movq	%rax, %rcx
	call	_ZNSt12_Vector_baseIfSaIfEE19_M_get_Tp_allocatorEv
	movq	%rax, %rcx
	movq	48(%rbp), %r8
	movq	40(%rbp), %rdx
	leaq	-128(%rbp), %rax
	movq	%rcx, %r9
	movq	%rax, %rcx
	call	_ZNSt6vectorIfSaIfEEC1EyRKfRKS0_
	movq	32(%rbp), %rdx
	leaq	-128(%rbp), %rax
	movq	%rax, %rcx
	call	_ZNSt12_Vector_baseIfSaIfEE17_Vector_impl_data12_M_swap_dataERS2_
	leaq	-128(%rbp), %rax
	movq	%rax, %rcx
	call	_ZNSt6vectorIfSaIfEED1Ev
	jmp	.L532
.L522:
	movq	40(%rbp), %rax
	cmpq	%rax, -8(%rbp)
	jnb	.L525
	movq	32(%rbp), %rax
	movq	%rax, %rcx
	call	_ZNSt6vectorIfSaIfEE3endEv
	movq	%rax, %rbx
	movq	32(%rbp), %rax
	movq	%rax, %rcx
	call	_ZNSt6vectorIfSaIfEE5beginEv
	movq	%rax, -152(%rbp)
	movq	%rbx, -160(%rbp)
	movq	48(%rbp), %rax
	movq	%rax, -24(%rbp)
	movq	-152(%rbp), %rax
	movq	%rax, -168(%rbp)
	movq	-160(%rbp), %rax
	movq	%rax, -176(%rbp)
	movq	-24(%rbp), %rax
	movq	%rax, -32(%rbp)
	movq	-168(%rbp), %rax
	movq	%rax, -184(%rbp)
	movq	-176(%rbp), %rax
	movq	%rax, -192(%rbp)
	movq	-32(%rbp), %rax
	movq	%rax, -40(%rbp)
	leaq	-192(%rbp), %rax
	movq	(%rax), %rdx
	leaq	-184(%rbp), %rax
	movq	(%rax), %rax
	movq	-40(%rbp), %rcx
	movq	%rcx, %r8
	movq	%rax, %rcx
	call	_ZSt9__fill_a1IPffEvT_S1_RKT0_
	nop
	nop
	nop
	movq	40(%rbp), %rax
	subq	-8(%rbp), %rax
	movq	%rax, -16(%rbp)
	movq	32(%rbp), %rax
	movq	%rax, %rcx
	call	_ZNSt12_Vector_baseIfSaIfEE19_M_get_Tp_allocatorEv
	movq	%rax, %rcx
	movq	32(%rbp), %rax
	movq	8(%rax), %rax
	movq	48(%rbp), %r8
	movq	-16(%rbp), %rdx
	movq	%rcx, %r9
	movq	%rax, %rcx
	call	_ZSt24__uninitialized_fill_n_aIPfyffET_S1_T0_RKT1_RSaIT2_E
	movq	32(%rbp), %rdx
	movq	%rax, 8(%rdx)
	jmp	.L532
.L525:
	movq	32(%rbp), %rax
	movq	(%rax), %rax
	movq	%rax, -136(%rbp)
	movq	40(%rbp), %rax
	movq	%rax, -48(%rbp)
	movq	48(%rbp), %rax
	movq	%rax, -56(%rbp)
	nop
	movq	-48(%rbp), %rax
	movq	%rax, %rcx
	call	_ZSt17__size_to_integery
	movq	-136(%rbp), %rdx
	movq	%rdx, -64(%rbp)
	movq	%rax, -72(%rbp)
	movq	-56(%rbp), %rax
	movq	%rax, -80(%rbp)
	cmpq	$0, -72(%rbp)
	jne	.L529
	movq	-64(%rbp), %rax
	jmp	.L530
.L529:
	movq	-72(%rbp), %rax
	leaq	0(,%rax,4), %rdx
	movq	-64(%rbp), %rax
	addq	%rax, %rdx
	movq	-64(%rbp), %rax
	movq	%rax, -88(%rbp)
	movq	%rdx, -96(%rbp)
	movq	-80(%rbp), %rax
	movq	%rax, -104(%rbp)
	movq	-104(%rbp), %rcx
	movq	-96(%rbp), %rdx
	movq	-88(%rbp), %rax
	movq	%rcx, %r8
	movq	%rax, %rcx
	call	_ZSt9__fill_a1IPffEvT_S1_RKT0_
	nop
	movq	-72(%rbp), %rax
	leaq	0(,%rax,4), %rdx
	movq	-64(%rbp), %rax
	addq	%rdx, %rax
.L530:
	nop
	movq	32(%rbp), %rcx
	movq	%rax, %rdx
	call	_ZNSt6vectorIfSaIfEE15_M_erase_at_endEPf
.L532:
	nop
	addq	$232, %rsp
	popq	%rbx
	popq	%rbp
	ret
	.seh_endproc
	.section	.text$_ZNSt12_Vector_baseIfSaIfEE17_Vector_impl_data12_M_swap_dataERS2_,"x"
	.linkonce discard
	.align 2
	.globl	_ZNSt12_Vector_baseIfSaIfEE17_Vector_impl_data12_M_swap_dataERS2_
	.def	_ZNSt12_Vector_baseIfSaIfEE17_Vector_impl_data12_M_swap_dataERS2_;	.scl	2;	.type	32;	.endef
	.seh_proc	_ZNSt12_Vector_baseIfSaIfEE17_Vector_impl_data12_M_swap_dataERS2_
_ZNSt12_Vector_baseIfSaIfEE17_Vector_impl_data12_M_swap_dataERS2_:
.LFB12117:
	pushq	%rbp
	.seh_pushreg	%rbp
	movq	%rsp, %rbp
	.seh_setframe	%rbp, 0
	subq	$64, %rsp
	.seh_stackalloc	64
	.seh_endprologue
	movq	%rcx, 16(%rbp)
	movq	%rdx, 24(%rbp)
	leaq	-32(%rbp), %rax
	movq	%rax, %rcx
	call	_ZNSt12_Vector_baseIfSaIfEE17_Vector_impl_dataC1Ev
	movq	16(%rbp), %rdx
	leaq	-32(%rbp), %rax
	movq	%rax, %rcx
	call	_ZNSt12_Vector_baseIfSaIfEE17_Vector_impl_data12_M_copy_dataERKS2_
	movq	24(%rbp), %rdx
	movq	16(%rbp), %rax
	movq	%rax, %rcx
	call	_ZNSt12_Vector_baseIfSaIfEE17_Vector_impl_data12_M_copy_dataERKS2_
	leaq	-32(%rbp), %rdx
	movq	24(%rbp), %rax
	movq	%rax, %rcx
	call	_ZNSt12_Vector_baseIfSaIfEE17_Vector_impl_data12_M_copy_dataERKS2_
	nop
	addq	$64, %rsp
	popq	%rbp
	ret
	.seh_endproc
	.section	.text$_ZNSt12_Vector_baseIfSaIfEE17_Vector_impl_dataC2EOS2_,"x"
	.linkonce discard
	.align 2
	.globl	_ZNSt12_Vector_baseIfSaIfEE17_Vector_impl_dataC2EOS2_
	.def	_ZNSt12_Vector_baseIfSaIfEE17_Vector_impl_dataC2EOS2_;	.scl	2;	.type	32;	.endef
	.seh_proc	_ZNSt12_Vector_baseIfSaIfEE17_Vector_impl_dataC2EOS2_
_ZNSt12_Vector_baseIfSaIfEE17_Vector_impl_dataC2EOS2_:
.LFB12124:
	pushq	%rbp
	.seh_pushreg	%rbp
	movq	%rsp, %rbp
	.seh_setframe	%rbp, 0
	.seh_endprologue
	movq	%rcx, 16(%rbp)
	movq	%rdx, 24(%rbp)
	movq	24(%rbp), %rax
	movq	(%rax), %rdx
	movq	16(%rbp), %rax
	movq	%rdx, (%rax)
	movq	24(%rbp), %rax
	movq	8(%rax), %rdx
	movq	16(%rbp), %rax
	movq	%rdx, 8(%rax)
	movq	24(%rbp), %rax
	movq	16(%rax), %rdx
	movq	16(%rbp), %rax
	movq	%rdx, 16(%rax)
	movq	24(%rbp), %rax
	movq	$0, 16(%rax)
	movq	24(%rbp), %rax
	movq	16(%rax), %rdx
	movq	24(%rbp), %rax
	movq	%rdx, 8(%rax)
	movq	24(%rbp), %rax
	movq	8(%rax), %rdx
	movq	24(%rbp), %rax
	movq	%rdx, (%rax)
	nop
	popq	%rbp
	ret
	.seh_endproc
	.section .rdata,"dr"
.LC21:
	.ascii "_M_a <= _M_b\0"
	.align 8
.LC22:
	.ascii "std::uniform_real_distribution<_RealType>::param_type::param_type(_RealType, _RealType) [with _RealType = float]\0"
	.align 8
.LC23:
	.ascii "C:/msys64/ucrt64/include/c++/15.2.0/bits/random.h\0"
	.section	.text$_ZNSt25uniform_real_distributionIfE10param_typeC1Eff,"x"
	.linkonce discard
	.align 2
	.globl	_ZNSt25uniform_real_distributionIfE10param_typeC1Eff
	.def	_ZNSt25uniform_real_distributionIfE10param_typeC1Eff;	.scl	2;	.type	32;	.endef
	.seh_proc	_ZNSt25uniform_real_distributionIfE10param_typeC1Eff
_ZNSt25uniform_real_distributionIfE10param_typeC1Eff:
.LFB12128:
	pushq	%rbp
	.seh_pushreg	%rbp
	movq	%rsp, %rbp
	.seh_setframe	%rbp, 0
	subq	$32, %rsp
	.seh_stackalloc	32
	.seh_endprologue
	movq	%rcx, 16(%rbp)
	movss	%xmm1, 24(%rbp)
	movss	%xmm2, 32(%rbp)
	movq	16(%rbp), %rax
	movss	24(%rbp), %xmm0
	movss	%xmm0, (%rax)
	movq	16(%rbp), %rax
	movss	32(%rbp), %xmm0
	movss	%xmm0, 4(%rax)
	movq	16(%rbp), %rax
	movss	(%rax), %xmm1
	movq	16(%rbp), %rax
	movss	4(%rax), %xmm0
	comiss	%xmm1, %xmm0
	setnb	%al
	xorl	$1, %eax
	movzbl	%al, %eax
	testl	%eax, %eax
	je	.L537
	leaq	.LC21(%rip), %rcx
	leaq	.LC22(%rip), %rdx
	leaq	.LC23(%rip), %rax
	movq	%rcx, %r9
	movq	%rdx, %r8
	movl	$1901, %edx
	movq	%rax, %rcx
	call	_ZSt21__glibcxx_assert_failPKciS0_S0_
.L537:
	nop
	addq	$32, %rsp
	popq	%rbp
	ret
	.seh_endproc
	.section .rdata,"dr"
.LC24:
	.ascii "vector::_M_default_append\0"
	.section	.text$_ZNSt6vectorIS_IS_IfSaIfEESaIS1_EESaIS3_EE17_M_default_appendEy,"x"
	.linkonce discard
	.align 2
	.globl	_ZNSt6vectorIS_IS_IfSaIfEESaIS1_EESaIS3_EE17_M_default_appendEy
	.def	_ZNSt6vectorIS_IS_IfSaIfEESaIS1_EESaIS3_EE17_M_default_appendEy;	.scl	2;	.type	32;	.endef
	.seh_proc	_ZNSt6vectorIS_IS_IfSaIfEESaIS1_EESaIS3_EE17_M_default_appendEy
_ZNSt6vectorIS_IS_IfSaIfEESaIS1_EESaIS3_EE17_M_default_appendEy:
.LFB12129:
	pushq	%rbp
	.seh_pushreg	%rbp
	pushq	%rbx
	.seh_pushreg	%rbx
	subq	$120, %rsp
	.seh_stackalloc	120
	leaq	112(%rsp), %rbp
	.seh_setframe	%rbp, 112
	.seh_endprologue
	movq	%rcx, 32(%rbp)
	movq	%rdx, 40(%rbp)
	cmpq	$0, 40(%rbp)
	je	.L548
	movq	32(%rbp), %rax
	movq	%rax, %rcx
	call	_ZNKSt6vectorIS_IS_IfSaIfEESaIS1_EESaIS3_EE4sizeEv
	movq	%rax, -8(%rbp)
	movq	32(%rbp), %rax
	movq	16(%rax), %rdx
	movq	32(%rbp), %rax
	movq	8(%rax), %rax
	subq	%rax, %rdx
	sarq	$3, %rdx
	movabsq	$-6148914691236517205, %rax
	imulq	%rdx, %rax
	movq	%rax, -16(%rbp)
	movq	32(%rbp), %rax
	movq	%rax, %rcx
	call	_ZNKSt6vectorIS_IS_IfSaIfEESaIS1_EESaIS3_EE8max_sizeEv
	cmpq	-8(%rbp), %rax
	jb	.L540
	movq	32(%rbp), %rax
	movq	%rax, %rcx
	call	_ZNKSt6vectorIS_IS_IfSaIfEESaIS1_EESaIS3_EE8max_sizeEv
	subq	-8(%rbp), %rax
	cmpq	-16(%rbp), %rax
	jnb	.L541
.L540:
	movl	$1, %eax
	jmp	.L542
.L541:
	movl	$0, %eax
.L542:
	testb	%al, %al
	movq	-16(%rbp), %rax
	cmpq	40(%rbp), %rax
	jb	.L544
	movq	32(%rbp), %rax
	movq	8(%rax), %rax
	testq	%rax, %rax
	movq	32(%rbp), %rax
	movq	%rax, %rcx
	call	_ZNSt12_Vector_baseISt6vectorIS0_IfSaIfEESaIS2_EESaIS4_EE19_M_get_Tp_allocatorEv
	movq	%rax, %rcx
	movq	32(%rbp), %rax
	movq	8(%rax), %rax
	movq	40(%rbp), %rdx
	movq	%rcx, %r8
	movq	%rax, %rcx
.LEHB64:
	call	_ZSt27__uninitialized_default_n_aIPSt6vectorIS0_IfSaIfEESaIS2_EEyS4_ET_S6_T0_RSaIT1_E
	movq	32(%rbp), %rdx
	movq	%rax, 8(%rdx)
	jmp	.L548
.L544:
	movq	32(%rbp), %rax
	movq	(%rax), %rax
	movq	%rax, -24(%rbp)
	movq	32(%rbp), %rax
	movq	8(%rax), %rax
	movq	%rax, -32(%rbp)
	leaq	.LC24(%rip), %rcx
	movq	40(%rbp), %rdx
	movq	32(%rbp), %rax
	movq	%rcx, %r8
	movq	%rax, %rcx
	call	_ZNKSt6vectorIS_IS_IfSaIfEESaIS1_EESaIS3_EE12_M_check_lenEyPKc
	movq	%rax, -40(%rbp)
	movq	32(%rbp), %rax
	movq	-40(%rbp), %rdx
	movq	%rax, %rcx
	call	_ZNSt12_Vector_baseISt6vectorIS0_IfSaIfEESaIS2_EESaIS4_EE11_M_allocateEy
.LEHE64:
	movq	%rax, -48(%rbp)
	movq	32(%rbp), %r8
	movq	-40(%rbp), %rcx
	movq	-48(%rbp), %rdx
	leaq	-80(%rbp), %rax
	movq	%r8, %r9
	movq	%rcx, %r8
	movq	%rax, %rcx
	call	_ZNSt6vectorIS_IS_IfSaIfEESaIS1_EESaIS3_EE12_Guard_allocC1EPS3_yRSt12_Vector_baseIS3_S4_E
	movq	32(%rbp), %rax
	movq	%rax, %rcx
	call	_ZNSt12_Vector_baseISt6vectorIS0_IfSaIfEESaIS2_EESaIS4_EE19_M_get_Tp_allocatorEv
	movq	%rax, %r8
	movq	-8(%rbp), %rdx
	movq	%rdx, %rax
	addq	%rax, %rax
	addq	%rdx, %rax
	salq	$3, %rax
	movq	%rax, %rdx
	movq	-48(%rbp), %rax
	leaq	(%rdx,%rax), %rcx
	movq	40(%rbp), %rax
	movq	%rax, %rdx
.LEHB65:
	call	_ZSt27__uninitialized_default_n_aIPSt6vectorIS0_IfSaIfEESaIS2_EEyS4_ET_S6_T0_RSaIT1_E
.LEHE65:
	movq	32(%rbp), %rax
	movq	%rax, %rcx
	call	_ZNSt12_Vector_baseISt6vectorIS0_IfSaIfEESaIS2_EESaIS4_EE19_M_get_Tp_allocatorEv
	movq	%rax, %rcx
	movq	-48(%rbp), %r8
	movq	-32(%rbp), %rdx
	movq	-24(%rbp), %rax
	movq	%rcx, %r9
	movq	%rax, %rcx
	call	_ZNSt6vectorIS_IS_IfSaIfEESaIS1_EESaIS3_EE11_S_relocateEPS3_S6_S6_RS4_
	movq	-24(%rbp), %rax
	movq	%rax, -80(%rbp)
	movq	32(%rbp), %rax
	movq	16(%rax), %rax
	subq	-24(%rbp), %rax
	sarq	$3, %rax
	movq	%rax, %rdx
	movabsq	$-6148914691236517205, %rax
	imulq	%rdx, %rax
	movq	%rax, -72(%rbp)
	leaq	-80(%rbp), %rax
	movq	%rax, %rcx
	call	_ZNSt6vectorIS_IS_IfSaIfEESaIS1_EESaIS3_EE12_Guard_allocD1Ev
	movq	32(%rbp), %rax
	movq	-48(%rbp), %rdx
	movq	%rdx, (%rax)
	movq	-8(%rbp), %rdx
	movq	40(%rbp), %rax
	addq	%rax, %rdx
	movq	%rdx, %rax
	addq	%rax, %rax
	addq	%rdx, %rax
	salq	$3, %rax
	movq	%rax, %rdx
	movq	-48(%rbp), %rax
	addq	%rax, %rdx
	movq	32(%rbp), %rax
	movq	%rdx, 8(%rax)
	movq	-40(%rbp), %rdx
	movq	%rdx, %rax
	addq	%rax, %rax
	addq	%rdx, %rax
	salq	$3, %rax
	movq	%rax, %rdx
	movq	-48(%rbp), %rax
	addq	%rax, %rdx
	movq	32(%rbp), %rax
	movq	%rdx, 16(%rax)
	jmp	.L548
.L547:
	movq	%rax, %rbx
	leaq	-80(%rbp), %rax
	movq	%rax, %rcx
	call	_ZNSt6vectorIS_IS_IfSaIfEESaIS1_EESaIS3_EE12_Guard_allocD1Ev
	movq	%rbx, %rax
	movq	%rax, %rcx
.LEHB66:
	call	_Unwind_Resume
.LEHE66:
.L548:
	nop
	addq	$120, %rsp
	popq	%rbx
	popq	%rbp
	ret
	.seh_handler	__gxx_personality_seh0, @unwind, @except
	.seh_handlerdata
.LLSDA12129:
	.byte	0xff
	.byte	0xff
	.byte	0x1
	.uleb128 .LLSDACSE12129-.LLSDACSB12129
.LLSDACSB12129:
	.uleb128 .LEHB64-.LFB12129
	.uleb128 .LEHE64-.LEHB64
	.uleb128 0
	.uleb128 0
	.uleb128 .LEHB65-.LFB12129
	.uleb128 .LEHE65-.LEHB65
	.uleb128 .L547-.LFB12129
	.uleb128 0
	.uleb128 .LEHB66-.LFB12129
	.uleb128 .LEHE66-.LEHB66
	.uleb128 0
	.uleb128 0
.LLSDACSE12129:
	.section	.text$_ZNSt6vectorIS_IS_IfSaIfEESaIS1_EESaIS3_EE17_M_default_appendEy,"x"
	.linkonce discard
	.seh_endproc
	.section	.text$_ZNSt6vectorIS_IS_IfSaIfEESaIS1_EESaIS3_EE15_M_erase_at_endEPS3_,"x"
	.linkonce discard
	.align 2
	.globl	_ZNSt6vectorIS_IS_IfSaIfEESaIS1_EESaIS3_EE15_M_erase_at_endEPS3_
	.def	_ZNSt6vectorIS_IS_IfSaIfEESaIS1_EESaIS3_EE15_M_erase_at_endEPS3_;	.scl	2;	.type	32;	.endef
	.seh_proc	_ZNSt6vectorIS_IS_IfSaIfEESaIS1_EESaIS3_EE15_M_erase_at_endEPS3_
_ZNSt6vectorIS_IS_IfSaIfEESaIS1_EESaIS3_EE15_M_erase_at_endEPS3_:
.LFB12134:
	pushq	%rbp
	.seh_pushreg	%rbp
	movq	%rsp, %rbp
	.seh_setframe	%rbp, 0
	subq	$64, %rsp
	.seh_stackalloc	64
	.seh_endprologue
	movq	%rcx, 16(%rbp)
	movq	%rdx, 24(%rbp)
	movq	16(%rbp), %rax
	movq	8(%rax), %rax
	subq	24(%rbp), %rax
	sarq	$3, %rax
	movq	%rax, %rdx
	movabsq	$-6148914691236517205, %rax
	imulq	%rdx, %rax
	movq	%rax, -8(%rbp)
	cmpq	$0, -8(%rbp)
	je	.L551
	movq	16(%rbp), %rax
	movq	%rax, %rcx
	call	_ZNSt12_Vector_baseISt6vectorIS0_IfSaIfEESaIS2_EESaIS4_EE19_M_get_Tp_allocatorEv
	movq	16(%rbp), %rdx
	movq	8(%rdx), %rdx
	movq	24(%rbp), %rcx
	movq	%rcx, -16(%rbp)
	movq	%rdx, -24(%rbp)
	movq	%rax, -32(%rbp)
	movq	-24(%rbp), %rdx
	movq	-16(%rbp), %rax
	movq	%rax, %rcx
	call	_ZSt8_DestroyIPSt6vectorIS0_IfSaIfEESaIS2_EEEvT_S6_
	nop
	movq	16(%rbp), %rax
	movq	24(%rbp), %rdx
	movq	%rdx, 8(%rax)
.L551:
	nop
	addq	$64, %rsp
	popq	%rbp
	ret
	.seh_handler	__gxx_personality_seh0, @unwind, @except
	.seh_handlerdata
.LLSDA12134:
	.byte	0xff
	.byte	0xff
	.byte	0x1
	.uleb128 .LLSDACSE12134-.LLSDACSB12134
.LLSDACSB12134:
.LLSDACSE12134:
	.section	.text$_ZNSt6vectorIS_IS_IfSaIfEESaIS1_EESaIS3_EE15_M_erase_at_endEPS3_,"x"
	.linkonce discard
	.seh_endproc
	.section	.text$_ZNSt6vectorIS_IfSaIfEESaIS1_EE17_M_default_appendEy,"x"
	.linkonce discard
	.align 2
	.globl	_ZNSt6vectorIS_IfSaIfEESaIS1_EE17_M_default_appendEy
	.def	_ZNSt6vectorIS_IfSaIfEESaIS1_EE17_M_default_appendEy;	.scl	2;	.type	32;	.endef
	.seh_proc	_ZNSt6vectorIS_IfSaIfEESaIS1_EE17_M_default_appendEy
_ZNSt6vectorIS_IfSaIfEESaIS1_EE17_M_default_appendEy:
.LFB12135:
	pushq	%rbp
	.seh_pushreg	%rbp
	pushq	%rbx
	.seh_pushreg	%rbx
	subq	$120, %rsp
	.seh_stackalloc	120
	leaq	112(%rsp), %rbp
	.seh_setframe	%rbp, 112
	.seh_endprologue
	movq	%rcx, 32(%rbp)
	movq	%rdx, 40(%rbp)
	cmpq	$0, 40(%rbp)
	je	.L562
	movq	32(%rbp), %rax
	movq	%rax, %rcx
	call	_ZNKSt6vectorIS_IfSaIfEESaIS1_EE4sizeEv
	movq	%rax, -8(%rbp)
	movq	32(%rbp), %rax
	movq	16(%rax), %rdx
	movq	32(%rbp), %rax
	movq	8(%rax), %rax
	subq	%rax, %rdx
	sarq	$3, %rdx
	movabsq	$-6148914691236517205, %rax
	imulq	%rdx, %rax
	movq	%rax, -16(%rbp)
	movq	32(%rbp), %rax
	movq	%rax, %rcx
	call	_ZNKSt6vectorIS_IfSaIfEESaIS1_EE8max_sizeEv
	cmpq	-8(%rbp), %rax
	jb	.L554
	movq	32(%rbp), %rax
	movq	%rax, %rcx
	call	_ZNKSt6vectorIS_IfSaIfEESaIS1_EE8max_sizeEv
	subq	-8(%rbp), %rax
	cmpq	-16(%rbp), %rax
	jnb	.L555
.L554:
	movl	$1, %eax
	jmp	.L556
.L555:
	movl	$0, %eax
.L556:
	testb	%al, %al
	movq	-16(%rbp), %rax
	cmpq	40(%rbp), %rax
	jb	.L558
	movq	32(%rbp), %rax
	movq	8(%rax), %rax
	testq	%rax, %rax
	movq	32(%rbp), %rax
	movq	%rax, %rcx
	call	_ZNSt12_Vector_baseISt6vectorIfSaIfEESaIS2_EE19_M_get_Tp_allocatorEv
	movq	%rax, %rcx
	movq	32(%rbp), %rax
	movq	8(%rax), %rax
	movq	40(%rbp), %rdx
	movq	%rcx, %r8
	movq	%rax, %rcx
.LEHB67:
	call	_ZSt27__uninitialized_default_n_aIPSt6vectorIfSaIfEEyS2_ET_S4_T0_RSaIT1_E
	movq	32(%rbp), %rdx
	movq	%rax, 8(%rdx)
	jmp	.L562
.L558:
	movq	32(%rbp), %rax
	movq	(%rax), %rax
	movq	%rax, -24(%rbp)
	movq	32(%rbp), %rax
	movq	8(%rax), %rax
	movq	%rax, -32(%rbp)
	leaq	.LC24(%rip), %rcx
	movq	40(%rbp), %rdx
	movq	32(%rbp), %rax
	movq	%rcx, %r8
	movq	%rax, %rcx
	call	_ZNKSt6vectorIS_IfSaIfEESaIS1_EE12_M_check_lenEyPKc
	movq	%rax, -40(%rbp)
	movq	32(%rbp), %rax
	movq	-40(%rbp), %rdx
	movq	%rax, %rcx
	call	_ZNSt12_Vector_baseISt6vectorIfSaIfEESaIS2_EE11_M_allocateEy
.LEHE67:
	movq	%rax, -48(%rbp)
	movq	32(%rbp), %r8
	movq	-40(%rbp), %rcx
	movq	-48(%rbp), %rdx
	leaq	-80(%rbp), %rax
	movq	%r8, %r9
	movq	%rcx, %r8
	movq	%rax, %rcx
	call	_ZNSt6vectorIS_IfSaIfEESaIS1_EE12_Guard_allocC1EPS1_yRSt12_Vector_baseIS1_S2_E
	movq	32(%rbp), %rax
	movq	%rax, %rcx
	call	_ZNSt12_Vector_baseISt6vectorIfSaIfEESaIS2_EE19_M_get_Tp_allocatorEv
	movq	%rax, %r8
	movq	-8(%rbp), %rdx
	movq	%rdx, %rax
	addq	%rax, %rax
	addq	%rdx, %rax
	salq	$3, %rax
	movq	%rax, %rdx
	movq	-48(%rbp), %rax
	leaq	(%rdx,%rax), %rcx
	movq	40(%rbp), %rax
	movq	%rax, %rdx
.LEHB68:
	call	_ZSt27__uninitialized_default_n_aIPSt6vectorIfSaIfEEyS2_ET_S4_T0_RSaIT1_E
.LEHE68:
	movq	32(%rbp), %rax
	movq	%rax, %rcx
	call	_ZNSt12_Vector_baseISt6vectorIfSaIfEESaIS2_EE19_M_get_Tp_allocatorEv
	movq	%rax, %rcx
	movq	-48(%rbp), %r8
	movq	-32(%rbp), %rdx
	movq	-24(%rbp), %rax
	movq	%rcx, %r9
	movq	%rax, %rcx
	call	_ZNSt6vectorIS_IfSaIfEESaIS1_EE11_S_relocateEPS1_S4_S4_RS2_
	movq	-24(%rbp), %rax
	movq	%rax, -80(%rbp)
	movq	32(%rbp), %rax
	movq	16(%rax), %rax
	subq	-24(%rbp), %rax
	sarq	$3, %rax
	movq	%rax, %rdx
	movabsq	$-6148914691236517205, %rax
	imulq	%rdx, %rax
	movq	%rax, -72(%rbp)
	leaq	-80(%rbp), %rax
	movq	%rax, %rcx
	call	_ZNSt6vectorIS_IfSaIfEESaIS1_EE12_Guard_allocD1Ev
	movq	32(%rbp), %rax
	movq	-48(%rbp), %rdx
	movq	%rdx, (%rax)
	movq	-8(%rbp), %rdx
	movq	40(%rbp), %rax
	addq	%rax, %rdx
	movq	%rdx, %rax
	addq	%rax, %rax
	addq	%rdx, %rax
	salq	$3, %rax
	movq	%rax, %rdx
	movq	-48(%rbp), %rax
	addq	%rax, %rdx
	movq	32(%rbp), %rax
	movq	%rdx, 8(%rax)
	movq	-40(%rbp), %rdx
	movq	%rdx, %rax
	addq	%rax, %rax
	addq	%rdx, %rax
	salq	$3, %rax
	movq	%rax, %rdx
	movq	-48(%rbp), %rax
	addq	%rax, %rdx
	movq	32(%rbp), %rax
	movq	%rdx, 16(%rax)
	jmp	.L562
.L561:
	movq	%rax, %rbx
	leaq	-80(%rbp), %rax
	movq	%rax, %rcx
	call	_ZNSt6vectorIS_IfSaIfEESaIS1_EE12_Guard_allocD1Ev
	movq	%rbx, %rax
	movq	%rax, %rcx
.LEHB69:
	call	_Unwind_Resume
.LEHE69:
.L562:
	nop
	addq	$120, %rsp
	popq	%rbx
	popq	%rbp
	ret
	.seh_handler	__gxx_personality_seh0, @unwind, @except
	.seh_handlerdata
.LLSDA12135:
	.byte	0xff
	.byte	0xff
	.byte	0x1
	.uleb128 .LLSDACSE12135-.LLSDACSB12135
.LLSDACSB12135:
	.uleb128 .LEHB67-.LFB12135
	.uleb128 .LEHE67-.LEHB67
	.uleb128 0
	.uleb128 0
	.uleb128 .LEHB68-.LFB12135
	.uleb128 .LEHE68-.LEHB68
	.uleb128 .L561-.LFB12135
	.uleb128 0
	.uleb128 .LEHB69-.LFB12135
	.uleb128 .LEHE69-.LEHB69
	.uleb128 0
	.uleb128 0
.LLSDACSE12135:
	.section	.text$_ZNSt6vectorIS_IfSaIfEESaIS1_EE17_M_default_appendEy,"x"
	.linkonce discard
	.seh_endproc
	.section	.text$_ZNSt6vectorIS_IfSaIfEESaIS1_EE15_M_erase_at_endEPS1_,"x"
	.linkonce discard
	.align 2
	.globl	_ZNSt6vectorIS_IfSaIfEESaIS1_EE15_M_erase_at_endEPS1_
	.def	_ZNSt6vectorIS_IfSaIfEESaIS1_EE15_M_erase_at_endEPS1_;	.scl	2;	.type	32;	.endef
	.seh_proc	_ZNSt6vectorIS_IfSaIfEESaIS1_EE15_M_erase_at_endEPS1_
_ZNSt6vectorIS_IfSaIfEESaIS1_EE15_M_erase_at_endEPS1_:
.LFB12140:
	pushq	%rbp
	.seh_pushreg	%rbp
	movq	%rsp, %rbp
	.seh_setframe	%rbp, 0
	subq	$64, %rsp
	.seh_stackalloc	64
	.seh_endprologue
	movq	%rcx, 16(%rbp)
	movq	%rdx, 24(%rbp)
	movq	16(%rbp), %rax
	movq	8(%rax), %rax
	subq	24(%rbp), %rax
	sarq	$3, %rax
	movq	%rax, %rdx
	movabsq	$-6148914691236517205, %rax
	imulq	%rdx, %rax
	movq	%rax, -8(%rbp)
	cmpq	$0, -8(%rbp)
	je	.L565
	movq	16(%rbp), %rax
	movq	%rax, %rcx
	call	_ZNSt12_Vector_baseISt6vectorIfSaIfEESaIS2_EE19_M_get_Tp_allocatorEv
	movq	16(%rbp), %rdx
	movq	8(%rdx), %rdx
	movq	24(%rbp), %rcx
	movq	%rcx, -16(%rbp)
	movq	%rdx, -24(%rbp)
	movq	%rax, -32(%rbp)
	movq	-24(%rbp), %rdx
	movq	-16(%rbp), %rax
	movq	%rax, %rcx
	call	_ZSt8_DestroyIPSt6vectorIfSaIfEEEvT_S4_
	nop
	movq	16(%rbp), %rax
	movq	24(%rbp), %rdx
	movq	%rdx, 8(%rax)
.L565:
	nop
	addq	$64, %rsp
	popq	%rbp
	ret
	.seh_handler	__gxx_personality_seh0, @unwind, @except
	.seh_handlerdata
.LLSDA12140:
	.byte	0xff
	.byte	0xff
	.byte	0x1
	.uleb128 .LLSDACSE12140-.LLSDACSB12140
.LLSDACSB12140:
.LLSDACSE12140:
	.section	.text$_ZNSt6vectorIS_IfSaIfEESaIS1_EE15_M_erase_at_endEPS1_,"x"
	.linkonce discard
	.seh_endproc
	.section	.text$_ZNSt25uniform_real_distributionIfEclISt23mersenne_twister_engineIjLy32ELy624ELy397ELy31ELj2567483615ELy11ELj4294967295ELy7ELj2636928640ELy15ELj4022730752ELy18ELj1812433253EEEEfRT_RKNS0_10param_typeE,"x"
	.linkonce discard
	.align 2
	.globl	_ZNSt25uniform_real_distributionIfEclISt23mersenne_twister_engineIjLy32ELy624ELy397ELy31ELj2567483615ELy11ELj4294967295ELy7ELj2636928640ELy15ELj4022730752ELy18ELj1812433253EEEEfRT_RKNS0_10param_typeE
	.def	_ZNSt25uniform_real_distributionIfEclISt23mersenne_twister_engineIjLy32ELy624ELy397ELy31ELj2567483615ELy11ELj4294967295ELy7ELj2636928640ELy15ELj4022730752ELy18ELj1812433253EEEEfRT_RKNS0_10param_typeE;	.scl	2;	.type	32;	.endef
	.seh_proc	_ZNSt25uniform_real_distributionIfEclISt23mersenne_twister_engineIjLy32ELy624ELy397ELy31ELj2567483615ELy11ELj4294967295ELy7ELj2636928640ELy15ELj4022730752ELy18ELj1812433253EEEEfRT_RKNS0_10param_typeE
_ZNSt25uniform_real_distributionIfEclISt23mersenne_twister_engineIjLy32ELy624ELy397ELy31ELj2567483615ELy11ELj4294967295ELy7ELj2636928640ELy15ELj4022730752ELy18ELj1812433253EEEEfRT_RKNS0_10param_typeE:
.LFB12141:
	pushq	%rbp
	.seh_pushreg	%rbp
	pushq	%rbx
	.seh_pushreg	%rbx
	subq	$72, %rsp
	.seh_stackalloc	72
	leaq	48(%rsp), %rbp
	.seh_setframe	%rbp, 48
	movups	%xmm6, 0(%rbp)
	.seh_savexmm	%xmm6, 48
	.seh_endprologue
	movq	%rcx, 48(%rbp)
	movq	%rdx, 56(%rbp)
	movq	%r8, 64(%rbp)
	movq	56(%rbp), %rdx
	leaq	-8(%rbp), %rax
	movq	%rax, %rcx
	call	_ZNSt8__detail8_AdaptorISt23mersenne_twister_engineIjLy32ELy624ELy397ELy31ELj2567483615ELy11ELj4294967295ELy7ELj2636928640ELy15ELj4022730752ELy18ELj1812433253EEfEC1ERS2_
	leaq	-8(%rbp), %rax
	movq	%rax, %rcx
	call	_ZNSt8__detail8_AdaptorISt23mersenne_twister_engineIjLy32ELy624ELy397ELy31ELj2567483615ELy11ELj4294967295ELy7ELj2636928640ELy15ELj4022730752ELy18ELj1812433253EEfEclEv
	movaps	%xmm0, %xmm6
	movq	64(%rbp), %rax
	movq	%rax, %rcx
	call	_ZNKSt25uniform_real_distributionIfE10param_type1bEv
	movd	%xmm0, %ebx
	movq	64(%rbp), %rax
	movq	%rax, %rcx
	call	_ZNKSt25uniform_real_distributionIfE10param_type1aEv
	movd	%ebx, %xmm1
	subss	%xmm0, %xmm1
	mulss	%xmm1, %xmm6
	movq	64(%rbp), %rax
	movq	%rax, %rcx
	call	_ZNKSt25uniform_real_distributionIfE10param_type1aEv
	addss	%xmm6, %xmm0
	movups	0(%rbp), %xmm6
	addq	$72, %rsp
	popq	%rbx
	popq	%rbp
	ret
	.seh_endproc
	.section	.text$_ZNSt6vectorIS_IfSaIfEESaIS1_EE17_S_check_init_lenEyRKS2_,"x"
	.linkonce discard
	.globl	_ZNSt6vectorIS_IfSaIfEESaIS1_EE17_S_check_init_lenEyRKS2_
	.def	_ZNSt6vectorIS_IfSaIfEESaIS1_EE17_S_check_init_lenEyRKS2_;	.scl	2;	.type	32;	.endef
	.seh_proc	_ZNSt6vectorIS_IfSaIfEESaIS1_EE17_S_check_init_lenEyRKS2_
_ZNSt6vectorIS_IfSaIfEESaIS1_EE17_S_check_init_lenEyRKS2_:
.LFB12145:
	pushq	%rbp
	.seh_pushreg	%rbp
	pushq	%rbx
	.seh_pushreg	%rbx
	subq	$72, %rsp
	.seh_stackalloc	72
	leaq	64(%rsp), %rbp
	.seh_setframe	%rbp, 64
	.seh_endprologue
	movq	%rcx, 32(%rbp)
	movq	%rdx, 40(%rbp)
	movq	40(%rbp), %rax
	movq	%rax, -8(%rbp)
	leaq	-25(%rbp), %rax
	movq	%rax, -16(%rbp)
	movq	-8(%rbp), %rax
	movq	%rax, -24(%rbp)
	nop
	nop
	leaq	-25(%rbp), %rax
	movq	%rax, %rcx
	call	_ZNSt6vectorIS_IfSaIfEESaIS1_EE11_S_max_sizeERKS2_
	cmpq	32(%rbp), %rax
	setb	%bl
	leaq	-25(%rbp), %rax
	movq	%rax, %rcx
	call	_ZNSt15__new_allocatorISt6vectorIfSaIfEEED2Ev
	nop
	testb	%bl, %bl
	je	.L569
	leaq	.LC20(%rip), %rax
	movq	%rax, %rcx
	call	_ZSt20__throw_length_errorPKc
.L569:
	movq	32(%rbp), %rax
	addq	$72, %rsp
	popq	%rbx
	popq	%rbp
	ret
	.seh_endproc
	.section	.text$_ZNSt12_Vector_baseISt6vectorIfSaIfEESaIS2_EEC2EyRKS3_,"x"
	.linkonce discard
	.align 2
	.globl	_ZNSt12_Vector_baseISt6vectorIfSaIfEESaIS2_EEC2EyRKS3_
	.def	_ZNSt12_Vector_baseISt6vectorIfSaIfEESaIS2_EEC2EyRKS3_;	.scl	2;	.type	32;	.endef
	.seh_proc	_ZNSt12_Vector_baseISt6vectorIfSaIfEESaIS2_EEC2EyRKS3_
_ZNSt12_Vector_baseISt6vectorIfSaIfEESaIS2_EEC2EyRKS3_:
.LFB12147:
	pushq	%rbp
	.seh_pushreg	%rbp
	pushq	%rbx
	.seh_pushreg	%rbx
	subq	$40, %rsp
	.seh_stackalloc	40
	leaq	32(%rsp), %rbp
	.seh_setframe	%rbp, 32
	.seh_endprologue
	movq	%rcx, 32(%rbp)
	movq	%rdx, 40(%rbp)
	movq	%r8, 48(%rbp)
	movq	32(%rbp), %rax
	movq	48(%rbp), %rdx
	movq	%rax, %rcx
	call	_ZNSt12_Vector_baseISt6vectorIfSaIfEESaIS2_EE12_Vector_implC1ERKS3_
	movq	40(%rbp), %rdx
	movq	32(%rbp), %rax
	movq	%rax, %rcx
.LEHB70:
	call	_ZNSt12_Vector_baseISt6vectorIfSaIfEESaIS2_EE17_M_create_storageEy
.LEHE70:
	jmp	.L574
.L573:
	movq	%rax, %rbx
	movq	32(%rbp), %rax
	movq	%rax, %rcx
	call	_ZNSt12_Vector_baseISt6vectorIfSaIfEESaIS2_EE12_Vector_implD1Ev
	movq	%rbx, %rax
	movq	%rax, %rcx
.LEHB71:
	call	_Unwind_Resume
	nop
.LEHE71:
.L574:
	addq	$40, %rsp
	popq	%rbx
	popq	%rbp
	ret
	.seh_handler	__gxx_personality_seh0, @unwind, @except
	.seh_handlerdata
.LLSDA12147:
	.byte	0xff
	.byte	0xff
	.byte	0x1
	.uleb128 .LLSDACSE12147-.LLSDACSB12147
.LLSDACSB12147:
	.uleb128 .LEHB70-.LFB12147
	.uleb128 .LEHE70-.LEHB70
	.uleb128 .L573-.LFB12147
	.uleb128 0
	.uleb128 .LEHB71-.LFB12147
	.uleb128 .LEHE71-.LEHB71
	.uleb128 0
	.uleb128 0
.LLSDACSE12147:
	.section	.text$_ZNSt12_Vector_baseISt6vectorIfSaIfEESaIS2_EEC2EyRKS3_,"x"
	.linkonce discard
	.seh_endproc
	.section	.text$_ZNSt6vectorIS_IfSaIfEESaIS1_EE18_M_fill_initializeEyRKS1_,"x"
	.linkonce discard
	.align 2
	.globl	_ZNSt6vectorIS_IfSaIfEESaIS1_EE18_M_fill_initializeEyRKS1_
	.def	_ZNSt6vectorIS_IfSaIfEESaIS1_EE18_M_fill_initializeEyRKS1_;	.scl	2;	.type	32;	.endef
	.seh_proc	_ZNSt6vectorIS_IfSaIfEESaIS1_EE18_M_fill_initializeEyRKS1_
_ZNSt6vectorIS_IfSaIfEESaIS1_EE18_M_fill_initializeEyRKS1_:
.LFB12149:
	pushq	%rbp
	.seh_pushreg	%rbp
	movq	%rsp, %rbp
	.seh_setframe	%rbp, 0
	subq	$32, %rsp
	.seh_stackalloc	32
	.seh_endprologue
	movq	%rcx, 16(%rbp)
	movq	%rdx, 24(%rbp)
	movq	%r8, 32(%rbp)
	movq	16(%rbp), %rax
	movq	%rax, %rcx
	call	_ZNSt12_Vector_baseISt6vectorIfSaIfEESaIS2_EE19_M_get_Tp_allocatorEv
	movq	%rax, %rcx
	movq	16(%rbp), %rax
	movq	(%rax), %rax
	movq	32(%rbp), %r8
	movq	24(%rbp), %rdx
	movq	%rcx, %r9
	movq	%rax, %rcx
	call	_ZSt24__uninitialized_fill_n_aIPSt6vectorIfSaIfEEyS2_S2_ET_S4_T0_RKT1_RSaIT2_E
	movq	16(%rbp), %rdx
	movq	%rax, 8(%rdx)
	nop
	addq	$32, %rsp
	popq	%rbp
	ret
	.seh_endproc
	.section	.text$_ZNKSt6vectorIfSaIfEE8capacityEv,"x"
	.linkonce discard
	.align 2
	.globl	_ZNKSt6vectorIfSaIfEE8capacityEv
	.def	_ZNKSt6vectorIfSaIfEE8capacityEv;	.scl	2;	.type	32;	.endef
	.seh_proc	_ZNKSt6vectorIfSaIfEE8capacityEv
_ZNKSt6vectorIfSaIfEE8capacityEv:
.LFB12187:
	pushq	%rbp
	.seh_pushreg	%rbp
	movq	%rsp, %rbp
	.seh_setframe	%rbp, 0
	subq	$16, %rsp
	.seh_stackalloc	16
	.seh_endprologue
	movq	%rcx, 16(%rbp)
	movq	16(%rbp), %rax
	movq	16(%rax), %rdx
	movq	16(%rbp), %rax
	movq	(%rax), %rax
	subq	%rax, %rdx
	movq	%rdx, %rax
	sarq	$2, %rax
	movq	%rax, -8(%rbp)
	cmpq	$0, -8(%rbp)
	movq	-8(%rbp), %rax
	addq	$16, %rsp
	popq	%rbp
	ret
	.seh_endproc
	.section	.text$_ZNSt12_Vector_baseIfSaIfEE11_M_allocateEy,"x"
	.linkonce discard
	.align 2
	.globl	_ZNSt12_Vector_baseIfSaIfEE11_M_allocateEy
	.def	_ZNSt12_Vector_baseIfSaIfEE11_M_allocateEy;	.scl	2;	.type	32;	.endef
	.seh_proc	_ZNSt12_Vector_baseIfSaIfEE11_M_allocateEy
_ZNSt12_Vector_baseIfSaIfEE11_M_allocateEy:
.LFB12188:
	pushq	%rbp
	.seh_pushreg	%rbp
	movq	%rsp, %rbp
	.seh_setframe	%rbp, 0
	subq	$48, %rsp
	.seh_stackalloc	48
	.seh_endprologue
	movq	%rcx, 16(%rbp)
	movq	%rdx, 24(%rbp)
	cmpq	$0, 24(%rbp)
	je	.L580
	movq	16(%rbp), %rax
	movq	%rax, -8(%rbp)
	movq	24(%rbp), %rax
	movq	%rax, -16(%rbp)
	movq	-16(%rbp), %rdx
	movq	-8(%rbp), %rax
	movl	$0, %r8d
	movq	%rax, %rcx
	call	_ZNSt15__new_allocatorIfE8allocateEyPKv
	nop
	jmp	.L582
.L580:
	movl	$0, %eax
.L582:
	addq	$48, %rsp
	popq	%rbp
	ret
	.seh_endproc
	.section	.text$_ZNSt19__ptr_traits_ptr_toIPccLb0EE10pointer_toERc,"x"
	.linkonce discard
	.globl	_ZNSt19__ptr_traits_ptr_toIPccLb0EE10pointer_toERc
	.def	_ZNSt19__ptr_traits_ptr_toIPccLb0EE10pointer_toERc;	.scl	2;	.type	32;	.endef
	.seh_proc	_ZNSt19__ptr_traits_ptr_toIPccLb0EE10pointer_toERc
_ZNSt19__ptr_traits_ptr_toIPccLb0EE10pointer_toERc:
.LFB12192:
	pushq	%rbp
	.seh_pushreg	%rbp
	movq	%rsp, %rbp
	.seh_setframe	%rbp, 0
	subq	$16, %rsp
	.seh_stackalloc	16
	.seh_endprologue
	movq	%rcx, 16(%rbp)
	movq	16(%rbp), %rax
	movq	%rax, -8(%rbp)
	movq	-8(%rbp), %rax
	movq	%rax, -16(%rbp)
	movq	-16(%rbp), %rax
	nop
	addq	$16, %rsp
	popq	%rbp
	ret
	.seh_endproc
	.section	.text$_ZNSt7__cxx1112basic_stringIcSt11char_traitsIcESaIcEE10_M_destroyEy,"x"
	.linkonce discard
	.align 2
	.globl	_ZNSt7__cxx1112basic_stringIcSt11char_traitsIcESaIcEE10_M_destroyEy
	.def	_ZNSt7__cxx1112basic_stringIcSt11char_traitsIcESaIcEE10_M_destroyEy;	.scl	2;	.type	32;	.endef
	.seh_proc	_ZNSt7__cxx1112basic_stringIcSt11char_traitsIcESaIcEE10_M_destroyEy
_ZNSt7__cxx1112basic_stringIcSt11char_traitsIcESaIcEE10_M_destroyEy:
.LFB12196:
	pushq	%rbp
	.seh_pushreg	%rbp
	pushq	%rsi
	.seh_pushreg	%rsi
	pushq	%rbx
	.seh_pushreg	%rbx
	subq	$64, %rsp
	.seh_stackalloc	64
	leaq	64(%rsp), %rbp
	.seh_setframe	%rbp, 64
	.seh_endprologue
	movq	%rcx, 32(%rbp)
	movq	%rdx, 40(%rbp)
	movq	40(%rbp), %rax
	leaq	1(%rax), %rsi
	movq	32(%rbp), %rax
	movq	%rax, %rcx
	call	_ZNKSt7__cxx1112basic_stringIcSt11char_traitsIcESaIcEE7_M_dataEv
	movq	%rax, %rbx
	movq	32(%rbp), %rax
	movq	%rax, %rcx
	call	_ZNSt7__cxx1112basic_stringIcSt11char_traitsIcESaIcEE16_M_get_allocatorEv
	movq	%rax, -8(%rbp)
	movq	%rbx, -16(%rbp)
	movq	%rsi, -24(%rbp)
	movq	-24(%rbp), %rcx
	movq	-16(%rbp), %rdx
	movq	-8(%rbp), %rax
	movq	%rcx, %r8
	movq	%rax, %rcx
	call	_ZNSt15__new_allocatorIcE10deallocateEPcy
	nop
	nop
	addq	$64, %rsp
	popq	%rbx
	popq	%rsi
	popq	%rbp
	ret
	.seh_endproc
	.section .rdata,"dr"
.LC25:
	.ascii "basic_string::_M_create\0"
	.section	.text$_ZNSt7__cxx1112basic_stringIcSt11char_traitsIcESaIcEE9_M_createERyy,"x"
	.linkonce discard
	.align 2
	.globl	_ZNSt7__cxx1112basic_stringIcSt11char_traitsIcESaIcEE9_M_createERyy
	.def	_ZNSt7__cxx1112basic_stringIcSt11char_traitsIcESaIcEE9_M_createERyy;	.scl	2;	.type	32;	.endef
	.seh_proc	_ZNSt7__cxx1112basic_stringIcSt11char_traitsIcESaIcEE9_M_createERyy
_ZNSt7__cxx1112basic_stringIcSt11char_traitsIcESaIcEE9_M_createERyy:
.LFB12198:
	pushq	%rbp
	.seh_pushreg	%rbp
	pushq	%rbx
	.seh_pushreg	%rbx
	subq	$40, %rsp
	.seh_stackalloc	40
	leaq	32(%rsp), %rbp
	.seh_setframe	%rbp, 32
	.seh_endprologue
	movq	%rcx, 32(%rbp)
	movq	%rdx, 40(%rbp)
	movq	%r8, 48(%rbp)
	movq	40(%rbp), %rax
	movq	(%rax), %rbx
	movq	32(%rbp), %rax
	movq	%rax, %rcx
	call	_ZNKSt7__cxx1112basic_stringIcSt11char_traitsIcESaIcEE8max_sizeEv
	cmpq	%rbx, %rax
	setb	%al
	testb	%al, %al
	je	.L590
	leaq	.LC25(%rip), %rax
	movq	%rax, %rcx
	call	_ZSt20__throw_length_errorPKc
.L590:
	movq	40(%rbp), %rax
	movq	(%rax), %rax
	cmpq	%rax, 48(%rbp)
	jnb	.L591
	movq	40(%rbp), %rax
	movq	(%rax), %rdx
	movq	48(%rbp), %rax
	addq	%rax, %rax
	cmpq	%rax, %rdx
	jnb	.L591
	movq	48(%rbp), %rax
	leaq	(%rax,%rax), %rdx
	movq	40(%rbp), %rax
	movq	%rdx, (%rax)
	movq	40(%rbp), %rax
	movq	(%rax), %rbx
	movq	32(%rbp), %rax
	movq	%rax, %rcx
	call	_ZNKSt7__cxx1112basic_stringIcSt11char_traitsIcESaIcEE8max_sizeEv
	cmpq	%rbx, %rax
	setb	%al
	testb	%al, %al
	je	.L591
	movq	32(%rbp), %rax
	movq	%rax, %rcx
	call	_ZNKSt7__cxx1112basic_stringIcSt11char_traitsIcESaIcEE8max_sizeEv
	movq	40(%rbp), %rdx
	movq	%rax, (%rdx)
.L591:
	movq	40(%rbp), %rax
	movq	(%rax), %rax
	leaq	1(%rax), %rbx
	movq	32(%rbp), %rax
	movq	%rax, %rcx
	call	_ZNSt7__cxx1112basic_stringIcSt11char_traitsIcESaIcEE16_M_get_allocatorEv
	movq	%rbx, %rdx
	movq	%rax, %rcx
	call	_ZNSt7__cxx1112basic_stringIcSt11char_traitsIcESaIcEE11_S_allocateERS3_y
	addq	$40, %rsp
	popq	%rbx
	popq	%rbp
	ret
	.seh_endproc
	.section	.text$_ZNSt7__cxx1112basic_stringIcSt11char_traitsIcESaIcEE7_S_copyEPcPKcy,"x"
	.linkonce discard
	.globl	_ZNSt7__cxx1112basic_stringIcSt11char_traitsIcESaIcEE7_S_copyEPcPKcy
	.def	_ZNSt7__cxx1112basic_stringIcSt11char_traitsIcESaIcEE7_S_copyEPcPKcy;	.scl	2;	.type	32;	.endef
	.seh_proc	_ZNSt7__cxx1112basic_stringIcSt11char_traitsIcESaIcEE7_S_copyEPcPKcy
_ZNSt7__cxx1112basic_stringIcSt11char_traitsIcESaIcEE7_S_copyEPcPKcy:
.LFB12199:
	pushq	%rbp
	.seh_pushreg	%rbp
	movq	%rsp, %rbp
	.seh_setframe	%rbp, 0
	subq	$32, %rsp
	.seh_stackalloc	32
	.seh_endprologue
	movq	%rcx, 16(%rbp)
	movq	%rdx, 24(%rbp)
	movq	%r8, 32(%rbp)
	cmpq	$1, 32(%rbp)
	jne	.L594
	movq	24(%rbp), %rdx
	movq	16(%rbp), %rax
	movq	%rax, %rcx
	call	_ZNSt11char_traitsIcE6assignERcRKc
	jmp	.L596
.L594:
	movq	32(%rbp), %rcx
	movq	24(%rbp), %rdx
	movq	16(%rbp), %rax
	movq	%rcx, %r8
	movq	%rax, %rcx
	call	_ZNSt11char_traitsIcE4copyEPcPKcy
.L596:
	nop
	addq	$32, %rsp
	popq	%rbp
	ret
	.seh_endproc
	.section	.text$_ZNKSt7__cxx1112basic_stringIcSt11char_traitsIcESaIcEE13_M_local_dataEv,"x"
	.linkonce discard
	.align 2
	.globl	_ZNKSt7__cxx1112basic_stringIcSt11char_traitsIcESaIcEE13_M_local_dataEv
	.def	_ZNKSt7__cxx1112basic_stringIcSt11char_traitsIcESaIcEE13_M_local_dataEv;	.scl	2;	.type	32;	.endef
	.seh_proc	_ZNKSt7__cxx1112basic_stringIcSt11char_traitsIcESaIcEE13_M_local_dataEv
_ZNKSt7__cxx1112basic_stringIcSt11char_traitsIcESaIcEE13_M_local_dataEv:
.LFB12200:
	pushq	%rbp
	.seh_pushreg	%rbp
	movq	%rsp, %rbp
	.seh_setframe	%rbp, 0
	subq	$32, %rsp
	.seh_stackalloc	32
	.seh_endprologue
	movq	%rcx, 16(%rbp)
	movq	16(%rbp), %rax
	addq	$16, %rax
	movq	%rax, %rcx
	call	_ZNSt19__ptr_traits_ptr_toIPKcS0_Lb0EE10pointer_toERS0_
	addq	$32, %rsp
	popq	%rbp
	ret
	.seh_endproc
	.section	.text$_ZNKSt7__cxx1112basic_stringIcSt11char_traitsIcESaIcEE8max_sizeEv,"x"
	.linkonce discard
	.align 2
	.globl	_ZNKSt7__cxx1112basic_stringIcSt11char_traitsIcESaIcEE8max_sizeEv
	.def	_ZNKSt7__cxx1112basic_stringIcSt11char_traitsIcESaIcEE8max_sizeEv;	.scl	2;	.type	32;	.endef
	.seh_proc	_ZNKSt7__cxx1112basic_stringIcSt11char_traitsIcESaIcEE8max_sizeEv
_ZNKSt7__cxx1112basic_stringIcSt11char_traitsIcESaIcEE8max_sizeEv:
.LFB12216:
	pushq	%rbp
	.seh_pushreg	%rbp
	movq	%rsp, %rbp
	.seh_setframe	%rbp, 0
	subq	$80, %rsp
	.seh_stackalloc	80
	.seh_endprologue
	movq	%rcx, 16(%rbp)
	movabsq	$9223372036854775807, %rax
	movq	%rax, -32(%rbp)
	movq	16(%rbp), %rax
	movq	%rax, %rcx
	call	_ZNKSt7__cxx1112basic_stringIcSt11char_traitsIcESaIcEE16_M_get_allocatorEv
	movq	%rax, -8(%rbp)
	movq	-8(%rbp), %rax
	movq	%rax, -16(%rbp)
	movq	-16(%rbp), %rax
	movq	%rax, -24(%rbp)
	movabsq	$9223372036854775807, %rax
	nop
	nop
	movq	%rax, -40(%rbp)
	leaq	-40(%rbp), %rdx
	leaq	-32(%rbp), %rax
	movq	%rax, %rcx
	call	_ZSt3minIyERKT_S2_S2_
	movq	(%rax), %rax
	subq	$1, %rax
	addq	$80, %rsp
	popq	%rbp
	ret
	.seh_endproc
	.section	.text$_ZNSt7__cxx1112basic_stringIcSt11char_traitsIcESaIcEE13_S_copy_charsIPKcEEvPcT_S9_,"x"
	.linkonce discard
	.globl	_ZNSt7__cxx1112basic_stringIcSt11char_traitsIcESaIcEE13_S_copy_charsIPKcEEvPcT_S9_
	.def	_ZNSt7__cxx1112basic_stringIcSt11char_traitsIcESaIcEE13_S_copy_charsIPKcEEvPcT_S9_;	.scl	2;	.type	32;	.endef
	.seh_proc	_ZNSt7__cxx1112basic_stringIcSt11char_traitsIcESaIcEE13_S_copy_charsIPKcEEvPcT_S9_
_ZNSt7__cxx1112basic_stringIcSt11char_traitsIcESaIcEE13_S_copy_charsIPKcEEvPcT_S9_:
.LFB12217:
	pushq	%rbp
	.seh_pushreg	%rbp
	movq	%rsp, %rbp
	.seh_setframe	%rbp, 0
	subq	$48, %rsp
	.seh_stackalloc	48
	.seh_endprologue
	movq	%rcx, 16(%rbp)
	movq	%rdx, 24(%rbp)
	movq	%r8, 32(%rbp)
	movq	32(%rbp), %rax
	subq	24(%rbp), %rax
	movq	%rax, %rcx
	movq	24(%rbp), %rax
	movq	%rax, -8(%rbp)
	movq	-8(%rbp), %rdx
	movq	16(%rbp), %rax
	movq	%rcx, %r8
	movq	%rax, %rcx
	call	_ZNSt7__cxx1112basic_stringIcSt11char_traitsIcESaIcEE7_S_copyEPcPKcy
	nop
	addq	$48, %rsp
	popq	%rbp
	ret
	.seh_endproc
	.section	.text$_ZSt8_DestroyIPyEvT_S1_,"x"
	.linkonce discard
	.globl	_ZSt8_DestroyIPyEvT_S1_
	.def	_ZSt8_DestroyIPyEvT_S1_;	.scl	2;	.type	32;	.endef
	.seh_proc	_ZSt8_DestroyIPyEvT_S1_
_ZSt8_DestroyIPyEvT_S1_:
.LFB12352:
	pushq	%rbp
	.seh_pushreg	%rbp
	movq	%rsp, %rbp
	.seh_setframe	%rbp, 0
	.seh_endprologue
	movq	%rcx, 16(%rbp)
	movq	%rdx, 24(%rbp)
	nop
	popq	%rbp
	ret
	.seh_endproc
	.section	.text$_ZNSt12_Vector_baseIySaIyEE12_Vector_implC1ERKS0_,"x"
	.linkonce discard
	.align 2
	.globl	_ZNSt12_Vector_baseIySaIyEE12_Vector_implC1ERKS0_
	.def	_ZNSt12_Vector_baseIySaIyEE12_Vector_implC1ERKS0_;	.scl	2;	.type	32;	.endef
	.seh_proc	_ZNSt12_Vector_baseIySaIyEE12_Vector_implC1ERKS0_
_ZNSt12_Vector_baseIySaIyEE12_Vector_implC1ERKS0_:
.LFB12400:
	pushq	%rbp
	.seh_pushreg	%rbp
	movq	%rsp, %rbp
	.seh_setframe	%rbp, 0
	subq	$64, %rsp
	.seh_stackalloc	64
	.seh_endprologue
	movq	%rcx, 16(%rbp)
	movq	%rdx, 24(%rbp)
	movq	16(%rbp), %rax
	movq	%rax, -8(%rbp)
	movq	24(%rbp), %rax
	movq	%rax, -16(%rbp)
	movq	-8(%rbp), %rax
	movq	%rax, -24(%rbp)
	movq	-16(%rbp), %rax
	movq	%rax, -32(%rbp)
	nop
	nop
	movq	16(%rbp), %rax
	movq	%rax, %rcx
	call	_ZNSt12_Vector_baseIySaIyEE17_Vector_impl_dataC2Ev
	nop
	addq	$64, %rsp
	popq	%rbp
	ret
	.seh_endproc
	.section	.text$_ZNSt12_Vector_baseIySaIyEE11_M_allocateEy,"x"
	.linkonce discard
	.align 2
	.globl	_ZNSt12_Vector_baseIySaIyEE11_M_allocateEy
	.def	_ZNSt12_Vector_baseIySaIyEE11_M_allocateEy;	.scl	2;	.type	32;	.endef
	.seh_proc	_ZNSt12_Vector_baseIySaIyEE11_M_allocateEy
_ZNSt12_Vector_baseIySaIyEE11_M_allocateEy:
.LFB12401:
	pushq	%rbp
	.seh_pushreg	%rbp
	movq	%rsp, %rbp
	.seh_setframe	%rbp, 0
	subq	$48, %rsp
	.seh_stackalloc	48
	.seh_endprologue
	movq	%rcx, 16(%rbp)
	movq	%rdx, 24(%rbp)
	cmpq	$0, 24(%rbp)
	je	.L609
	movq	16(%rbp), %rax
	movq	%rax, -8(%rbp)
	movq	24(%rbp), %rax
	movq	%rax, -16(%rbp)
	movq	-16(%rbp), %rdx
	movq	-8(%rbp), %rax
	movl	$0, %r8d
	movq	%rax, %rcx
	call	_ZNSt15__new_allocatorIyE8allocateEyPKv
	nop
	jmp	.L611
.L609:
	movl	$0, %eax
.L611:
	addq	$48, %rsp
	popq	%rbp
	ret
	.seh_endproc
	.section	.text$_ZSt22__uninitialized_copy_aIPKyS1_PyyET1_T_T0_S3_RSaIT2_E,"x"
	.linkonce discard
	.globl	_ZSt22__uninitialized_copy_aIPKyS1_PyyET1_T_T0_S3_RSaIT2_E
	.def	_ZSt22__uninitialized_copy_aIPKyS1_PyyET1_T_T0_S3_RSaIT2_E;	.scl	2;	.type	32;	.endef
	.seh_proc	_ZSt22__uninitialized_copy_aIPKyS1_PyyET1_T_T0_S3_RSaIT2_E
_ZSt22__uninitialized_copy_aIPKyS1_PyyET1_T_T0_S3_RSaIT2_E:
.LFB12403:
	pushq	%rbp
	.seh_pushreg	%rbp
	movq	%rsp, %rbp
	.seh_setframe	%rbp, 0
	subq	$32, %rsp
	.seh_stackalloc	32
	.seh_endprologue
	movq	%rcx, 16(%rbp)
	movq	%rdx, 24(%rbp)
	movq	%r8, 32(%rbp)
	movq	%r9, 40(%rbp)
	movq	32(%rbp), %rcx
	movq	24(%rbp), %rdx
	movq	16(%rbp), %rax
	movq	%rcx, %r8
	movq	%rax, %rcx
	call	_ZSt18uninitialized_copyIPKyPyET0_T_S4_S3_
	addq	$32, %rsp
	popq	%rbp
	ret
	.seh_endproc
	.section	.text$_ZSt8_DestroyIPSt6vectorIS0_IfSaIfEESaIS2_EEEvT_S6_,"x"
	.linkonce discard
	.globl	_ZSt8_DestroyIPSt6vectorIS0_IfSaIfEESaIS2_EEEvT_S6_
	.def	_ZSt8_DestroyIPSt6vectorIS0_IfSaIfEESaIS2_EEEvT_S6_;	.scl	2;	.type	32;	.endef
	.seh_proc	_ZSt8_DestroyIPSt6vectorIS0_IfSaIfEESaIS2_EEEvT_S6_
_ZSt8_DestroyIPSt6vectorIS0_IfSaIfEESaIS2_EEEvT_S6_:
.LFB12404:
	pushq	%rbp
	.seh_pushreg	%rbp
	movq	%rsp, %rbp
	.seh_setframe	%rbp, 0
	subq	$48, %rsp
	.seh_stackalloc	48
	.seh_endprologue
	movq	%rcx, 16(%rbp)
	movq	%rdx, 24(%rbp)
	jmp	.L616
.L618:
	movq	16(%rbp), %rax
	movq	%rax, -8(%rbp)
	movq	-8(%rbp), %rax
	movq	%rax, %rcx
	call	_ZSt8_DestroyISt6vectorIS0_IfSaIfEESaIS2_EEEvPT_
	addq	$24, 16(%rbp)
.L616:
	movq	16(%rbp), %rax
	cmpq	24(%rbp), %rax
	jne	.L618
	nop
	nop
	addq	$48, %rsp
	popq	%rbp
	ret
	.seh_endproc
	.section	.text$_ZSt8_DestroyIPSt6vectorIfSaIfEEEvT_S4_,"x"
	.linkonce discard
	.globl	_ZSt8_DestroyIPSt6vectorIfSaIfEEEvT_S4_
	.def	_ZSt8_DestroyIPSt6vectorIfSaIfEEEvT_S4_;	.scl	2;	.type	32;	.endef
	.seh_proc	_ZSt8_DestroyIPSt6vectorIfSaIfEEEvT_S4_
_ZSt8_DestroyIPSt6vectorIfSaIfEEEvT_S4_:
.LFB12405:
	pushq	%rbp
	.seh_pushreg	%rbp
	movq	%rsp, %rbp
	.seh_setframe	%rbp, 0
	subq	$48, %rsp
	.seh_stackalloc	48
	.seh_endprologue
	movq	%rcx, 16(%rbp)
	movq	%rdx, 24(%rbp)
	jmp	.L620
.L622:
	movq	16(%rbp), %rax
	movq	%rax, -8(%rbp)
	movq	-8(%rbp), %rax
	movq	%rax, %rcx
	call	_ZSt8_DestroyISt6vectorIfSaIfEEEvPT_
	addq	$24, 16(%rbp)
.L620:
	movq	16(%rbp), %rax
	cmpq	24(%rbp), %rax
	jne	.L622
	nop
	nop
	addq	$48, %rsp
	popq	%rbp
	ret
	.seh_endproc
	.section	.text$_ZNSt12_Vector_baseIySaIyEE17_M_create_storageEy,"x"
	.linkonce discard
	.align 2
	.globl	_ZNSt12_Vector_baseIySaIyEE17_M_create_storageEy
	.def	_ZNSt12_Vector_baseIySaIyEE17_M_create_storageEy;	.scl	2;	.type	32;	.endef
	.seh_proc	_ZNSt12_Vector_baseIySaIyEE17_M_create_storageEy
_ZNSt12_Vector_baseIySaIyEE17_M_create_storageEy:
.LFB12407:
	pushq	%rbp
	.seh_pushreg	%rbp
	movq	%rsp, %rbp
	.seh_setframe	%rbp, 0
	subq	$32, %rsp
	.seh_stackalloc	32
	.seh_endprologue
	movq	%rcx, 16(%rbp)
	movq	%rdx, 24(%rbp)
	movq	24(%rbp), %rdx
	movq	16(%rbp), %rax
	movq	%rax, %rcx
	call	_ZNSt12_Vector_baseIySaIyEE11_M_allocateEy
	movq	16(%rbp), %rdx
	movq	%rax, (%rdx)
	movq	16(%rbp), %rax
	movq	(%rax), %rdx
	movq	16(%rbp), %rax
	movq	%rdx, 8(%rax)
	movq	16(%rbp), %rax
	movq	(%rax), %rax
	movq	24(%rbp), %rdx
	salq	$3, %rdx
	addq	%rax, %rdx
	movq	16(%rbp), %rax
	movq	%rdx, 16(%rax)
	nop
	addq	$32, %rsp
	popq	%rbp
	ret
	.seh_endproc
	.section	.text$_ZSt18uninitialized_copyIN9__gnu_cxx17__normal_iteratorIPKySt6vectorIySaIyEEEEPyET0_T_SA_S9_,"x"
	.linkonce discard
	.globl	_ZSt18uninitialized_copyIN9__gnu_cxx17__normal_iteratorIPKySt6vectorIySaIyEEEEPyET0_T_SA_S9_
	.def	_ZSt18uninitialized_copyIN9__gnu_cxx17__normal_iteratorIPKySt6vectorIySaIyEEEEPyET0_T_SA_S9_;	.scl	2;	.type	32;	.endef
	.seh_proc	_ZSt18uninitialized_copyIN9__gnu_cxx17__normal_iteratorIPKySt6vectorIySaIyEEEEPyET0_T_SA_S9_
_ZSt18uninitialized_copyIN9__gnu_cxx17__normal_iteratorIPKySt6vectorIySaIyEEEEPyET0_T_SA_S9_:
.LFB12408:
	pushq	%rbp
	.seh_pushreg	%rbp
	movq	%rsp, %rbp
	.seh_setframe	%rbp, 0
	subq	$80, %rsp
	.seh_stackalloc	80
	.seh_endprologue
	movq	%rcx, 16(%rbp)
	movq	%rdx, 24(%rbp)
	movq	%r8, 32(%rbp)
	leaq	24(%rbp), %rax
	movq	%rax, -16(%rbp)
	movq	-16(%rbp), %rax
	movq	(%rax), %rdx
	leaq	16(%rbp), %rax
	movq	%rax, -24(%rbp)
	movq	-24(%rbp), %rax
	movq	(%rax), %rax
	subq	%rax, %rdx
	movq	%rdx, %rax
	sarq	$3, %rax
	movq	%rax, -8(%rbp)
	cmpq	$0, -8(%rbp)
	jle	.L628
	movq	-8(%rbp), %rax
	leaq	0(,%rax,8), %rcx
	movq	16(%rbp), %rax
	movq	%rax, -40(%rbp)
	leaq	-40(%rbp), %rax
	movq	(%rax), %rdx
	movq	32(%rbp), %rax
	movq	%rax, -32(%rbp)
	movq	-32(%rbp), %rax
	movq	%rcx, %r8
	movq	%rax, %rcx
	call	memcpy
	movq	-8(%rbp), %rax
	salq	$3, %rax
	addq	%rax, 32(%rbp)
.L628:
	movq	32(%rbp), %rax
	addq	$80, %rsp
	popq	%rbp
	ret
	.seh_endproc
	.section	.text$_ZNSt8__detail5__modIjLj0ELj1ELj0EEET_S1_,"x"
	.linkonce discard
	.globl	_ZNSt8__detail5__modIjLj0ELj1ELj0EEET_S1_
	.def	_ZNSt8__detail5__modIjLj0ELj1ELj0EEET_S1_;	.scl	2;	.type	32;	.endef
	.seh_proc	_ZNSt8__detail5__modIjLj0ELj1ELj0EEET_S1_
_ZNSt8__detail5__modIjLj0ELj1ELj0EEET_S1_:
.LFB12417:
	pushq	%rbp
	.seh_pushreg	%rbp
	movq	%rsp, %rbp
	.seh_setframe	%rbp, 0
	subq	$32, %rsp
	.seh_stackalloc	32
	.seh_endprologue
	movl	%ecx, 16(%rbp)
	movl	16(%rbp), %eax
	movl	%eax, %ecx
	call	_ZNSt8__detail4_ModIjLj0ELj1ELj0ELb1ELb0EE6__calcEj
	addq	$32, %rsp
	popq	%rbp
	ret
	.seh_endproc
	.section	.text$_ZNSt8__detail5__modIjLj624ELj1ELj0EEET_S1_,"x"
	.linkonce discard
	.globl	_ZNSt8__detail5__modIjLj624ELj1ELj0EEET_S1_
	.def	_ZNSt8__detail5__modIjLj624ELj1ELj0EEET_S1_;	.scl	2;	.type	32;	.endef
	.seh_proc	_ZNSt8__detail5__modIjLj624ELj1ELj0EEET_S1_
_ZNSt8__detail5__modIjLj624ELj1ELj0EEET_S1_:
.LFB12418:
	pushq	%rbp
	.seh_pushreg	%rbp
	movq	%rsp, %rbp
	.seh_setframe	%rbp, 0
	subq	$32, %rsp
	.seh_stackalloc	32
	.seh_endprologue
	movl	%ecx, 16(%rbp)
	movl	16(%rbp), %eax
	movl	%eax, %ecx
	call	_ZNSt8__detail4_ModIjLj624ELj1ELj0ELb1ELb1EE6__calcEj
	addq	$32, %rsp
	popq	%rbp
	ret
	.seh_endproc
	.section	.text$_ZNSt6vectorIySaIyEE11_S_max_sizeERKS0_,"x"
	.linkonce discard
	.globl	_ZNSt6vectorIySaIyEE11_S_max_sizeERKS0_
	.def	_ZNSt6vectorIySaIyEE11_S_max_sizeERKS0_;	.scl	2;	.type	32;	.endef
	.seh_proc	_ZNSt6vectorIySaIyEE11_S_max_sizeERKS0_
_ZNSt6vectorIySaIyEE11_S_max_sizeERKS0_:
.LFB12424:
	pushq	%rbp
	.seh_pushreg	%rbp
	movq	%rsp, %rbp
	.seh_setframe	%rbp, 0
	subq	$80, %rsp
	.seh_stackalloc	80
	.seh_endprologue
	movq	%rcx, 16(%rbp)
	movabsq	$1152921504606846975, %rax
	movq	%rax, -32(%rbp)
	movq	16(%rbp), %rax
	movq	%rax, -8(%rbp)
	movq	-8(%rbp), %rax
	movq	%rax, -16(%rbp)
	movq	-16(%rbp), %rax
	movq	%rax, -24(%rbp)
	movabsq	$1152921504606846975, %rax
	nop
	nop
	movq	%rax, -40(%rbp)
	leaq	-40(%rbp), %rdx
	leaq	-32(%rbp), %rax
	movq	%rax, %rcx
	call	_ZSt3minIyERKT_S2_S2_
	movq	(%rax), %rax
	addq	$80, %rsp
	popq	%rbp
	ret
	.seh_endproc
	.section	.text$_ZSt27__uninitialized_default_n_aIPyyyET_S1_T0_RSaIT1_E,"x"
	.linkonce discard
	.globl	_ZSt27__uninitialized_default_n_aIPyyyET_S1_T0_RSaIT1_E
	.def	_ZSt27__uninitialized_default_n_aIPyyyET_S1_T0_RSaIT1_E;	.scl	2;	.type	32;	.endef
	.seh_proc	_ZSt27__uninitialized_default_n_aIPyyyET_S1_T0_RSaIT1_E
_ZSt27__uninitialized_default_n_aIPyyyET_S1_T0_RSaIT1_E:
.LFB12428:
	pushq	%rbp
	.seh_pushreg	%rbp
	movq	%rsp, %rbp
	.seh_setframe	%rbp, 0
	subq	$32, %rsp
	.seh_stackalloc	32
	.seh_endprologue
	movq	%rcx, 16(%rbp)
	movq	%rdx, 24(%rbp)
	movq	%r8, 32(%rbp)
	movq	24(%rbp), %rdx
	movq	16(%rbp), %rax
	movq	%rax, %rcx
	call	_ZSt25__uninitialized_default_nIPyyET_S1_T0_
	addq	$32, %rsp
	popq	%rbp
	ret
	.seh_endproc
	.section	.text$_ZNSt6vectorIySaIyEE15_M_erase_at_endEPy,"x"
	.linkonce discard
	.align 2
	.globl	_ZNSt6vectorIySaIyEE15_M_erase_at_endEPy
	.def	_ZNSt6vectorIySaIyEE15_M_erase_at_endEPy;	.scl	2;	.type	32;	.endef
	.seh_proc	_ZNSt6vectorIySaIyEE15_M_erase_at_endEPy
_ZNSt6vectorIySaIyEE15_M_erase_at_endEPy:
.LFB12429:
	pushq	%rbp
	.seh_pushreg	%rbp
	movq	%rsp, %rbp
	.seh_setframe	%rbp, 0
	subq	$64, %rsp
	.seh_stackalloc	64
	.seh_endprologue
	movq	%rcx, 16(%rbp)
	movq	%rdx, 24(%rbp)
	movq	16(%rbp), %rax
	movq	8(%rax), %rax
	subq	24(%rbp), %rax
	sarq	$3, %rax
	movq	%rax, -8(%rbp)
	cmpq	$0, -8(%rbp)
	je	.L646
	movq	16(%rbp), %rax
	movq	%rax, %rcx
	call	_ZNSt12_Vector_baseIySaIyEE19_M_get_Tp_allocatorEv
	movq	16(%rbp), %rdx
	movq	8(%rdx), %rdx
	movq	24(%rbp), %rcx
	movq	%rcx, -16(%rbp)
	movq	%rdx, -24(%rbp)
	movq	%rax, -32(%rbp)
	movq	-24(%rbp), %rdx
	movq	-16(%rbp), %rax
	movq	%rax, %rcx
	call	_ZSt8_DestroyIPyEvT_S1_
	nop
	movq	16(%rbp), %rax
	movq	24(%rbp), %rdx
	movq	%rdx, 8(%rax)
.L646:
	nop
	addq	$64, %rsp
	popq	%rbp
	ret
	.seh_endproc
	.section	.text$_ZNSt6vectorIySaIyEE12_Guard_allocC1EPyyRSt12_Vector_baseIyS0_E,"x"
	.linkonce discard
	.align 2
	.globl	_ZNSt6vectorIySaIyEE12_Guard_allocC1EPyyRSt12_Vector_baseIyS0_E
	.def	_ZNSt6vectorIySaIyEE12_Guard_allocC1EPyyRSt12_Vector_baseIyS0_E;	.scl	2;	.type	32;	.endef
	.seh_proc	_ZNSt6vectorIySaIyEE12_Guard_allocC1EPyyRSt12_Vector_baseIyS0_E
_ZNSt6vectorIySaIyEE12_Guard_allocC1EPyyRSt12_Vector_baseIyS0_E:
.LFB12432:
	pushq	%rbp
	.seh_pushreg	%rbp
	movq	%rsp, %rbp
	.seh_setframe	%rbp, 0
	.seh_endprologue
	movq	%rcx, 16(%rbp)
	movq	%rdx, 24(%rbp)
	movq	%r8, 32(%rbp)
	movq	%r9, 40(%rbp)
	movq	16(%rbp), %rax
	movq	24(%rbp), %rdx
	movq	%rdx, (%rax)
	movq	16(%rbp), %rax
	movq	32(%rbp), %rdx
	movq	%rdx, 8(%rax)
	movq	16(%rbp), %rax
	movq	40(%rbp), %rdx
	movq	%rdx, 16(%rax)
	nop
	popq	%rbp
	ret
	.seh_endproc
	.section	.text$_ZNSt6vectorIySaIyEE12_Guard_allocD1Ev,"x"
	.linkonce discard
	.align 2
	.globl	_ZNSt6vectorIySaIyEE12_Guard_allocD1Ev
	.def	_ZNSt6vectorIySaIyEE12_Guard_allocD1Ev;	.scl	2;	.type	32;	.endef
	.seh_proc	_ZNSt6vectorIySaIyEE12_Guard_allocD1Ev
_ZNSt6vectorIySaIyEE12_Guard_allocD1Ev:
.LFB12435:
	pushq	%rbp
	.seh_pushreg	%rbp
	movq	%rsp, %rbp
	.seh_setframe	%rbp, 0
	subq	$32, %rsp
	.seh_stackalloc	32
	.seh_endprologue
	movq	%rcx, 16(%rbp)
	movq	16(%rbp), %rax
	movq	(%rax), %rax
	testq	%rax, %rax
	je	.L650
	movq	16(%rbp), %rax
	movq	16(%rax), %rax
	movq	16(%rbp), %rdx
	movq	8(%rdx), %rcx
	movq	16(%rbp), %rdx
	movq	(%rdx), %rdx
	movq	%rcx, %r8
	movq	%rax, %rcx
	call	_ZNSt12_Vector_baseIySaIyEE13_M_deallocateEPyy
.L650:
	nop
	addq	$32, %rsp
	popq	%rbp
	ret
	.seh_endproc
	.section	.text$_ZNSt6vectorIySaIyEE12_Guard_alloc10_M_releaseEv,"x"
	.linkonce discard
	.align 2
	.globl	_ZNSt6vectorIySaIyEE12_Guard_alloc10_M_releaseEv
	.def	_ZNSt6vectorIySaIyEE12_Guard_alloc10_M_releaseEv;	.scl	2;	.type	32;	.endef
	.seh_proc	_ZNSt6vectorIySaIyEE12_Guard_alloc10_M_releaseEv
_ZNSt6vectorIySaIyEE12_Guard_alloc10_M_releaseEv:
.LFB12436:
	pushq	%rbp
	.seh_pushreg	%rbp
	movq	%rsp, %rbp
	.seh_setframe	%rbp, 0
	subq	$16, %rsp
	.seh_stackalloc	16
	.seh_endprologue
	movq	%rcx, 16(%rbp)
	movq	16(%rbp), %rax
	movq	(%rax), %rax
	movq	%rax, -8(%rbp)
	movq	16(%rbp), %rax
	movq	$0, (%rax)
	movq	-8(%rbp), %rax
	addq	$16, %rsp
	popq	%rbp
	ret
	.seh_endproc
	.section	.text$_ZSt12__miter_baseIN9__gnu_cxx17__normal_iteratorIPKySt6vectorIySaIyEEEEET_S8_,"x"
	.linkonce discard
	.globl	_ZSt12__miter_baseIN9__gnu_cxx17__normal_iteratorIPKySt6vectorIySaIyEEEEET_S8_
	.def	_ZSt12__miter_baseIN9__gnu_cxx17__normal_iteratorIPKySt6vectorIySaIyEEEEET_S8_;	.scl	2;	.type	32;	.endef
	.seh_proc	_ZSt12__miter_baseIN9__gnu_cxx17__normal_iteratorIPKySt6vectorIySaIyEEEEET_S8_
_ZSt12__miter_baseIN9__gnu_cxx17__normal_iteratorIPKySt6vectorIySaIyEEEEET_S8_:
.LFB12437:
	pushq	%rbp
	.seh_pushreg	%rbp
	movq	%rsp, %rbp
	.seh_setframe	%rbp, 0
	.seh_endprologue
	movq	%rcx, 16(%rbp)
	movq	16(%rbp), %rax
	popq	%rbp
	ret
	.seh_endproc
	.section	.text$_ZSt8_DestroyIN9__gnu_cxx17__normal_iteratorIPySt6vectorIySaIyEEEEEvT_S7_,"x"
	.linkonce discard
	.globl	_ZSt8_DestroyIN9__gnu_cxx17__normal_iteratorIPySt6vectorIySaIyEEEEEvT_S7_
	.def	_ZSt8_DestroyIN9__gnu_cxx17__normal_iteratorIPySt6vectorIySaIyEEEEEvT_S7_;	.scl	2;	.type	32;	.endef
	.seh_proc	_ZSt8_DestroyIN9__gnu_cxx17__normal_iteratorIPySt6vectorIySaIyEEEEEvT_S7_
_ZSt8_DestroyIN9__gnu_cxx17__normal_iteratorIPySt6vectorIySaIyEEEEEvT_S7_:
.LFB12439:
	pushq	%rbp
	.seh_pushreg	%rbp
	movq	%rsp, %rbp
	.seh_setframe	%rbp, 0
	.seh_endprologue
	movq	%rcx, 16(%rbp)
	movq	%rdx, 24(%rbp)
	nop
	popq	%rbp
	ret
	.seh_endproc
	.section	.text$_ZSt12__miter_baseIPyET_S1_,"x"
	.linkonce discard
	.globl	_ZSt12__miter_baseIPyET_S1_
	.def	_ZSt12__miter_baseIPyET_S1_;	.scl	2;	.type	32;	.endef
	.seh_proc	_ZSt12__miter_baseIPyET_S1_
_ZSt12__miter_baseIPyET_S1_:
.LFB12440:
	pushq	%rbp
	.seh_pushreg	%rbp
	movq	%rsp, %rbp
	.seh_setframe	%rbp, 0
	.seh_endprologue
	movq	%rcx, 16(%rbp)
	movq	16(%rbp), %rax
	popq	%rbp
	ret
	.seh_endproc
	.section	.text$_ZSt18uninitialized_copyIPyS0_ET0_T_S2_S1_,"x"
	.linkonce discard
	.globl	_ZSt18uninitialized_copyIPyS0_ET0_T_S2_S1_
	.def	_ZSt18uninitialized_copyIPyS0_ET0_T_S2_S1_;	.scl	2;	.type	32;	.endef
	.seh_proc	_ZSt18uninitialized_copyIPyS0_ET0_T_S2_S1_
_ZSt18uninitialized_copyIPyS0_ET0_T_S2_S1_:
.LFB12442:
	pushq	%rbp
	.seh_pushreg	%rbp
	movq	%rsp, %rbp
	.seh_setframe	%rbp, 0
	subq	$64, %rsp
	.seh_stackalloc	64
	.seh_endprologue
	movq	%rcx, 16(%rbp)
	movq	%rdx, 24(%rbp)
	movq	%r8, 32(%rbp)
	movq	24(%rbp), %rax
	subq	16(%rbp), %rax
	sarq	$3, %rax
	movq	%rax, -8(%rbp)
	cmpq	$0, -8(%rbp)
	jle	.L659
	movq	-8(%rbp), %rax
	leaq	0(,%rax,8), %rcx
	movq	16(%rbp), %rax
	movq	%rax, -24(%rbp)
	movq	-24(%rbp), %rdx
	movq	32(%rbp), %rax
	movq	%rax, -16(%rbp)
	movq	-16(%rbp), %rax
	movq	%rcx, %r8
	movq	%rax, %rcx
	call	memcpy
	movq	-8(%rbp), %rax
	salq	$3, %rax
	addq	%rax, 32(%rbp)
.L659:
	movq	32(%rbp), %rax
	addq	$64, %rsp
	popq	%rbp
	ret
	.seh_endproc
	.section	.text$_ZNKSt6vectorIS_IS_IfSaIfEESaIS1_EESaIS3_EE8capacityEv,"x"
	.linkonce discard
	.align 2
	.globl	_ZNKSt6vectorIS_IS_IfSaIfEESaIS1_EESaIS3_EE8capacityEv
	.def	_ZNKSt6vectorIS_IS_IfSaIfEESaIS1_EESaIS3_EE8capacityEv;	.scl	2;	.type	32;	.endef
	.seh_proc	_ZNKSt6vectorIS_IS_IfSaIfEESaIS1_EESaIS3_EE8capacityEv
_ZNKSt6vectorIS_IS_IfSaIfEESaIS1_EESaIS3_EE8capacityEv:
.LFB12443:
	pushq	%rbp
	.seh_pushreg	%rbp
	movq	%rsp, %rbp
	.seh_setframe	%rbp, 0
	subq	$16, %rsp
	.seh_stackalloc	16
	.seh_endprologue
	movq	%rcx, 16(%rbp)
	movq	16(%rbp), %rax
	movq	16(%rax), %rdx
	movq	16(%rbp), %rax
	movq	(%rax), %rax
	subq	%rax, %rdx
	sarq	$3, %rdx
	movabsq	$-6148914691236517205, %rax
	imulq	%rdx, %rax
	movq	%rax, -8(%rbp)
	cmpq	$0, -8(%rbp)
	movq	-8(%rbp), %rax
	addq	$16, %rsp
	popq	%rbp
	ret
	.seh_endproc
	.section	.text$_ZNSt6vectorIS_IS_IfSaIfEESaIS1_EESaIS3_EEC1EyRKS3_RKS4_,"x"
	.linkonce discard
	.align 2
	.globl	_ZNSt6vectorIS_IS_IfSaIfEESaIS1_EESaIS3_EEC1EyRKS3_RKS4_
	.def	_ZNSt6vectorIS_IS_IfSaIfEESaIS1_EESaIS3_EEC1EyRKS3_RKS4_;	.scl	2;	.type	32;	.endef
	.seh_proc	_ZNSt6vectorIS_IS_IfSaIfEESaIS1_EESaIS3_EEC1EyRKS3_RKS4_
_ZNSt6vectorIS_IS_IfSaIfEESaIS1_EESaIS3_EEC1EyRKS3_RKS4_:
